   1              		.cpu cortex-m3
   2              		.eabi_attribute 20, 1
   3              		.eabi_attribute 21, 1
   4              		.eabi_attribute 23, 3
   5              		.eabi_attribute 24, 1
   6              		.eabi_attribute 25, 1
   7              		.eabi_attribute 26, 1
   8              		.eabi_attribute 30, 4
   9              		.eabi_attribute 34, 1
  10              		.eabi_attribute 18, 4
  11              		.file	"lcd.c"
  12              		.text
  13              	.Ltext0:
  14              		.cfi_sections	.debug_frame
  15              		.section	.text.lcd_data_port_input,"ax",%progbits
  16              		.align	1
  17              		.global	lcd_data_port_input
  18              		.arch armv7-m
  19              		.syntax unified
  20              		.thumb
  21              		.thumb_func
  22              		.fpu softvfp
  24              	lcd_data_port_input:
  25              	.LFB32:
  26              		.file 1 "lcd.c"
   1:lcd.c         **** /********************************************************************************/
   2:lcd.c         **** /* lcd.c                                                                        */
   3:lcd.c         **** /* STM32F103VET6                                                                */
   4:lcd.c         **** /* (Lee ChangWoo HL2IRW  hl2irw@kpu.ac.kr 011-726-6860)                 	*/
   5:lcd.c         **** /* stm32f103ve_mp3								*/
   6:lcd.c         **** /********************************************************************************/
   7:lcd.c         **** #include <stdint.h>
   8:lcd.c         **** #include <stdio.h>
   9:lcd.c         **** #include <stdarg.h>
  10:lcd.c         **** #include <stdlib.h>
  11:lcd.c         **** #include <string.h>
  12:lcd.c         **** #include "hwdefs.h"
  13:lcd.c         **** #include "color.h"
  14:lcd.c         **** #include "font.h"
  15:lcd.c         **** 
  16:lcd.c         **** 
  17:lcd.c         **** //#define  ILI9320    0  /* 0x9320 */
  18:lcd.c         **** //#define  ILI9325    1  /* 0x9325 */
  19:lcd.c         **** //#define  ILI9328    2  /* 0x9328 */
  20:lcd.c         **** //#define  ILI9331    3  /* 0x9331 */
  21:lcd.c         **** //#define  SSD1298    4  /* 0x8999 */
  22:lcd.c         **** //#define  SSD1289    5  /* 0x8989 */
  23:lcd.c         **** //#define  ST7781     6  /* 0x7783 */
  24:lcd.c         **** //#define  LGDP4531   7  /* 0x4531 */
  25:lcd.c         **** //#define  SPFD5408B  8  /* 0x5408 */
  26:lcd.c         **** //#define  R61505U    9  /* 0x1505 0x0505 */
  27:lcd.c         **** //#define  HX8347D    10 /* 0x0047 */
  28:lcd.c         **** //#define  HX8347A    11 /* 0x0047 */
  29:lcd.c         **** //#define  LGDP4535   12 /* 0x4535 */
  30:lcd.c         **** //#define  SSD2119    13 /* 3.5 LCD 0x9919 */
  31:lcd.c         **** 
  32:lcd.c         **** 
  33:lcd.c         **** #define LCD_DATA_PORT		GPIOE
  34:lcd.c         **** #define LCD_CTL_PORT		GPIOD
  35:lcd.c         **** 
  36:lcd.c         **** #define LCD_DATA0		GPIO_Pin_0
  37:lcd.c         **** #define LCD_DATA1		GPIO_Pin_1
  38:lcd.c         **** #define LCD_DATA2		GPIO_Pin_2
  39:lcd.c         **** #define LCD_DATA3		GPIO_Pin_3
  40:lcd.c         **** #define LCD_DATA4		GPIO_Pin_4
  41:lcd.c         **** #define LCD_DATA5		GPIO_Pin_5
  42:lcd.c         **** #define LCD_DATA6		GPIO_Pin_6
  43:lcd.c         **** #define LCD_DATA7		GPIO_Pin_7
  44:lcd.c         **** #define LCD_DATA8		GPIO_Pin_8
  45:lcd.c         **** #define LCD_DATA9		GPIO_Pin_9
  46:lcd.c         **** #define LCD_DATA10		GPIO_Pin_10
  47:lcd.c         **** #define LCD_DATA11		GPIO_Pin_11
  48:lcd.c         **** #define LCD_DATA12		GPIO_Pin_12
  49:lcd.c         **** #define LCD_DATA13		GPIO_Pin_13
  50:lcd.c         **** #define LCD_DATA14		GPIO_Pin_14
  51:lcd.c         **** #define LCD_DATA15		GPIO_Pin_15
  52:lcd.c         **** 
  53:lcd.c         **** #define LCD_CS			GPIO_Pin_12
  54:lcd.c         **** #define LCD_RS			GPIO_Pin_13
  55:lcd.c         **** #define LCD_WR			GPIO_Pin_14
  56:lcd.c         **** #define LCD_RD			GPIO_Pin_15
  57:lcd.c         **** 
  58:lcd.c         **** #define R0			0x00
  59:lcd.c         **** #define R1			0x01
  60:lcd.c         **** #define R2			0x02
  61:lcd.c         **** #define R3			0x03
  62:lcd.c         **** #define R4			0x04
  63:lcd.c         **** #define R5			0x05
  64:lcd.c         **** #define R6			0x06
  65:lcd.c         **** #define R7			0x07
  66:lcd.c         **** #define R8			0x08
  67:lcd.c         **** #define R9			0x09
  68:lcd.c         **** #define R10			0x0A
  69:lcd.c         **** #define R12			0x0C
  70:lcd.c         **** #define R13			0x0D
  71:lcd.c         **** #define R14			0x0E
  72:lcd.c         **** #define R15			0x0F
  73:lcd.c         **** #define R16			0x10
  74:lcd.c         **** #define R17			0x11
  75:lcd.c         **** #define R18			0x12
  76:lcd.c         **** #define R19			0x13
  77:lcd.c         **** #define R20			0x14
  78:lcd.c         **** #define R21			0x15
  79:lcd.c         **** #define R22			0x16
  80:lcd.c         **** #define R23			0x17
  81:lcd.c         **** #define R24			0x18
  82:lcd.c         **** #define R25			0x19
  83:lcd.c         **** #define R26			0x1A
  84:lcd.c         **** #define R27			0x1B
  85:lcd.c         **** #define R28			0x1C
  86:lcd.c         **** #define R29			0x1D
  87:lcd.c         **** #define R30			0x1E
  88:lcd.c         **** #define R31			0x1F
  89:lcd.c         **** #define R32			0x20
  90:lcd.c         **** #define R33			0x21
  91:lcd.c         **** #define R34			0x22
  92:lcd.c         **** #define R36			0x24
  93:lcd.c         **** #define R37			0x25
  94:lcd.c         **** #define R40			0x28
  95:lcd.c         **** #define R41			0x29
  96:lcd.c         **** #define R43			0x2B
  97:lcd.c         **** #define R45			0x2D
  98:lcd.c         **** #define R48			0x30
  99:lcd.c         **** #define R49			0x31
 100:lcd.c         **** #define R50			0x32
 101:lcd.c         **** #define R51			0x33
 102:lcd.c         **** #define R52			0x34
 103:lcd.c         **** #define R53			0x35
 104:lcd.c         **** #define R54			0x36
 105:lcd.c         **** #define R55			0x37
 106:lcd.c         **** #define R56			0x38
 107:lcd.c         **** #define R57			0x39
 108:lcd.c         **** #define R59			0x3B
 109:lcd.c         **** #define R60			0x3C
 110:lcd.c         **** #define R61			0x3D
 111:lcd.c         **** #define R62			0x3E
 112:lcd.c         **** #define R63			0x3F
 113:lcd.c         **** #define R64			0x40
 114:lcd.c         **** #define R65			0x41
 115:lcd.c         **** #define R66			0x42
 116:lcd.c         **** #define R67			0x43
 117:lcd.c         **** #define R68			0x44
 118:lcd.c         **** #define R69			0x45
 119:lcd.c         **** #define R70			0x46
 120:lcd.c         **** #define R71			0x47
 121:lcd.c         **** #define R72			0x48
 122:lcd.c         **** #define R73			0x49
 123:lcd.c         **** #define R74			0x4A
 124:lcd.c         **** #define R75			0x4B
 125:lcd.c         **** #define R76			0x4C
 126:lcd.c         **** #define R77			0x4D
 127:lcd.c         **** #define R78			0x4E
 128:lcd.c         **** #define R79			0x4F
 129:lcd.c         **** #define R80			0x50
 130:lcd.c         **** #define R81			0x51
 131:lcd.c         **** #define R82			0x52
 132:lcd.c         **** #define R83			0x53
 133:lcd.c         **** #define R96			0x60
 134:lcd.c         **** #define R97			0x61
 135:lcd.c         **** #define R106			0x6A
 136:lcd.c         **** #define R118			0x76
 137:lcd.c         **** #define R128			0x80
 138:lcd.c         **** #define R129			0x81
 139:lcd.c         **** #define R130			0x82
 140:lcd.c         **** #define R131			0x83
 141:lcd.c         **** #define R132			0x84
 142:lcd.c         **** #define R133			0x85
 143:lcd.c         **** #define R134			0x86
 144:lcd.c         **** #define R135			0x87
 145:lcd.c         **** #define R136			0x88
 146:lcd.c         **** #define R137			0x89
 147:lcd.c         **** #define R139			0x8B
 148:lcd.c         **** #define R140			0x8C
 149:lcd.c         **** #define R141			0x8D
 150:lcd.c         **** #define R143			0x8F
 151:lcd.c         **** #define R144			0x90
 152:lcd.c         **** #define R145			0x91
 153:lcd.c         **** #define R146			0x92
 154:lcd.c         **** #define R147			0x93
 155:lcd.c         **** #define R148			0x94
 156:lcd.c         **** #define R149			0x95
 157:lcd.c         **** #define R150			0x96
 158:lcd.c         **** #define R151			0x97
 159:lcd.c         **** #define R152			0x98
 160:lcd.c         **** #define R153			0x99
 161:lcd.c         **** #define R154			0x9A
 162:lcd.c         **** #define R157			0x9D
 163:lcd.c         **** #define R192			0xC0
 164:lcd.c         **** #define R193			0xC1
 165:lcd.c         **** #define R229			0xE5
 166:lcd.c         **** 
 167:lcd.c         **** unsigned short foreground_color,background_color,device_code,maxx,maxy,ax,ay,max_col,max_row,tx,ty,
 168:lcd.c         **** char buff[256],dumy_data[32];
 169:lcd.c         **** const unsigned char s_bit[8] = {0x80,0x40,0x20,0x10,8,4,2,1};
 170:lcd.c         **** volatile unsigned char hangul_mode;
 171:lcd.c         **** 
 172:lcd.c         **** 
 173:lcd.c         **** const unsigned char han_tbl [3][32] = {  // 3 * 32
 174:lcd.c         ****         {0, 0, 1, 2, 3, 4, 5, 6, 7, 8, 9,10,11,12,13,14,15,16,17,18,19, 0, 0, 0, 0, 0, 0, 0, 0, 0, 
 175:lcd.c         ****         {0, 0, 0, 1, 2, 3, 4, 5, 0, 0, 6, 7, 8, 9,10,11, 0, 0,12,13,14,15,16,17, 0, 0,18,19,20,21, 
 176:lcd.c         ****         {0, 0, 1, 2, 3, 4, 5, 6, 7, 8, 9,10,11,12,13,14,15,16, 0,17,18,19,20,21,22,23,24,25,26,27, 
 177:lcd.c         **** const unsigned short loc1[8] = {0,20,40,60,80,100,120,140};
 178:lcd.c         **** const unsigned short loc2[4] = {160,182,204,226};
 179:lcd.c         **** const unsigned short loc3[4] = {248,276,304,332};
 180:lcd.c         **** 
 181:lcd.c         **** const unsigned short hangul_chosung_tbl [19] = {
 182:lcd.c         ****       0x8800, 0x8C00, 0X9000, 0x9400, 0x9800, 0x9C00, 0xA000, 0xA400,
 183:lcd.c         ****       0xA800, 0xAC00, 0xB000, 0xB400, 0xB800, 0xBC00, 0xC000, 0xC400,
 184:lcd.c         ****       0xC800, 0xCC00, 0xD000};
 185:lcd.c         **** 
 186:lcd.c         **** const unsigned short hangul_jungsung_tbl [21] = {
 187:lcd.c         ****       0x8060, 0x8080, 0X80A0, 0x80C0, 0x80E0, 0x8140, 0x8160, 0x8180,
 188:lcd.c         ****       0x81A0, 0x81C0, 0x81E0, 0x8240, 0x8260, 0x8280, 0x82A0, 0x82C0,
 189:lcd.c         ****       0x82E0, 0x8340, 0x8360, 0x8380, 0x83A0};
 190:lcd.c         **** 
 191:lcd.c         **** const unsigned short hangul_jongsung_tbl[28] = {
 192:lcd.c         ****       0x8001, 0x8002, 0x8003, 0x8004, 0x8005, 0x8006, 0x8007, 0x8008,
 193:lcd.c         ****       0x8009, 0x800A, 0x800B, 0x800C, 0x800D, 0x800E, 0x800F, 0x8010,
 194:lcd.c         ****       0x8011, 0x8013, 0x8014, 0x8015, 0x8016, 0x8017, 0x8018, 0x8019,
 195:lcd.c         ****       0x801A, 0x801B, 0x801C, 0x801D};
 196:lcd.c         **** 
 197:lcd.c         **** 
 198:lcd.c         **** 
 199:lcd.c         **** void lcd_data_port_input (void)
 200:lcd.c         **** {
  27              		.loc 1 200 1 view -0
  28              		.cfi_startproc
  29              		@ args = 0, pretend = 0, frame = 0
  30              		@ frame_needed = 0, uses_anonymous_args = 0
  31              		@ link register save eliminated.
 201:lcd.c         ****       LCD_DATA_PORT->CRL = 0X88888888;
  32              		.loc 1 201 7 view .LVU1
  33              		.loc 1 201 26 is_stmt 0 view .LVU2
  34 0000 4FF08832 		mov	r2, #-2004318072
  35 0004 034B     		ldr	r3, .L2
  36 0006 1A60     		str	r2, [r3]
 202:lcd.c         ****       LCD_DATA_PORT->CRH = 0X88888888;
  37              		.loc 1 202 7 is_stmt 1 view .LVU3
  38              		.loc 1 202 26 is_stmt 0 view .LVU4
  39 0008 5A60     		str	r2, [r3, #4]
 203:lcd.c         ****       LCD_DATA_PORT->ODR = 0XFFFF;
  40              		.loc 1 203 7 is_stmt 1 view .LVU5
  41              		.loc 1 203 26 is_stmt 0 view .LVU6
  42 000a 4FF6FF72 		movw	r2, #65535
  43 000e DA60     		str	r2, [r3, #12]
 204:lcd.c         **** }
  44              		.loc 1 204 1 view .LVU7
  45 0010 7047     		bx	lr
  46              	.L3:
  47 0012 00BF     		.align	2
  48              	.L2:
  49 0014 00180140 		.word	1073813504
  50              		.cfi_endproc
  51              	.LFE32:
  53              		.section	.text.lcd_data_port_output,"ax",%progbits
  54              		.align	1
  55              		.global	lcd_data_port_output
  56              		.syntax unified
  57              		.thumb
  58              		.thumb_func
  59              		.fpu softvfp
  61              	lcd_data_port_output:
  62              	.LFB33:
 205:lcd.c         **** 
 206:lcd.c         **** 
 207:lcd.c         **** void lcd_data_port_output (void)
 208:lcd.c         **** {
  63              		.loc 1 208 1 is_stmt 1 view -0
  64              		.cfi_startproc
  65              		@ args = 0, pretend = 0, frame = 0
  66              		@ frame_needed = 0, uses_anonymous_args = 0
  67              		@ link register save eliminated.
 209:lcd.c         ****       LCD_DATA_PORT->CRL = 0X33333333;
  68              		.loc 1 209 7 view .LVU9
  69              		.loc 1 209 26 is_stmt 0 view .LVU10
  70 0000 4FF03332 		mov	r2, #858993459
  71 0004 034B     		ldr	r3, .L5
  72 0006 1A60     		str	r2, [r3]
 210:lcd.c         ****       LCD_DATA_PORT->CRH = 0X33333333;
  73              		.loc 1 210 7 is_stmt 1 view .LVU11
  74              		.loc 1 210 26 is_stmt 0 view .LVU12
  75 0008 5A60     		str	r2, [r3, #4]
 211:lcd.c         ****       LCD_DATA_PORT->ODR = 0XFFFF;
  76              		.loc 1 211 7 is_stmt 1 view .LVU13
  77              		.loc 1 211 26 is_stmt 0 view .LVU14
  78 000a 4FF6FF72 		movw	r2, #65535
  79 000e DA60     		str	r2, [r3, #12]
 212:lcd.c         **** }
  80              		.loc 1 212 1 view .LVU15
  81 0010 7047     		bx	lr
  82              	.L6:
  83 0012 00BF     		.align	2
  84              	.L5:
  85 0014 00180140 		.word	1073813504
  86              		.cfi_endproc
  87              	.LFE33:
  89              		.section	.text.lcd_data_write,"ax",%progbits
  90              		.align	1
  91              		.global	lcd_data_write
  92              		.syntax unified
  93              		.thumb
  94              		.thumb_func
  95              		.fpu softvfp
  97              	lcd_data_write:
  98              	.LVL0:
  99              	.LFB34:
 213:lcd.c         **** 
 214:lcd.c         **** 
 215:lcd.c         **** void lcd_data_write (unsigned short value)
 216:lcd.c         **** {
 100              		.loc 1 216 1 is_stmt 1 view -0
 101              		.cfi_startproc
 102              		@ args = 0, pretend = 0, frame = 0
 103              		@ frame_needed = 0, uses_anonymous_args = 0
 104              		@ link register save eliminated.
 217:lcd.c         ****       LCD_DATA_PORT->ODR = value;
 105              		.loc 1 217 7 view .LVU17
 106              		.loc 1 217 26 is_stmt 0 view .LVU18
 107 0000 014B     		ldr	r3, .L8
 108 0002 D860     		str	r0, [r3, #12]
 218:lcd.c         **** }
 109              		.loc 1 218 1 view .LVU19
 110 0004 7047     		bx	lr
 111              	.L9:
 112 0006 00BF     		.align	2
 113              	.L8:
 114 0008 00180140 		.word	1073813504
 115              		.cfi_endproc
 116              	.LFE34:
 118              		.section	.text.lcd_data_read,"ax",%progbits
 119              		.align	1
 120              		.global	lcd_data_read
 121              		.syntax unified
 122              		.thumb
 123              		.thumb_func
 124              		.fpu softvfp
 126              	lcd_data_read:
 127              	.LFB35:
 219:lcd.c         **** 
 220:lcd.c         **** 
 221:lcd.c         **** unsigned short lcd_data_read (void)
 222:lcd.c         **** {
 128              		.loc 1 222 1 is_stmt 1 view -0
 129              		.cfi_startproc
 130              		@ args = 0, pretend = 0, frame = 0
 131              		@ frame_needed = 0, uses_anonymous_args = 0
 132              		@ link register save eliminated.
 223:lcd.c         ****       return (LCD_DATA_PORT->IDR);
 133              		.loc 1 223 7 view .LVU21
 134              		.loc 1 223 28 is_stmt 0 view .LVU22
 135 0000 014B     		ldr	r3, .L11
 136 0002 9868     		ldr	r0, [r3, #8]
 224:lcd.c         **** }
 137              		.loc 1 224 1 view .LVU23
 138 0004 80B2     		uxth	r0, r0
 139 0006 7047     		bx	lr
 140              	.L12:
 141              		.align	2
 142              	.L11:
 143 0008 00180140 		.word	1073813504
 144              		.cfi_endproc
 145              	.LFE35:
 147              		.section	.text.lcd_cs_hi,"ax",%progbits
 148              		.align	1
 149              		.global	lcd_cs_hi
 150              		.syntax unified
 151              		.thumb
 152              		.thumb_func
 153              		.fpu softvfp
 155              	lcd_cs_hi:
 156              	.LFB36:
 225:lcd.c         **** 
 226:lcd.c         **** 
 227:lcd.c         **** void lcd_cs_hi (void)
 228:lcd.c         **** {
 157              		.loc 1 228 1 is_stmt 1 view -0
 158              		.cfi_startproc
 159              		@ args = 0, pretend = 0, frame = 0
 160              		@ frame_needed = 0, uses_anonymous_args = 0
 161              		@ link register save eliminated.
 229:lcd.c         ****       GPIO_SetBits(LCD_CTL_PORT,LCD_CS);
 162              		.loc 1 229 7 view .LVU25
 163 0000 4FF48051 		mov	r1, #4096
 164 0004 0148     		ldr	r0, .L14
 165 0006 FFF7FEBF 		b	GPIO_SetBits
 166              	.LVL1:
 167              	.L15:
 168 000a 00BF     		.align	2
 169              	.L14:
 170 000c 00140140 		.word	1073812480
 171              		.cfi_endproc
 172              	.LFE36:
 174              		.section	.text.lcd_cs_lo,"ax",%progbits
 175              		.align	1
 176              		.global	lcd_cs_lo
 177              		.syntax unified
 178              		.thumb
 179              		.thumb_func
 180              		.fpu softvfp
 182              	lcd_cs_lo:
 183              	.LFB37:
 230:lcd.c         **** }
 231:lcd.c         **** 
 232:lcd.c         **** 
 233:lcd.c         **** void lcd_cs_lo (void)
 234:lcd.c         **** {
 184              		.loc 1 234 1 view -0
 185              		.cfi_startproc
 186              		@ args = 0, pretend = 0, frame = 0
 187              		@ frame_needed = 0, uses_anonymous_args = 0
 188              		@ link register save eliminated.
 235:lcd.c         ****       GPIO_ResetBits(LCD_CTL_PORT,LCD_CS);
 189              		.loc 1 235 7 view .LVU27
 190 0000 4FF48051 		mov	r1, #4096
 191 0004 0148     		ldr	r0, .L17
 192 0006 FFF7FEBF 		b	GPIO_ResetBits
 193              	.LVL2:
 194              	.L18:
 195 000a 00BF     		.align	2
 196              	.L17:
 197 000c 00140140 		.word	1073812480
 198              		.cfi_endproc
 199              	.LFE37:
 201              		.section	.text.lcd_rs_hi,"ax",%progbits
 202              		.align	1
 203              		.global	lcd_rs_hi
 204              		.syntax unified
 205              		.thumb
 206              		.thumb_func
 207              		.fpu softvfp
 209              	lcd_rs_hi:
 210              	.LFB38:
 236:lcd.c         **** }
 237:lcd.c         **** 
 238:lcd.c         **** 
 239:lcd.c         **** void lcd_rs_hi (void)
 240:lcd.c         **** {
 211              		.loc 1 240 1 view -0
 212              		.cfi_startproc
 213              		@ args = 0, pretend = 0, frame = 0
 214              		@ frame_needed = 0, uses_anonymous_args = 0
 215              		@ link register save eliminated.
 241:lcd.c         ****       GPIO_SetBits(LCD_CTL_PORT,LCD_RS);
 216              		.loc 1 241 7 view .LVU29
 217 0000 4FF40051 		mov	r1, #8192
 218 0004 0148     		ldr	r0, .L20
 219 0006 FFF7FEBF 		b	GPIO_SetBits
 220              	.LVL3:
 221              	.L21:
 222 000a 00BF     		.align	2
 223              	.L20:
 224 000c 00140140 		.word	1073812480
 225              		.cfi_endproc
 226              	.LFE38:
 228              		.section	.text.lcd_rs_lo,"ax",%progbits
 229              		.align	1
 230              		.global	lcd_rs_lo
 231              		.syntax unified
 232              		.thumb
 233              		.thumb_func
 234              		.fpu softvfp
 236              	lcd_rs_lo:
 237              	.LFB39:
 242:lcd.c         **** }
 243:lcd.c         **** 
 244:lcd.c         **** 
 245:lcd.c         **** void lcd_rs_lo (void)
 246:lcd.c         **** {
 238              		.loc 1 246 1 view -0
 239              		.cfi_startproc
 240              		@ args = 0, pretend = 0, frame = 0
 241              		@ frame_needed = 0, uses_anonymous_args = 0
 242              		@ link register save eliminated.
 247:lcd.c         ****       GPIO_ResetBits(LCD_CTL_PORT,LCD_RS);
 243              		.loc 1 247 7 view .LVU31
 244 0000 4FF40051 		mov	r1, #8192
 245 0004 0148     		ldr	r0, .L23
 246 0006 FFF7FEBF 		b	GPIO_ResetBits
 247              	.LVL4:
 248              	.L24:
 249 000a 00BF     		.align	2
 250              	.L23:
 251 000c 00140140 		.word	1073812480
 252              		.cfi_endproc
 253              	.LFE39:
 255              		.section	.text.lcd_wr_hi,"ax",%progbits
 256              		.align	1
 257              		.global	lcd_wr_hi
 258              		.syntax unified
 259              		.thumb
 260              		.thumb_func
 261              		.fpu softvfp
 263              	lcd_wr_hi:
 264              	.LFB40:
 248:lcd.c         **** }
 249:lcd.c         **** 
 250:lcd.c         **** 
 251:lcd.c         **** void lcd_wr_hi (void)
 252:lcd.c         **** {
 265              		.loc 1 252 1 view -0
 266              		.cfi_startproc
 267              		@ args = 0, pretend = 0, frame = 0
 268              		@ frame_needed = 0, uses_anonymous_args = 0
 269              		@ link register save eliminated.
 253:lcd.c         ****       GPIO_SetBits(LCD_CTL_PORT,LCD_WR);
 270              		.loc 1 253 7 view .LVU33
 271 0000 4FF48041 		mov	r1, #16384
 272 0004 0148     		ldr	r0, .L26
 273 0006 FFF7FEBF 		b	GPIO_SetBits
 274              	.LVL5:
 275              	.L27:
 276 000a 00BF     		.align	2
 277              	.L26:
 278 000c 00140140 		.word	1073812480
 279              		.cfi_endproc
 280              	.LFE40:
 282              		.section	.text.lcd_wr_lo,"ax",%progbits
 283              		.align	1
 284              		.global	lcd_wr_lo
 285              		.syntax unified
 286              		.thumb
 287              		.thumb_func
 288              		.fpu softvfp
 290              	lcd_wr_lo:
 291              	.LFB41:
 254:lcd.c         **** }
 255:lcd.c         **** 
 256:lcd.c         **** 
 257:lcd.c         **** void lcd_wr_lo (void)
 258:lcd.c         **** {
 292              		.loc 1 258 1 view -0
 293              		.cfi_startproc
 294              		@ args = 0, pretend = 0, frame = 0
 295              		@ frame_needed = 0, uses_anonymous_args = 0
 296              		@ link register save eliminated.
 259:lcd.c         ****       GPIO_ResetBits(LCD_CTL_PORT,LCD_WR);
 297              		.loc 1 259 7 view .LVU35
 298 0000 4FF48041 		mov	r1, #16384
 299 0004 0148     		ldr	r0, .L29
 300 0006 FFF7FEBF 		b	GPIO_ResetBits
 301              	.LVL6:
 302              	.L30:
 303 000a 00BF     		.align	2
 304              	.L29:
 305 000c 00140140 		.word	1073812480
 306              		.cfi_endproc
 307              	.LFE41:
 309              		.section	.text.lcd_rd_hi,"ax",%progbits
 310              		.align	1
 311              		.global	lcd_rd_hi
 312              		.syntax unified
 313              		.thumb
 314              		.thumb_func
 315              		.fpu softvfp
 317              	lcd_rd_hi:
 318              	.LFB42:
 260:lcd.c         **** }
 261:lcd.c         **** 
 262:lcd.c         **** 
 263:lcd.c         **** void lcd_rd_hi (void)
 264:lcd.c         **** {
 319              		.loc 1 264 1 view -0
 320              		.cfi_startproc
 321              		@ args = 0, pretend = 0, frame = 0
 322              		@ frame_needed = 0, uses_anonymous_args = 0
 323              		@ link register save eliminated.
 265:lcd.c         ****       GPIO_SetBits(LCD_CTL_PORT,LCD_RD);
 324              		.loc 1 265 7 view .LVU37
 325 0000 4FF40041 		mov	r1, #32768
 326 0004 0148     		ldr	r0, .L32
 327 0006 FFF7FEBF 		b	GPIO_SetBits
 328              	.LVL7:
 329              	.L33:
 330 000a 00BF     		.align	2
 331              	.L32:
 332 000c 00140140 		.word	1073812480
 333              		.cfi_endproc
 334              	.LFE42:
 336              		.section	.text.lcd_rd_lo,"ax",%progbits
 337              		.align	1
 338              		.global	lcd_rd_lo
 339              		.syntax unified
 340              		.thumb
 341              		.thumb_func
 342              		.fpu softvfp
 344              	lcd_rd_lo:
 345              	.LFB43:
 266:lcd.c         **** }
 267:lcd.c         **** 
 268:lcd.c         **** 
 269:lcd.c         **** void lcd_rd_lo (void)
 270:lcd.c         **** {
 346              		.loc 1 270 1 view -0
 347              		.cfi_startproc
 348              		@ args = 0, pretend = 0, frame = 0
 349              		@ frame_needed = 0, uses_anonymous_args = 0
 350              		@ link register save eliminated.
 271:lcd.c         ****       GPIO_ResetBits(LCD_CTL_PORT,LCD_RD);
 351              		.loc 1 271 7 view .LVU39
 352 0000 4FF40041 		mov	r1, #32768
 353 0004 0148     		ldr	r0, .L35
 354 0006 FFF7FEBF 		b	GPIO_ResetBits
 355              	.LVL8:
 356              	.L36:
 357 000a 00BF     		.align	2
 358              	.L35:
 359 000c 00140140 		.word	1073812480
 360              		.cfi_endproc
 361              	.LFE43:
 363              		.section	.text.lcd_wr_data,"ax",%progbits
 364              		.align	1
 365              		.global	lcd_wr_data
 366              		.syntax unified
 367              		.thumb
 368              		.thumb_func
 369              		.fpu softvfp
 371              	lcd_wr_data:
 372              	.LVL9:
 373              	.LFB44:
 272:lcd.c         **** }
 273:lcd.c         **** 
 274:lcd.c         **** 
 275:lcd.c         **** void lcd_wr_data (unsigned short data)
 276:lcd.c         **** {
 374              		.loc 1 276 1 view -0
 375              		.cfi_startproc
 376              		@ args = 0, pretend = 0, frame = 0
 377              		@ frame_needed = 0, uses_anonymous_args = 0
 277:lcd.c         ****       lcd_rs_hi();
 378              		.loc 1 277 7 view .LVU41
 276:lcd.c         ****       lcd_rs_hi();
 379              		.loc 1 276 1 is_stmt 0 view .LVU42
 380 0000 10B5     		push	{r4, lr}
 381              		.cfi_def_cfa_offset 8
 382              		.cfi_offset 4, -8
 383              		.cfi_offset 14, -4
 276:lcd.c         ****       lcd_rs_hi();
 384              		.loc 1 276 1 view .LVU43
 385 0002 0446     		mov	r4, r0
 386              		.loc 1 277 7 view .LVU44
 387 0004 FFF7FEFF 		bl	lcd_rs_hi
 388              	.LVL10:
 278:lcd.c         ****       lcd_cs_lo();
 389              		.loc 1 278 7 is_stmt 1 view .LVU45
 390 0008 FFF7FEFF 		bl	lcd_cs_lo
 391              	.LVL11:
 279:lcd.c         ****       lcd_data_write(data);
 392              		.loc 1 279 7 view .LVU46
 393              	.LBB48:
 394              	.LBI48:
 215:lcd.c         **** {
 395              		.loc 1 215 6 view .LVU47
 396              	.LBB49:
 217:lcd.c         **** }
 397              		.loc 1 217 7 view .LVU48
 217:lcd.c         **** }
 398              		.loc 1 217 26 is_stmt 0 view .LVU49
 399 000c 044B     		ldr	r3, .L38
 400 000e DC60     		str	r4, [r3, #12]
 401              	.LVL12:
 217:lcd.c         **** }
 402              		.loc 1 217 26 view .LVU50
 403              	.LBE49:
 404              	.LBE48:
 280:lcd.c         ****       lcd_wr_lo();
 405              		.loc 1 280 7 is_stmt 1 view .LVU51
 406 0010 FFF7FEFF 		bl	lcd_wr_lo
 407              	.LVL13:
 281:lcd.c         ****       lcd_wr_hi();
 408              		.loc 1 281 7 view .LVU52
 409 0014 FFF7FEFF 		bl	lcd_wr_hi
 410              	.LVL14:
 282:lcd.c         ****       lcd_cs_hi();
 411              		.loc 1 282 7 view .LVU53
 283:lcd.c         **** }
 412              		.loc 1 283 1 is_stmt 0 view .LVU54
 413 0018 BDE81040 		pop	{r4, lr}
 414              		.cfi_restore 14
 415              		.cfi_restore 4
 416              		.cfi_def_cfa_offset 0
 282:lcd.c         ****       lcd_cs_hi();
 417              		.loc 1 282 7 view .LVU55
 418 001c FFF7FEBF 		b	lcd_cs_hi
 419              	.LVL15:
 420              	.L39:
 421              		.align	2
 422              	.L38:
 423 0020 00180140 		.word	1073813504
 424              		.cfi_endproc
 425              	.LFE44:
 427              		.section	.text.lcd_wr_register,"ax",%progbits
 428              		.align	1
 429              		.global	lcd_wr_register
 430              		.syntax unified
 431              		.thumb
 432              		.thumb_func
 433              		.fpu softvfp
 435              	lcd_wr_register:
 436              	.LVL16:
 437              	.LFB45:
 284:lcd.c         **** 
 285:lcd.c         **** 
 286:lcd.c         **** void lcd_wr_register (unsigned char data)
 287:lcd.c         **** {
 438              		.loc 1 287 1 is_stmt 1 view -0
 439              		.cfi_startproc
 440              		@ args = 0, pretend = 0, frame = 0
 441              		@ frame_needed = 0, uses_anonymous_args = 0
 288:lcd.c         ****       lcd_rs_lo();
 442              		.loc 1 288 7 view .LVU57
 287:lcd.c         ****       lcd_rs_lo();
 443              		.loc 1 287 1 is_stmt 0 view .LVU58
 444 0000 10B5     		push	{r4, lr}
 445              		.cfi_def_cfa_offset 8
 446              		.cfi_offset 4, -8
 447              		.cfi_offset 14, -4
 287:lcd.c         ****       lcd_rs_lo();
 448              		.loc 1 287 1 view .LVU59
 449 0002 0446     		mov	r4, r0
 450              		.loc 1 288 7 view .LVU60
 451 0004 FFF7FEFF 		bl	lcd_rs_lo
 452              	.LVL17:
 289:lcd.c         ****       lcd_cs_lo();
 453              		.loc 1 289 7 is_stmt 1 view .LVU61
 454 0008 FFF7FEFF 		bl	lcd_cs_lo
 455              	.LVL18:
 290:lcd.c         ****       lcd_data_write(data);
 456              		.loc 1 290 7 view .LVU62
 457              	.LBB50:
 458              	.LBI50:
 215:lcd.c         **** {
 459              		.loc 1 215 6 view .LVU63
 460              	.LBB51:
 217:lcd.c         **** }
 461              		.loc 1 217 7 view .LVU64
 217:lcd.c         **** }
 462              		.loc 1 217 26 is_stmt 0 view .LVU65
 463 000c 044B     		ldr	r3, .L41
 464 000e DC60     		str	r4, [r3, #12]
 465              	.LVL19:
 217:lcd.c         **** }
 466              		.loc 1 217 26 view .LVU66
 467              	.LBE51:
 468              	.LBE50:
 291:lcd.c         ****       lcd_wr_lo();
 469              		.loc 1 291 7 is_stmt 1 view .LVU67
 470 0010 FFF7FEFF 		bl	lcd_wr_lo
 471              	.LVL20:
 292:lcd.c         ****       lcd_wr_hi();
 472              		.loc 1 292 7 view .LVU68
 473 0014 FFF7FEFF 		bl	lcd_wr_hi
 474              	.LVL21:
 293:lcd.c         ****       lcd_cs_hi();
 475              		.loc 1 293 7 view .LVU69
 294:lcd.c         **** }
 476              		.loc 1 294 1 is_stmt 0 view .LVU70
 477 0018 BDE81040 		pop	{r4, lr}
 478              		.cfi_restore 14
 479              		.cfi_restore 4
 480              		.cfi_def_cfa_offset 0
 293:lcd.c         ****       lcd_cs_hi();
 481              		.loc 1 293 7 view .LVU71
 482 001c FFF7FEBF 		b	lcd_cs_hi
 483              	.LVL22:
 484              	.L42:
 485              		.align	2
 486              	.L41:
 487 0020 00180140 		.word	1073813504
 488              		.cfi_endproc
 489              	.LFE45:
 491              		.section	.text.lcd_write_register,"ax",%progbits
 492              		.align	1
 493              		.global	lcd_write_register
 494              		.syntax unified
 495              		.thumb
 496              		.thumb_func
 497              		.fpu softvfp
 499              	lcd_write_register:
 500              	.LVL23:
 501              	.LFB46:
 295:lcd.c         **** 
 296:lcd.c         **** 
 297:lcd.c         **** void lcd_write_register (unsigned char reg, unsigned short value)
 298:lcd.c         **** {
 502              		.loc 1 298 1 is_stmt 1 view -0
 503              		.cfi_startproc
 504              		@ args = 0, pretend = 0, frame = 0
 505              		@ frame_needed = 0, uses_anonymous_args = 0
 299:lcd.c         ****       lcd_wr_register(reg);
 506              		.loc 1 299 7 view .LVU73
 298:lcd.c         ****       lcd_wr_register(reg);
 507              		.loc 1 298 1 is_stmt 0 view .LVU74
 508 0000 10B5     		push	{r4, lr}
 509              		.cfi_def_cfa_offset 8
 510              		.cfi_offset 4, -8
 511              		.cfi_offset 14, -4
 298:lcd.c         ****       lcd_wr_register(reg);
 512              		.loc 1 298 1 view .LVU75
 513 0002 0C46     		mov	r4, r1
 514              		.loc 1 299 7 view .LVU76
 515 0004 FFF7FEFF 		bl	lcd_wr_register
 516              	.LVL24:
 300:lcd.c         ****       lcd_wr_data(value);
 517              		.loc 1 300 7 is_stmt 1 view .LVU77
 518 0008 2046     		mov	r0, r4
 301:lcd.c         **** }
 519              		.loc 1 301 1 is_stmt 0 view .LVU78
 520 000a BDE81040 		pop	{r4, lr}
 521              		.cfi_restore 14
 522              		.cfi_restore 4
 523              		.cfi_def_cfa_offset 0
 300:lcd.c         ****       lcd_wr_data(value);
 524              		.loc 1 300 7 view .LVU79
 525 000e FFF7FEBF 		b	lcd_wr_data
 526              	.LVL25:
 527              		.cfi_endproc
 528              	.LFE46:
 530              		.section	.text.lcd_read_register,"ax",%progbits
 531              		.align	1
 532              		.global	lcd_read_register
 533              		.syntax unified
 534              		.thumb
 535              		.thumb_func
 536              		.fpu softvfp
 538              	lcd_read_register:
 539              	.LVL26:
 540              	.LFB47:
 302:lcd.c         **** 
 303:lcd.c         **** 
 304:lcd.c         **** unsigned short lcd_read_register (unsigned char reg)
 305:lcd.c         **** {
 541              		.loc 1 305 1 is_stmt 1 view -0
 542              		.cfi_startproc
 543              		@ args = 0, pretend = 0, frame = 0
 544              		@ frame_needed = 0, uses_anonymous_args = 0
 306:lcd.c         ****       unsigned short value;
 545              		.loc 1 306 7 view .LVU81
 307:lcd.c         ****       lcd_wr_register(reg);
 546              		.loc 1 307 7 view .LVU82
 305:lcd.c         ****       unsigned short value;
 547              		.loc 1 305 1 is_stmt 0 view .LVU83
 548 0000 10B5     		push	{r4, lr}
 549              		.cfi_def_cfa_offset 8
 550              		.cfi_offset 4, -8
 551              		.cfi_offset 14, -4
 552              		.loc 1 307 7 view .LVU84
 553 0002 FFF7FEFF 		bl	lcd_wr_register
 554              	.LVL27:
 308:lcd.c         ****       lcd_data_port_input();
 555              		.loc 1 308 7 is_stmt 1 view .LVU85
 556 0006 FFF7FEFF 		bl	lcd_data_port_input
 557              	.LVL28:
 309:lcd.c         ****       lcd_rs_hi();
 558              		.loc 1 309 7 view .LVU86
 559 000a FFF7FEFF 		bl	lcd_rs_hi
 560              	.LVL29:
 310:lcd.c         ****       lcd_cs_lo();
 561              		.loc 1 310 7 view .LVU87
 562 000e FFF7FEFF 		bl	lcd_cs_lo
 563              	.LVL30:
 311:lcd.c         ****       lcd_rd_lo();
 564              		.loc 1 311 7 view .LVU88
 565 0012 FFF7FEFF 		bl	lcd_rd_lo
 566              	.LVL31:
 312:lcd.c         ****       lcd_rd_hi();
 567              		.loc 1 312 7 view .LVU89
 568 0016 FFF7FEFF 		bl	lcd_rd_hi
 569              	.LVL32:
 313:lcd.c         ****       value = lcd_data_read();
 570              		.loc 1 313 7 view .LVU90
 571              	.LBB52:
 572              	.LBI52:
 221:lcd.c         **** {
 573              		.loc 1 221 16 view .LVU91
 574              	.LBB53:
 223:lcd.c         **** }
 575              		.loc 1 223 7 view .LVU92
 223:lcd.c         **** }
 576              		.loc 1 223 28 is_stmt 0 view .LVU93
 577 001a 044B     		ldr	r3, .L45
 578 001c 9C68     		ldr	r4, [r3, #8]
 579              	.LVL33:
 223:lcd.c         **** }
 580              		.loc 1 223 28 view .LVU94
 581              	.LBE53:
 582              	.LBE52:
 314:lcd.c         ****       lcd_cs_hi();
 583              		.loc 1 314 7 is_stmt 1 view .LVU95
 584 001e FFF7FEFF 		bl	lcd_cs_hi
 585              	.LVL34:
 315:lcd.c         ****       lcd_data_port_output();
 586              		.loc 1 315 7 view .LVU96
 587 0022 FFF7FEFF 		bl	lcd_data_port_output
 588              	.LVL35:
 316:lcd.c         ****       return value;
 589              		.loc 1 316 7 view .LVU97
 317:lcd.c         **** }
 590              		.loc 1 317 1 is_stmt 0 view .LVU98
 591 0026 A0B2     		uxth	r0, r4
 592 0028 10BD     		pop	{r4, pc}
 593              	.LVL36:
 594              	.L46:
 595              		.loc 1 317 1 view .LVU99
 596 002a 00BF     		.align	2
 597              	.L45:
 598 002c 00180140 		.word	1073813504
 599              		.cfi_endproc
 600              	.LFE47:
 602              		.section	.text.lcd_read_data,"ax",%progbits
 603              		.align	1
 604              		.global	lcd_read_data
 605              		.syntax unified
 606              		.thumb
 607              		.thumb_func
 608              		.fpu softvfp
 610              	lcd_read_data:
 611              	.LFB48:
 318:lcd.c         **** 
 319:lcd.c         **** 
 320:lcd.c         **** unsigned short lcd_read_data(void)
 321:lcd.c         **** {
 612              		.loc 1 321 1 is_stmt 1 view -0
 613              		.cfi_startproc
 614              		@ args = 0, pretend = 0, frame = 0
 615              		@ frame_needed = 0, uses_anonymous_args = 0
 322:lcd.c         ****       unsigned short value;
 616              		.loc 1 322 7 view .LVU101
 323:lcd.c         ****       lcd_data_port_input();
 617              		.loc 1 323 7 view .LVU102
 321:lcd.c         ****       unsigned short value;
 618              		.loc 1 321 1 is_stmt 0 view .LVU103
 619 0000 10B5     		push	{r4, lr}
 620              		.cfi_def_cfa_offset 8
 621              		.cfi_offset 4, -8
 622              		.cfi_offset 14, -4
 623              		.loc 1 323 7 view .LVU104
 624 0002 FFF7FEFF 		bl	lcd_data_port_input
 625              	.LVL37:
 324:lcd.c         ****       lcd_rs_hi();
 626              		.loc 1 324 7 is_stmt 1 view .LVU105
 627 0006 FFF7FEFF 		bl	lcd_rs_hi
 628              	.LVL38:
 325:lcd.c         ****       lcd_cs_lo();
 629              		.loc 1 325 7 view .LVU106
 630 000a FFF7FEFF 		bl	lcd_cs_lo
 631              	.LVL39:
 326:lcd.c         ****       lcd_rd_lo();
 632              		.loc 1 326 7 view .LVU107
 633 000e FFF7FEFF 		bl	lcd_rd_lo
 634              	.LVL40:
 327:lcd.c         ****       lcd_rd_hi();
 635              		.loc 1 327 7 view .LVU108
 636 0012 FFF7FEFF 		bl	lcd_rd_hi
 637              	.LVL41:
 328:lcd.c         ****       value = lcd_data_read();
 638              		.loc 1 328 7 view .LVU109
 639              	.LBB54:
 640              	.LBI54:
 221:lcd.c         **** {
 641              		.loc 1 221 16 view .LVU110
 642              	.LBB55:
 223:lcd.c         **** }
 643              		.loc 1 223 7 view .LVU111
 223:lcd.c         **** }
 644              		.loc 1 223 28 is_stmt 0 view .LVU112
 645 0016 044B     		ldr	r3, .L48
 646 0018 9C68     		ldr	r4, [r3, #8]
 647              	.LVL42:
 223:lcd.c         **** }
 648              		.loc 1 223 28 view .LVU113
 649              	.LBE55:
 650              	.LBE54:
 329:lcd.c         ****       lcd_cs_hi();
 651              		.loc 1 329 7 is_stmt 1 view .LVU114
 652 001a FFF7FEFF 		bl	lcd_cs_hi
 653              	.LVL43:
 330:lcd.c         ****       lcd_data_port_output();
 654              		.loc 1 330 7 view .LVU115
 655 001e FFF7FEFF 		bl	lcd_data_port_output
 656              	.LVL44:
 331:lcd.c         ****       return value;
 657              		.loc 1 331 7 view .LVU116
 332:lcd.c         **** }
 658              		.loc 1 332 1 is_stmt 0 view .LVU117
 659 0022 A0B2     		uxth	r0, r4
 660 0024 10BD     		pop	{r4, pc}
 661              	.LVL45:
 662              	.L49:
 663              		.loc 1 332 1 view .LVU118
 664 0026 00BF     		.align	2
 665              	.L48:
 666 0028 00180140 		.word	1073813504
 667              		.cfi_endproc
 668              	.LFE48:
 670              		.section	.text.lcd_write_ram_prepare,"ax",%progbits
 671              		.align	1
 672              		.global	lcd_write_ram_prepare
 673              		.syntax unified
 674              		.thumb
 675              		.thumb_func
 676              		.fpu softvfp
 678              	lcd_write_ram_prepare:
 679              	.LFB49:
 333:lcd.c         **** 
 334:lcd.c         **** 
 335:lcd.c         **** void lcd_write_ram_prepare (void)
 336:lcd.c         **** {
 680              		.loc 1 336 1 is_stmt 1 view -0
 681              		.cfi_startproc
 682              		@ args = 0, pretend = 0, frame = 0
 683              		@ frame_needed = 0, uses_anonymous_args = 0
 684              		@ link register save eliminated.
 337:lcd.c         ****       lcd_wr_register(R34);
 685              		.loc 1 337 7 view .LVU120
 686 0000 2220     		movs	r0, #34
 687 0002 FFF7FEBF 		b	lcd_wr_register
 688              	.LVL46:
 689              		.cfi_endproc
 690              	.LFE49:
 692              		.section	.text.lcd_write_ram,"ax",%progbits
 693              		.align	1
 694              		.global	lcd_write_ram
 695              		.syntax unified
 696              		.thumb
 697              		.thumb_func
 698              		.fpu softvfp
 700              	lcd_write_ram:
 701              	.LVL47:
 702              	.LFB50:
 338:lcd.c         **** }
 339:lcd.c         **** 
 340:lcd.c         **** 
 341:lcd.c         **** void lcd_write_ram (unsigned short rgb_code)
 342:lcd.c         **** {
 703              		.loc 1 342 1 view -0
 704              		.cfi_startproc
 705              		@ args = 0, pretend = 0, frame = 0
 706              		@ frame_needed = 0, uses_anonymous_args = 0
 707              		@ link register save eliminated.
 343:lcd.c         ****       lcd_wr_data(rgb_code);
 708              		.loc 1 343 7 view .LVU122
 709 0000 FFF7FEBF 		b	lcd_wr_data
 710              	.LVL48:
 711              		.loc 1 343 7 is_stmt 0 view .LVU123
 712              		.cfi_endproc
 713              	.LFE50:
 715              		.section	.text.lcd_bgr_to_rgb,"ax",%progbits
 716              		.align	1
 717              		.global	lcd_bgr_to_rgb
 718              		.syntax unified
 719              		.thumb
 720              		.thumb_func
 721              		.fpu softvfp
 723              	lcd_bgr_to_rgb:
 724              	.LVL49:
 725              	.LFB51:
 344:lcd.c         **** }
 345:lcd.c         **** 
 346:lcd.c         **** 
 347:lcd.c         **** unsigned short lcd_bgr_to_rgb (unsigned short c)
 348:lcd.c         **** {
 726              		.loc 1 348 1 is_stmt 1 view -0
 727              		.cfi_startproc
 728              		@ args = 0, pretend = 0, frame = 0
 729              		@ frame_needed = 0, uses_anonymous_args = 0
 730              		@ link register save eliminated.
 349:lcd.c         ****       unsigned short r,g,b,rgb;
 731              		.loc 1 349 7 view .LVU125
 350:lcd.c         ****       b = (c >> 0) & 0x1f;
 732              		.loc 1 350 7 view .LVU126
 351:lcd.c         ****       g = (c >> 5) & 0x3f;
 733              		.loc 1 351 7 view .LVU127
 352:lcd.c         ****       r = (c >> 11) & 0x1f;
 734              		.loc 1 352 7 view .LVU128
 353:lcd.c         ****       rgb = (b << 11) + (g << 5) + (r << 0);
 735              		.loc 1 353 7 view .LVU129
 354:lcd.c         ****       return (rgb);
 736              		.loc 1 354 7 view .LVU130
 353:lcd.c         ****       rgb = (b << 11) + (g << 5) + (r << 0);
 737              		.loc 1 353 11 is_stmt 0 view .LVU131
 738 0000 C202     		lsls	r2, r0, #11
 353:lcd.c         ****       rgb = (b << 11) + (g << 5) + (r << 0);
 739              		.loc 1 353 28 view .LVU132
 740 0002 00F4FC63 		and	r3, r0, #2016
 353:lcd.c         ****       rgb = (b << 11) + (g << 5) + (r << 0);
 741              		.loc 1 353 11 view .LVU133
 742 0006 02EBD020 		add	r0, r2, r0, lsr #11
 743              	.LVL50:
 353:lcd.c         ****       rgb = (b << 11) + (g << 5) + (r << 0);
 744              		.loc 1 353 11 view .LVU134
 745 000a 1844     		add	r0, r0, r3
 355:lcd.c         **** }
 746              		.loc 1 355 1 view .LVU135
 747 000c 80B2     		uxth	r0, r0
 748 000e 7047     		bx	lr
 749              		.cfi_endproc
 750              	.LFE51:
 752              		.section	.text.lcd_get_pixel,"ax",%progbits
 753              		.align	1
 754              		.global	lcd_get_pixel
 755              		.syntax unified
 756              		.thumb
 757              		.thumb_func
 758              		.fpu softvfp
 760              	lcd_get_pixel:
 761              	.LVL51:
 762              	.LFB53:
 356:lcd.c         **** 
 357:lcd.c         **** 
 358:lcd.c         **** __inline void lcd_set_cursor (unsigned char xpos, unsigned short ypos)
 359:lcd.c         **** {
 360:lcd.c         ****       if ((device_code == 0x8999) || (device_code == 0x8989) || (device_code == 0x9919)) {
 361:lcd.c         **** 	 lcd_write_register(0x004E,xpos);
 362:lcd.c         **** 	 lcd_write_register(0X004F,ypos);
 363:lcd.c         ****       } else {
 364:lcd.c         **** 	 lcd_write_register(0x0020,xpos);
 365:lcd.c         **** 	 lcd_write_register(0X0021,ypos);
 366:lcd.c         ****       }
 367:lcd.c         **** }
 368:lcd.c         **** 
 369:lcd.c         **** 
 370:lcd.c         **** unsigned short lcd_get_pixel (unsigned char x,unsigned short y)
 371:lcd.c         **** {
 763              		.loc 1 371 1 is_stmt 1 view -0
 764              		.cfi_startproc
 765              		@ args = 0, pretend = 0, frame = 0
 766              		@ frame_needed = 0, uses_anonymous_args = 0
 372:lcd.c         ****       unsigned short value;
 767              		.loc 1 372 7 view .LVU137
 373:lcd.c         ****       lcd_set_cursor(x,y);
 768              		.loc 1 373 7 view .LVU138
 371:lcd.c         ****       unsigned short value;
 769              		.loc 1 371 1 is_stmt 0 view .LVU139
 770 0000 10B5     		push	{r4, lr}
 771              		.cfi_def_cfa_offset 8
 772              		.cfi_offset 4, -8
 773              		.cfi_offset 14, -4
 774              		.loc 1 373 7 view .LVU140
 775 0002 FFF7FEFF 		bl	lcd_set_cursor
 776              	.LVL52:
 374:lcd.c         ****       lcd_wr_register(R34);
 777              		.loc 1 374 7 is_stmt 1 view .LVU141
 778 0006 2220     		movs	r0, #34
 779 0008 FFF7FEFF 		bl	lcd_wr_register
 780              	.LVL53:
 375:lcd.c         ****       lcd_data_port_input();
 781              		.loc 1 375 7 view .LVU142
 782 000c FFF7FEFF 		bl	lcd_data_port_input
 783              	.LVL54:
 376:lcd.c         ****       lcd_rs_hi();
 784              		.loc 1 376 7 view .LVU143
 785 0010 FFF7FEFF 		bl	lcd_rs_hi
 786              	.LVL55:
 377:lcd.c         ****       lcd_cs_lo();;
 787              		.loc 1 377 7 view .LVU144
 788 0014 FFF7FEFF 		bl	lcd_cs_lo
 789              	.LVL56:
 790              		.loc 1 377 19 view .LVU145
 378:lcd.c         ****       lcd_rd_lo();;
 791              		.loc 1 378 7 view .LVU146
 792 0018 FFF7FEFF 		bl	lcd_rd_lo
 793              	.LVL57:
 794              		.loc 1 378 19 view .LVU147
 379:lcd.c         ****       lcd_rd_hi();
 795              		.loc 1 379 7 view .LVU148
 796 001c FFF7FEFF 		bl	lcd_rd_hi
 797              	.LVL58:
 380:lcd.c         ****       //dummy READ
 381:lcd.c         ****       lcd_rd_lo();;
 798              		.loc 1 381 7 view .LVU149
 799 0020 FFF7FEFF 		bl	lcd_rd_lo
 800              	.LVL59:
 801              		.loc 1 381 19 view .LVU150
 382:lcd.c         ****       lcd_rd_hi();
 802              		.loc 1 382 7 view .LVU151
 803 0024 FFF7FEFF 		bl	lcd_rd_hi
 804              	.LVL60:
 383:lcd.c         ****       value = lcd_data_read();
 805              		.loc 1 383 7 view .LVU152
 806              	.LBB56:
 807              	.LBI56:
 221:lcd.c         **** {
 808              		.loc 1 221 16 view .LVU153
 809              	.LBB57:
 223:lcd.c         **** }
 810              		.loc 1 223 7 view .LVU154
 223:lcd.c         **** }
 811              		.loc 1 223 28 is_stmt 0 view .LVU155
 812 0028 054B     		ldr	r3, .L54
 813 002a 9C68     		ldr	r4, [r3, #8]
 814              	.LVL61:
 223:lcd.c         **** }
 815              		.loc 1 223 28 view .LVU156
 816              	.LBE57:
 817              	.LBE56:
 384:lcd.c         ****       lcd_cs_hi();
 818              		.loc 1 384 7 is_stmt 1 view .LVU157
 819 002c FFF7FEFF 		bl	lcd_cs_hi
 820              	.LVL62:
 385:lcd.c         ****       lcd_data_port_output();
 821              		.loc 1 385 7 view .LVU158
 822 0030 FFF7FEFF 		bl	lcd_data_port_output
 823              	.LVL63:
 386:lcd.c         ****       return lcd_bgr_to_rgb(value);
 824              		.loc 1 386 7 view .LVU159
 825              		.loc 1 386 14 is_stmt 0 view .LVU160
 826 0034 A0B2     		uxth	r0, r4
 387:lcd.c         **** }
 827              		.loc 1 387 1 view .LVU161
 828 0036 BDE81040 		pop	{r4, lr}
 829              		.cfi_restore 14
 830              		.cfi_restore 4
 831              		.cfi_def_cfa_offset 0
 832              	.LVL64:
 386:lcd.c         ****       return lcd_bgr_to_rgb(value);
 833              		.loc 1 386 14 view .LVU162
 834 003a FFF7FEBF 		b	lcd_bgr_to_rgb
 835              	.LVL65:
 836              	.L55:
 386:lcd.c         ****       return lcd_bgr_to_rgb(value);
 837              		.loc 1 386 14 view .LVU163
 838 003e 00BF     		.align	2
 839              	.L54:
 840 0040 00180140 		.word	1073813504
 841              		.cfi_endproc
 842              	.LFE53:
 844              		.section	.text.lcd_display_on,"ax",%progbits
 845              		.align	1
 846              		.global	lcd_display_on
 847              		.syntax unified
 848              		.thumb
 849              		.thumb_func
 850              		.fpu softvfp
 852              	lcd_display_on:
 853              	.LFB54:
 388:lcd.c         **** 
 389:lcd.c         **** 
 390:lcd.c         **** void lcd_display_on (void)
 391:lcd.c         **** {
 854              		.loc 1 391 1 is_stmt 1 view -0
 855              		.cfi_startproc
 856              		@ args = 0, pretend = 0, frame = 0
 857              		@ frame_needed = 0, uses_anonymous_args = 0
 858              		@ link register save eliminated.
 392:lcd.c         ****       lcd_write_register(R7,0x0173);
 859              		.loc 1 392 7 view .LVU165
 860 0000 40F27311 		movw	r1, #371
 861 0004 0720     		movs	r0, #7
 862 0006 FFF7FEBF 		b	lcd_write_register
 863              	.LVL66:
 864              		.cfi_endproc
 865              	.LFE54:
 867              		.section	.text.lcd_display_off,"ax",%progbits
 868              		.align	1
 869              		.global	lcd_display_off
 870              		.syntax unified
 871              		.thumb
 872              		.thumb_func
 873              		.fpu softvfp
 875              	lcd_display_off:
 876              	.LFB55:
 393:lcd.c         **** }
 394:lcd.c         **** 
 395:lcd.c         **** 
 396:lcd.c         **** void lcd_display_off (void)
 397:lcd.c         **** {
 877              		.loc 1 397 1 view -0
 878              		.cfi_startproc
 879              		@ args = 0, pretend = 0, frame = 0
 880              		@ frame_needed = 0, uses_anonymous_args = 0
 881              		@ link register save eliminated.
 398:lcd.c         ****       lcd_write_register(R7,0x0);
 882              		.loc 1 398 7 view .LVU167
 883 0000 0021     		movs	r1, #0
 884 0002 0720     		movs	r0, #7
 885 0004 FFF7FEBF 		b	lcd_write_register
 886              	.LVL67:
 887              		.cfi_endproc
 888              	.LFE55:
 890              		.section	.text.lcd_delay,"ax",%progbits
 891              		.align	1
 892              		.global	lcd_delay
 893              		.syntax unified
 894              		.thumb
 895              		.thumb_func
 896              		.fpu softvfp
 898              	lcd_delay:
 899              	.LVL68:
 900              	.LFB56:
 399:lcd.c         **** }
 400:lcd.c         **** 
 401:lcd.c         **** 
 402:lcd.c         **** void lcd_delay (unsigned short count)
 403:lcd.c         **** {
 901              		.loc 1 403 1 view -0
 902              		.cfi_startproc
 903              		@ args = 0, pretend = 0, frame = 0
 904              		@ frame_needed = 0, uses_anonymous_args = 0
 905              		@ link register save eliminated.
 404:lcd.c         ****       wait_ms(count);
 906              		.loc 1 404 7 view .LVU169
 907 0000 FFF7FEBF 		b	wait_ms
 908              	.LVL69:
 909              		.loc 1 404 7 is_stmt 0 view .LVU170
 910              		.cfi_endproc
 911              	.LFE56:
 913              		.section	.text.lcd_window_max,"ax",%progbits
 914              		.align	1
 915              		.global	lcd_window_max
 916              		.syntax unified
 917              		.thumb
 918              		.thumb_func
 919              		.fpu softvfp
 921              	lcd_window_max:
 922              	.LVL70:
 923              	.LFB57:
 405:lcd.c         **** }
 406:lcd.c         **** 
 407:lcd.c         **** 
 408:lcd.c         **** void lcd_window_max (unsigned short x,unsigned short y,unsigned short x_end,unsigned short y_end)
 409:lcd.c         **** {
 924              		.loc 1 409 1 is_stmt 1 view -0
 925              		.cfi_startproc
 926              		@ args = 0, pretend = 0, frame = 0
 927              		@ frame_needed = 0, uses_anonymous_args = 0
 410:lcd.c         **** 
 411:lcd.c         ****       if ((device_code == 0x8999) || (device_code == 0x8989)) {
 928              		.loc 1 411 7 view .LVU172
 409:lcd.c         **** 
 929              		.loc 1 409 1 is_stmt 0 view .LVU173
 930 0000 70B5     		push	{r4, r5, r6, lr}
 931              		.cfi_def_cfa_offset 16
 932              		.cfi_offset 4, -16
 933              		.cfi_offset 5, -12
 934              		.cfi_offset 6, -8
 935              		.cfi_offset 14, -4
 409:lcd.c         **** 
 936              		.loc 1 409 1 view .LVU174
 937 0002 0E46     		mov	r6, r1
 938              		.loc 1 411 35 view .LVU175
 939 0004 48F68911 		movw	r1, #35209
 940              	.LVL71:
 941              		.loc 1 411 35 view .LVU176
 942 0008 5C1E     		subs	r4, r3, #1
 943              		.loc 1 411 24 view .LVU177
 944 000a 144B     		ldr	r3, .L62
 945              	.LVL72:
 946              		.loc 1 411 24 view .LVU178
 947 000c A4B2     		uxth	r4, r4
 948              		.loc 1 411 35 view .LVU179
 949 000e 1B88     		ldrh	r3, [r3]
 950 0010 551E     		subs	r5, r2, #1
 951 0012 23F01003 		bic	r3, r3, #16
 952 0016 9BB2     		uxth	r3, r3
 953 0018 8B42     		cmp	r3, r1
 954 001a 0FD1     		bne	.L60
 412:lcd.c         **** 	 lcd_write_register(0x44,x | ((x_end - 1) << 8));
 955              		.loc 1 412 3 is_stmt 1 view .LVU180
 956              		.loc 1 412 29 is_stmt 0 view .LVU181
 957 001c 40EA0525 		orr	r5, r0, r5, lsl #8
 958              		.loc 1 412 3 view .LVU182
 959 0020 A9B2     		uxth	r1, r5
 960 0022 4420     		movs	r0, #68
 961              	.LVL73:
 962              		.loc 1 412 3 view .LVU183
 963 0024 FFF7FEFF 		bl	lcd_write_register
 964              	.LVL74:
 413:lcd.c         **** 	 lcd_write_register(0x45,y);
 965              		.loc 1 413 3 is_stmt 1 view .LVU184
 966 0028 3146     		mov	r1, r6
 967 002a 4520     		movs	r0, #69
 968 002c FFF7FEFF 		bl	lcd_write_register
 969              	.LVL75:
 414:lcd.c         **** 	 lcd_write_register(0x46,y_end - 1);
 970              		.loc 1 414 3 view .LVU185
 971 0030 2146     		mov	r1, r4
 972 0032 4620     		movs	r0, #70
 973              	.L61:
 415:lcd.c         ****       } else {
 416:lcd.c         **** 	 lcd_write_register(0x50,x);		/* Horizontal GRAM Start Address      */
 417:lcd.c         **** 	 lcd_write_register(0x51,x_end - 1);	/* Horizontal GRAM End   Address (-1) */
 418:lcd.c         **** 	 lcd_write_register(0x52,y);		/* Vertical   GRAM Start Address      */
 419:lcd.c         **** 	 lcd_write_register(0x53,y_end - 1);	/* Vertical   GRAM End   Address (-1) */
 420:lcd.c         ****       }
 421:lcd.c         **** }
 974              		.loc 1 421 1 is_stmt 0 view .LVU186
 975 0034 BDE87040 		pop	{r4, r5, r6, lr}
 976              		.cfi_remember_state
 977              		.cfi_restore 14
 978              		.cfi_restore 6
 979              		.cfi_restore 5
 980              		.cfi_restore 4
 981              		.cfi_def_cfa_offset 0
 419:lcd.c         ****       }
 982              		.loc 1 419 3 view .LVU187
 983 0038 FFF7FEBF 		b	lcd_write_register
 984              	.LVL76:
 985              	.L60:
 986              		.cfi_restore_state
 416:lcd.c         **** 	 lcd_write_register(0x51,x_end - 1);	/* Horizontal GRAM End   Address (-1) */
 987              		.loc 1 416 3 is_stmt 1 view .LVU188
 988 003c 0146     		mov	r1, r0
 989 003e 5020     		movs	r0, #80
 990              	.LVL77:
 416:lcd.c         **** 	 lcd_write_register(0x51,x_end - 1);	/* Horizontal GRAM End   Address (-1) */
 991              		.loc 1 416 3 is_stmt 0 view .LVU189
 992 0040 FFF7FEFF 		bl	lcd_write_register
 993              	.LVL78:
 417:lcd.c         **** 	 lcd_write_register(0x52,y);		/* Vertical   GRAM Start Address      */
 994              		.loc 1 417 3 is_stmt 1 view .LVU190
 995 0044 5120     		movs	r0, #81
 996 0046 A9B2     		uxth	r1, r5
 997 0048 FFF7FEFF 		bl	lcd_write_register
 998              	.LVL79:
 418:lcd.c         **** 	 lcd_write_register(0x53,y_end - 1);	/* Vertical   GRAM End   Address (-1) */
 999              		.loc 1 418 3 view .LVU191
 1000 004c 3146     		mov	r1, r6
 1001 004e 5220     		movs	r0, #82
 1002 0050 FFF7FEFF 		bl	lcd_write_register
 1003              	.LVL80:
 419:lcd.c         ****       }
 1004              		.loc 1 419 3 view .LVU192
 1005 0054 2146     		mov	r1, r4
 1006 0056 5320     		movs	r0, #83
 1007 0058 ECE7     		b	.L61
 1008              	.L63:
 1009 005a 00BF     		.align	2
 1010              	.L62:
 1011 005c 00000000 		.word	device_code
 1012              		.cfi_endproc
 1013              	.LFE57:
 1015              		.section	.text.lcd_set_pixel,"ax",%progbits
 1016              		.align	1
 1017              		.global	lcd_set_pixel
 1018              		.syntax unified
 1019              		.thumb
 1020              		.thumb_func
 1021              		.fpu softvfp
 1023              	lcd_set_pixel:
 1024              	.LVL81:
 1025              	.LFB58:
 422:lcd.c         **** 
 423:lcd.c         **** 
 424:lcd.c         **** void lcd_set_pixel (unsigned char x,unsigned short y)
 425:lcd.c         **** {
 1026              		.loc 1 425 1 view -0
 1027              		.cfi_startproc
 1028              		@ args = 0, pretend = 0, frame = 0
 1029              		@ frame_needed = 0, uses_anonymous_args = 0
 426:lcd.c         ****       lcd_set_cursor(x,y);
 1030              		.loc 1 426 7 view .LVU194
 425:lcd.c         ****       lcd_set_cursor(x,y);
 1031              		.loc 1 425 1 is_stmt 0 view .LVU195
 1032 0000 08B5     		push	{r3, lr}
 1033              		.cfi_def_cfa_offset 8
 1034              		.cfi_offset 3, -8
 1035              		.cfi_offset 14, -4
 1036              		.loc 1 426 7 view .LVU196
 1037 0002 FFF7FEFF 		bl	lcd_set_cursor
 1038              	.LVL82:
 427:lcd.c         ****       lcd_wr_register(R34);
 1039              		.loc 1 427 7 is_stmt 1 view .LVU197
 1040 0006 2220     		movs	r0, #34
 1041 0008 FFF7FEFF 		bl	lcd_wr_register
 1042              	.LVL83:
 428:lcd.c         ****       lcd_wr_data(foreground_color);
 1043              		.loc 1 428 7 view .LVU198
 1044 000c 024B     		ldr	r3, .L65
 1045 000e 1888     		ldrh	r0, [r3]
 429:lcd.c         **** }
 1046              		.loc 1 429 1 is_stmt 0 view .LVU199
 1047 0010 BDE80840 		pop	{r3, lr}
 1048              		.cfi_restore 14
 1049              		.cfi_restore 3
 1050              		.cfi_def_cfa_offset 0
 428:lcd.c         ****       lcd_wr_data(foreground_color);
 1051              		.loc 1 428 7 view .LVU200
 1052 0014 FFF7FEBF 		b	lcd_wr_data
 1053              	.LVL84:
 1054              	.L66:
 1055              		.align	2
 1056              	.L65:
 1057 0018 00000000 		.word	foreground_color
 1058              		.cfi_endproc
 1059              	.LFE58:
 1061              		.section	.text.lcd_clear,"ax",%progbits
 1062              		.align	1
 1063              		.global	lcd_clear
 1064              		.syntax unified
 1065              		.thumb
 1066              		.thumb_func
 1067              		.fpu softvfp
 1069              	lcd_clear:
 1070              	.LVL85:
 1071              	.LFB59:
 430:lcd.c         **** 
 431:lcd.c         **** 
 432:lcd.c         **** void lcd_clear (unsigned short color)
 433:lcd.c         **** {
 1072              		.loc 1 433 1 is_stmt 1 view -0
 1073              		.cfi_startproc
 1074              		@ args = 0, pretend = 0, frame = 0
 1075              		@ frame_needed = 0, uses_anonymous_args = 0
 434:lcd.c         ****        unsigned int idx = 0;
 1076              		.loc 1 434 8 view .LVU202
 435:lcd.c         ****        lcd_set_cursor(0x00,0x0000);
 1077              		.loc 1 435 8 view .LVU203
 1078 0000 0021     		movs	r1, #0
 433:lcd.c         ****        unsigned int idx = 0;
 1079              		.loc 1 433 1 is_stmt 0 view .LVU204
 1080 0002 38B5     		push	{r3, r4, r5, lr}
 1081              		.cfi_def_cfa_offset 16
 1082              		.cfi_offset 3, -16
 1083              		.cfi_offset 4, -12
 1084              		.cfi_offset 5, -8
 1085              		.cfi_offset 14, -4
 433:lcd.c         ****        unsigned int idx = 0;
 1086              		.loc 1 433 1 view .LVU205
 1087 0004 0546     		mov	r5, r0
 1088              		.loc 1 435 8 view .LVU206
 1089 0006 0846     		mov	r0, r1
 1090              	.LVL86:
 1091              		.loc 1 435 8 view .LVU207
 1092 0008 FFF7FEFF 		bl	lcd_set_cursor
 1093              	.LVL87:
 436:lcd.c         ****        lcd_write_ram_prepare();
 1094              		.loc 1 436 8 is_stmt 1 view .LVU208
 1095 000c 4FF49634 		mov	r4, #76800
 1096 0010 FFF7FEFF 		bl	lcd_write_ram_prepare
 1097              	.LVL88:
 437:lcd.c         ****        for (idx=0;idx<76800;idx++) {
 1098              		.loc 1 437 8 view .LVU209
 1099              		.loc 1 437 19 view .LVU210
 1100              	.L68:
 438:lcd.c         **** 	   lcd_wr_data(color);
 1101              		.loc 1 438 5 discriminator 3 view .LVU211
 1102 0014 2846     		mov	r0, r5
 1103 0016 FFF7FEFF 		bl	lcd_wr_data
 1104              	.LVL89:
 437:lcd.c         ****        for (idx=0;idx<76800;idx++) {
 1105              		.loc 1 437 29 discriminator 3 view .LVU212
 437:lcd.c         ****        for (idx=0;idx<76800;idx++) {
 1106              		.loc 1 437 19 discriminator 3 view .LVU213
 437:lcd.c         ****        for (idx=0;idx<76800;idx++) {
 1107              		.loc 1 437 8 is_stmt 0 discriminator 3 view .LVU214
 1108 001a 013C     		subs	r4, r4, #1
 1109              	.LVL90:
 437:lcd.c         ****        for (idx=0;idx<76800;idx++) {
 1110              		.loc 1 437 8 discriminator 3 view .LVU215
 1111 001c FAD1     		bne	.L68
 439:lcd.c         ****        }
 440:lcd.c         **** }
 1112              		.loc 1 440 1 view .LVU216
 1113 001e 38BD     		pop	{r3, r4, r5, pc}
 1114              		.loc 1 440 1 view .LVU217
 1115              		.cfi_endproc
 1116              	.LFE59:
 1118              		.section	.text.lcd_init,"ax",%progbits
 1119              		.align	1
 1120              		.global	lcd_init
 1121              		.syntax unified
 1122              		.thumb
 1123              		.thumb_func
 1124              		.fpu softvfp
 1126              	lcd_init:
 1127              	.LFB60:
 441:lcd.c         **** 
 442:lcd.c         **** 
 443:lcd.c         **** void lcd_init (void)
 444:lcd.c         **** {
 1128              		.loc 1 444 1 is_stmt 1 view -0
 1129              		.cfi_startproc
 1130              		@ args = 0, pretend = 0, frame = 0
 1131              		@ frame_needed = 0, uses_anonymous_args = 0
 445:lcd.c         ****       maxx = 240;
 1132              		.loc 1 445 7 view .LVU219
 1133              		.loc 1 445 12 is_stmt 0 view .LVU220
 1134 0000 F022     		movs	r2, #240
 444:lcd.c         ****       maxx = 240;
 1135              		.loc 1 444 1 view .LVU221
 1136 0002 38B5     		push	{r3, r4, r5, lr}
 1137              		.cfi_def_cfa_offset 16
 1138              		.cfi_offset 3, -16
 1139              		.cfi_offset 4, -12
 1140              		.cfi_offset 5, -8
 1141              		.cfi_offset 14, -4
 1142              		.loc 1 445 12 view .LVU222
 1143 0004 DE4B     		ldr	r3, .L79
 446:lcd.c         ****       maxy = 320;
 447:lcd.c         ****       ax = 0;
 1144              		.loc 1 447 10 view .LVU223
 1145 0006 0024     		movs	r4, #0
 445:lcd.c         ****       maxy = 320;
 1146              		.loc 1 445 12 view .LVU224
 1147 0008 1A80     		strh	r2, [r3]	@ movhi
 446:lcd.c         ****       maxy = 320;
 1148              		.loc 1 446 7 is_stmt 1 view .LVU225
 446:lcd.c         ****       maxy = 320;
 1149              		.loc 1 446 12 is_stmt 0 view .LVU226
 1150 000a 4FF4A072 		mov	r2, #320
 1151 000e DD4B     		ldr	r3, .L79+4
 448:lcd.c         ****       ay = 0;
 449:lcd.c         ****       page = 0;
 450:lcd.c         ****       eng_mode = 0;
 451:lcd.c         ****       hangul_mode = 0;
 452:lcd.c         ****       max_col = (maxx / 8);
 1152              		.loc 1 452 15 view .LVU227
 1153 0010 1E25     		movs	r5, #30
 446:lcd.c         ****       ax = 0;
 1154              		.loc 1 446 12 view .LVU228
 1155 0012 1A80     		strh	r2, [r3]	@ movhi
 447:lcd.c         ****       ay = 0;
 1156              		.loc 1 447 7 is_stmt 1 view .LVU229
 453:lcd.c         ****       max_row = (maxy / 16);
 1157              		.loc 1 453 15 is_stmt 0 view .LVU230
 1158 0014 1422     		movs	r2, #20
 447:lcd.c         ****       ay = 0;
 1159              		.loc 1 447 10 view .LVU231
 1160 0016 DC4B     		ldr	r3, .L79+8
 454:lcd.c         ****       foreground_color = WHITE;
 455:lcd.c         ****       background_color = BLACK;
 456:lcd.c         ****       GPIO_Init_Pin(LCD_DATA_PORT,LCD_DATA0,GPIO_Speed_50MHz,GPIO_Mode_Out_PP);
 1161              		.loc 1 456 7 view .LVU232
 1162 0018 0121     		movs	r1, #1
 447:lcd.c         ****       ay = 0;
 1163              		.loc 1 447 10 view .LVU233
 1164 001a 1C80     		strh	r4, [r3]	@ movhi
 448:lcd.c         ****       page = 0;
 1165              		.loc 1 448 7 is_stmt 1 view .LVU234
 448:lcd.c         ****       page = 0;
 1166              		.loc 1 448 10 is_stmt 0 view .LVU235
 1167 001c DB4B     		ldr	r3, .L79+12
 1168              		.loc 1 456 7 view .LVU236
 1169 001e DC48     		ldr	r0, .L79+16
 448:lcd.c         ****       page = 0;
 1170              		.loc 1 448 10 view .LVU237
 1171 0020 1C80     		strh	r4, [r3]	@ movhi
 449:lcd.c         ****       eng_mode = 0;
 1172              		.loc 1 449 7 is_stmt 1 view .LVU238
 449:lcd.c         ****       eng_mode = 0;
 1173              		.loc 1 449 12 is_stmt 0 view .LVU239
 1174 0022 DC4B     		ldr	r3, .L79+20
 1175 0024 1C80     		strh	r4, [r3]	@ movhi
 450:lcd.c         ****       hangul_mode = 0;
 1176              		.loc 1 450 7 is_stmt 1 view .LVU240
 450:lcd.c         ****       hangul_mode = 0;
 1177              		.loc 1 450 16 is_stmt 0 view .LVU241
 1178 0026 DC4B     		ldr	r3, .L79+24
 1179 0028 1C80     		strh	r4, [r3]	@ movhi
 451:lcd.c         ****       max_col = (maxx / 8);
 1180              		.loc 1 451 7 is_stmt 1 view .LVU242
 451:lcd.c         ****       max_col = (maxx / 8);
 1181              		.loc 1 451 19 is_stmt 0 view .LVU243
 1182 002a DC4B     		ldr	r3, .L79+28
 1183 002c 1C70     		strb	r4, [r3]
 452:lcd.c         ****       max_row = (maxy / 16);
 1184              		.loc 1 452 7 is_stmt 1 view .LVU244
 452:lcd.c         ****       max_row = (maxy / 16);
 1185              		.loc 1 452 15 is_stmt 0 view .LVU245
 1186 002e DC4B     		ldr	r3, .L79+32
 1187 0030 1D80     		strh	r5, [r3]	@ movhi
 453:lcd.c         ****       foreground_color = WHITE;
 1188              		.loc 1 453 7 is_stmt 1 view .LVU246
 453:lcd.c         ****       foreground_color = WHITE;
 1189              		.loc 1 453 15 is_stmt 0 view .LVU247
 1190 0032 DC4B     		ldr	r3, .L79+36
 1191 0034 1A80     		strh	r2, [r3]	@ movhi
 454:lcd.c         ****       background_color = BLACK;
 1192              		.loc 1 454 7 is_stmt 1 view .LVU248
 454:lcd.c         ****       background_color = BLACK;
 1193              		.loc 1 454 24 is_stmt 0 view .LVU249
 1194 0036 4FF6FF72 		movw	r2, #65535
 1195 003a DB4B     		ldr	r3, .L79+40
 1196 003c 1A80     		strh	r2, [r3]	@ movhi
 455:lcd.c         ****       GPIO_Init_Pin(LCD_DATA_PORT,LCD_DATA0,GPIO_Speed_50MHz,GPIO_Mode_Out_PP);
 1197              		.loc 1 455 7 is_stmt 1 view .LVU250
 455:lcd.c         ****       GPIO_Init_Pin(LCD_DATA_PORT,LCD_DATA0,GPIO_Speed_50MHz,GPIO_Mode_Out_PP);
 1198              		.loc 1 455 24 is_stmt 0 view .LVU251
 1199 003e DB4B     		ldr	r3, .L79+44
 1200              		.loc 1 456 7 view .LVU252
 1201 0040 0322     		movs	r2, #3
 455:lcd.c         ****       GPIO_Init_Pin(LCD_DATA_PORT,LCD_DATA0,GPIO_Speed_50MHz,GPIO_Mode_Out_PP);
 1202              		.loc 1 455 24 view .LVU253
 1203 0042 1C80     		strh	r4, [r3]	@ movhi
 1204              		.loc 1 456 7 is_stmt 1 view .LVU254
 1205 0044 1023     		movs	r3, #16
 1206 0046 FFF7FEFF 		bl	GPIO_Init_Pin
 1207              	.LVL91:
 457:lcd.c         ****       GPIO_Init_Pin(LCD_DATA_PORT,LCD_DATA1,GPIO_Speed_50MHz,GPIO_Mode_Out_PP);
 1208              		.loc 1 457 7 view .LVU255
 1209 004a 1023     		movs	r3, #16
 1210 004c 0322     		movs	r2, #3
 1211 004e 0221     		movs	r1, #2
 1212 0050 CF48     		ldr	r0, .L79+16
 1213 0052 FFF7FEFF 		bl	GPIO_Init_Pin
 1214              	.LVL92:
 458:lcd.c         ****       GPIO_Init_Pin(LCD_DATA_PORT,LCD_DATA2,GPIO_Speed_50MHz,GPIO_Mode_Out_PP);
 1215              		.loc 1 458 7 view .LVU256
 1216 0056 1023     		movs	r3, #16
 1217 0058 0322     		movs	r2, #3
 1218 005a 0421     		movs	r1, #4
 1219 005c CC48     		ldr	r0, .L79+16
 1220 005e FFF7FEFF 		bl	GPIO_Init_Pin
 1221              	.LVL93:
 459:lcd.c         ****       GPIO_Init_Pin(LCD_DATA_PORT,LCD_DATA3,GPIO_Speed_50MHz,GPIO_Mode_Out_PP);
 1222              		.loc 1 459 7 view .LVU257
 1223 0062 1023     		movs	r3, #16
 1224 0064 0322     		movs	r2, #3
 1225 0066 0821     		movs	r1, #8
 1226 0068 C948     		ldr	r0, .L79+16
 1227 006a FFF7FEFF 		bl	GPIO_Init_Pin
 1228              	.LVL94:
 460:lcd.c         ****       GPIO_Init_Pin(LCD_DATA_PORT,LCD_DATA4,GPIO_Speed_50MHz,GPIO_Mode_Out_PP);
 1229              		.loc 1 460 7 view .LVU258
 1230 006e 1023     		movs	r3, #16
 1231 0070 0322     		movs	r2, #3
 1232 0072 1946     		mov	r1, r3
 1233 0074 C648     		ldr	r0, .L79+16
 1234 0076 FFF7FEFF 		bl	GPIO_Init_Pin
 1235              	.LVL95:
 461:lcd.c         ****       GPIO_Init_Pin(LCD_DATA_PORT,LCD_DATA5,GPIO_Speed_50MHz,GPIO_Mode_Out_PP);
 1236              		.loc 1 461 7 view .LVU259
 1237 007a 1023     		movs	r3, #16
 1238 007c 0322     		movs	r2, #3
 1239 007e 2021     		movs	r1, #32
 1240 0080 C348     		ldr	r0, .L79+16
 1241 0082 FFF7FEFF 		bl	GPIO_Init_Pin
 1242              	.LVL96:
 462:lcd.c         ****       GPIO_Init_Pin(LCD_DATA_PORT,LCD_DATA6,GPIO_Speed_50MHz,GPIO_Mode_Out_PP);
 1243              		.loc 1 462 7 view .LVU260
 1244 0086 1023     		movs	r3, #16
 1245 0088 0322     		movs	r2, #3
 1246 008a 4021     		movs	r1, #64
 1247 008c C048     		ldr	r0, .L79+16
 1248 008e FFF7FEFF 		bl	GPIO_Init_Pin
 1249              	.LVL97:
 463:lcd.c         ****       GPIO_Init_Pin(LCD_DATA_PORT,LCD_DATA7,GPIO_Speed_50MHz,GPIO_Mode_Out_PP);
 1250              		.loc 1 463 7 view .LVU261
 1251 0092 1023     		movs	r3, #16
 1252 0094 0322     		movs	r2, #3
 1253 0096 8021     		movs	r1, #128
 1254 0098 BD48     		ldr	r0, .L79+16
 1255 009a FFF7FEFF 		bl	GPIO_Init_Pin
 1256              	.LVL98:
 464:lcd.c         ****       GPIO_Init_Pin(LCD_DATA_PORT,LCD_DATA8,GPIO_Speed_50MHz,GPIO_Mode_Out_PP);
 1257              		.loc 1 464 7 view .LVU262
 1258 009e 1023     		movs	r3, #16
 1259 00a0 0322     		movs	r2, #3
 1260 00a2 4FF48071 		mov	r1, #256
 1261 00a6 BA48     		ldr	r0, .L79+16
 1262 00a8 FFF7FEFF 		bl	GPIO_Init_Pin
 1263              	.LVL99:
 465:lcd.c         ****       GPIO_Init_Pin(LCD_DATA_PORT,LCD_DATA9,GPIO_Speed_50MHz,GPIO_Mode_Out_PP);
 1264              		.loc 1 465 7 view .LVU263
 1265 00ac 1023     		movs	r3, #16
 1266 00ae 0322     		movs	r2, #3
 1267 00b0 4FF40071 		mov	r1, #512
 1268 00b4 B648     		ldr	r0, .L79+16
 1269 00b6 FFF7FEFF 		bl	GPIO_Init_Pin
 1270              	.LVL100:
 466:lcd.c         ****       GPIO_Init_Pin(LCD_DATA_PORT,LCD_DATA10,GPIO_Speed_50MHz,GPIO_Mode_Out_PP);
 1271              		.loc 1 466 7 view .LVU264
 1272 00ba 1023     		movs	r3, #16
 1273 00bc 0322     		movs	r2, #3
 1274 00be 4FF48061 		mov	r1, #1024
 1275 00c2 B348     		ldr	r0, .L79+16
 1276 00c4 FFF7FEFF 		bl	GPIO_Init_Pin
 1277              	.LVL101:
 467:lcd.c         ****       GPIO_Init_Pin(LCD_DATA_PORT,LCD_DATA11,GPIO_Speed_50MHz,GPIO_Mode_Out_PP);
 1278              		.loc 1 467 7 view .LVU265
 1279 00c8 1023     		movs	r3, #16
 1280 00ca 0322     		movs	r2, #3
 1281 00cc 4FF40061 		mov	r1, #2048
 1282 00d0 AF48     		ldr	r0, .L79+16
 1283 00d2 FFF7FEFF 		bl	GPIO_Init_Pin
 1284              	.LVL102:
 468:lcd.c         ****       GPIO_Init_Pin(LCD_DATA_PORT,LCD_DATA12,GPIO_Speed_50MHz,GPIO_Mode_Out_PP);
 1285              		.loc 1 468 7 view .LVU266
 1286 00d6 1023     		movs	r3, #16
 1287 00d8 0322     		movs	r2, #3
 1288 00da 4FF48051 		mov	r1, #4096
 1289 00de AC48     		ldr	r0, .L79+16
 1290 00e0 FFF7FEFF 		bl	GPIO_Init_Pin
 1291              	.LVL103:
 469:lcd.c         ****       GPIO_Init_Pin(LCD_DATA_PORT,LCD_DATA13,GPIO_Speed_50MHz,GPIO_Mode_Out_PP);
 1292              		.loc 1 469 7 view .LVU267
 1293 00e4 1023     		movs	r3, #16
 1294 00e6 0322     		movs	r2, #3
 1295 00e8 4FF40051 		mov	r1, #8192
 1296 00ec A848     		ldr	r0, .L79+16
 1297 00ee FFF7FEFF 		bl	GPIO_Init_Pin
 1298              	.LVL104:
 470:lcd.c         ****       GPIO_Init_Pin(LCD_DATA_PORT,LCD_DATA14,GPIO_Speed_50MHz,GPIO_Mode_Out_PP);
 1299              		.loc 1 470 7 view .LVU268
 1300 00f2 1023     		movs	r3, #16
 1301 00f4 0322     		movs	r2, #3
 1302 00f6 4FF48041 		mov	r1, #16384
 1303 00fa A548     		ldr	r0, .L79+16
 1304 00fc FFF7FEFF 		bl	GPIO_Init_Pin
 1305              	.LVL105:
 471:lcd.c         ****       GPIO_Init_Pin(LCD_DATA_PORT,LCD_DATA15,GPIO_Speed_50MHz,GPIO_Mode_Out_PP);
 1306              		.loc 1 471 7 view .LVU269
 1307 0100 1023     		movs	r3, #16
 1308 0102 0322     		movs	r2, #3
 1309 0104 4FF40041 		mov	r1, #32768
 1310 0108 A148     		ldr	r0, .L79+16
 1311 010a FFF7FEFF 		bl	GPIO_Init_Pin
 1312              	.LVL106:
 472:lcd.c         ****       GPIO_Init_Pin(LCD_CTL_PORT,LCD_CS,GPIO_Speed_50MHz,GPIO_Mode_Out_PP);
 1313              		.loc 1 472 7 view .LVU270
 1314 010e 1023     		movs	r3, #16
 1315 0110 0322     		movs	r2, #3
 1316 0112 4FF48051 		mov	r1, #4096
 1317 0116 A648     		ldr	r0, .L79+48
 1318 0118 FFF7FEFF 		bl	GPIO_Init_Pin
 1319              	.LVL107:
 473:lcd.c         ****       GPIO_Init_Pin(LCD_CTL_PORT,LCD_RS,GPIO_Speed_50MHz,GPIO_Mode_Out_PP);
 1320              		.loc 1 473 7 view .LVU271
 1321 011c 1023     		movs	r3, #16
 1322 011e 0322     		movs	r2, #3
 1323 0120 4FF40051 		mov	r1, #8192
 1324 0124 A248     		ldr	r0, .L79+48
 1325 0126 FFF7FEFF 		bl	GPIO_Init_Pin
 1326              	.LVL108:
 474:lcd.c         ****       GPIO_Init_Pin(LCD_CTL_PORT,LCD_RD,GPIO_Speed_50MHz,GPIO_Mode_Out_PP);
 1327              		.loc 1 474 7 view .LVU272
 1328 012a 1023     		movs	r3, #16
 1329 012c 0322     		movs	r2, #3
 1330 012e 4FF40041 		mov	r1, #32768
 1331 0132 9F48     		ldr	r0, .L79+48
 1332 0134 FFF7FEFF 		bl	GPIO_Init_Pin
 1333              	.LVL109:
 475:lcd.c         ****       GPIO_Init_Pin(LCD_CTL_PORT,LCD_WR,GPIO_Speed_50MHz,GPIO_Mode_Out_PP);
 1334              		.loc 1 475 7 view .LVU273
 1335 0138 1023     		movs	r3, #16
 1336 013a 0322     		movs	r2, #3
 1337 013c 4FF48041 		mov	r1, #16384
 1338 0140 9B48     		ldr	r0, .L79+48
 1339 0142 FFF7FEFF 		bl	GPIO_Init_Pin
 1340              	.LVL110:
 476:lcd.c         ****       lcd_delay(50);
 1341              		.loc 1 476 7 view .LVU274
 1342              	.LBB58:
 1343              	.LBI58:
 402:lcd.c         **** {
 1344              		.loc 1 402 6 view .LVU275
 1345              	.LBB59:
 404:lcd.c         **** }
 1346              		.loc 1 404 7 view .LVU276
 1347 0146 3220     		movs	r0, #50
 1348 0148 FFF7FEFF 		bl	wait_ms
 1349              	.LVL111:
 404:lcd.c         **** }
 1350              		.loc 1 404 7 is_stmt 0 view .LVU277
 1351              	.LBE59:
 1352              	.LBE58:
 477:lcd.c         ****       lcd_write_register(0x0000,0x0001);
 1353              		.loc 1 477 7 is_stmt 1 view .LVU278
 1354 014c 0121     		movs	r1, #1
 1355 014e 2046     		mov	r0, r4
 1356 0150 FFF7FEFF 		bl	lcd_write_register
 1357              	.LVL112:
 478:lcd.c         ****       lcd_delay(50);
 1358              		.loc 1 478 7 view .LVU279
 1359              	.LBB60:
 1360              	.LBI60:
 402:lcd.c         **** {
 1361              		.loc 1 402 6 view .LVU280
 1362              	.LBB61:
 404:lcd.c         **** }
 1363              		.loc 1 404 7 view .LVU281
 1364 0154 3220     		movs	r0, #50
 1365 0156 FFF7FEFF 		bl	wait_ms
 1366              	.LVL113:
 404:lcd.c         **** }
 1367              		.loc 1 404 7 is_stmt 0 view .LVU282
 1368              	.LBE61:
 1369              	.LBE60:
 479:lcd.c         ****       device_code = lcd_read_register(0x0000);
 1370              		.loc 1 479 7 is_stmt 1 view .LVU283
 1371              		.loc 1 479 21 is_stmt 0 view .LVU284
 1372 015a 2046     		mov	r0, r4
 1373 015c FFF7FEFF 		bl	lcd_read_register
 1374              	.LVL114:
 1375              		.loc 1 479 19 view .LVU285
 1376 0160 944B     		ldr	r3, .L79+52
 1377 0162 1880     		strh	r0, [r3]	@ movhi
 480:lcd.c         ****       //s_printf(" Lcd Init -> DeviceCode %4X \r\n",device_code);
 481:lcd.c         ****       if ((device_code == 0x9325) || (device_code == 0x9328)) {
 1378              		.loc 1 481 7 is_stmt 1 view .LVU286
 1379              		.loc 1 481 10 is_stmt 0 view .LVU287
 1380 0164 49F22533 		movw	r3, #37669
 1381 0168 9842     		cmp	r0, r3
 1382 016a 04D0     		beq	.L71
 1383              		.loc 1 481 35 discriminator 1 view .LVU288
 1384 016c 49F22833 		movw	r3, #37672
 1385 0170 9842     		cmp	r0, r3
 1386 0172 40F02181 		bne	.L72
 1387              	.L71:
 482:lcd.c         ****   	 lcd_write_register(0x00e7,0x0010);
 1388              		.loc 1 482 5 is_stmt 1 view .LVU289
 1389 0176 1021     		movs	r1, #16
 1390 0178 E720     		movs	r0, #231
 1391 017a FFF7FEFF 		bl	lcd_write_register
 1392              	.LVL115:
 483:lcd.c         ****          lcd_write_register(0x0000,0x0001);
 1393              		.loc 1 483 10 view .LVU290
 1394 017e 0121     		movs	r1, #1
 1395 0180 0020     		movs	r0, #0
 1396 0182 FFF7FEFF 		bl	lcd_write_register
 1397              	.LVL116:
 484:lcd.c         ****          lcd_write_register(0x0001,0x0100);
 1398              		.loc 1 484 10 view .LVU291
 1399 0186 4FF48071 		mov	r1, #256
 1400 018a 0120     		movs	r0, #1
 1401 018c FFF7FEFF 		bl	lcd_write_register
 1402              	.LVL117:
 485:lcd.c         ****          lcd_write_register(0x0002,0x0700);
 1403              		.loc 1 485 10 view .LVU292
 1404 0190 4FF4E061 		mov	r1, #1792
 1405 0194 0220     		movs	r0, #2
 1406 0196 FFF7FEFF 		bl	lcd_write_register
 1407              	.LVL118:
 486:lcd.c         ****          lcd_write_register(0x0003,0x1030);
 1408              		.loc 1 486 10 view .LVU293
 1409 019a 41F23001 		movw	r1, #4144
 1410 019e 0320     		movs	r0, #3
 1411 01a0 FFF7FEFF 		bl	lcd_write_register
 1412              	.LVL119:
 487:lcd.c         ****          lcd_write_register(0x0004,0x0000);
 1413              		.loc 1 487 10 view .LVU294
 1414 01a4 0021     		movs	r1, #0
 1415 01a6 0420     		movs	r0, #4
 1416 01a8 FFF7FEFF 		bl	lcd_write_register
 1417              	.LVL120:
 488:lcd.c         ****          lcd_write_register(0x0008,0x0207);
 1418              		.loc 1 488 10 view .LVU295
 1419 01ac 40F20721 		movw	r1, #519
 1420 01b0 0820     		movs	r0, #8
 1421 01b2 FFF7FEFF 		bl	lcd_write_register
 1422              	.LVL121:
 489:lcd.c         ****          lcd_write_register(0x0009,0x0000);
 1423              		.loc 1 489 10 view .LVU296
 1424 01b6 0021     		movs	r1, #0
 1425 01b8 0920     		movs	r0, #9
 1426 01ba FFF7FEFF 		bl	lcd_write_register
 1427              	.LVL122:
 490:lcd.c         ****          lcd_write_register(0x000a,0x0000);
 1428              		.loc 1 490 10 view .LVU297
 1429 01be 0021     		movs	r1, #0
 1430 01c0 0A20     		movs	r0, #10
 1431 01c2 FFF7FEFF 		bl	lcd_write_register
 1432              	.LVL123:
 491:lcd.c         ****          lcd_write_register(0x000c,0x0001);
 1433              		.loc 1 491 10 view .LVU298
 1434 01c6 0121     		movs	r1, #1
 1435 01c8 0C20     		movs	r0, #12
 1436 01ca FFF7FEFF 		bl	lcd_write_register
 1437              	.LVL124:
 492:lcd.c         ****          lcd_write_register(0x000d,0x0000);
 1438              		.loc 1 492 10 view .LVU299
 1439 01ce 0021     		movs	r1, #0
 1440 01d0 0D20     		movs	r0, #13
 1441 01d2 FFF7FEFF 		bl	lcd_write_register
 1442              	.LVL125:
 493:lcd.c         ****          lcd_write_register(0x000f,0x0000);
 1443              		.loc 1 493 10 view .LVU300
 1444 01d6 0021     		movs	r1, #0
 1445 01d8 0F20     		movs	r0, #15
 1446 01da FFF7FEFF 		bl	lcd_write_register
 1447              	.LVL126:
 494:lcd.c         ****          lcd_write_register(0x0010,0x0000);
 1448              		.loc 1 494 10 view .LVU301
 1449 01de 0021     		movs	r1, #0
 1450 01e0 1020     		movs	r0, #16
 1451 01e2 FFF7FEFF 		bl	lcd_write_register
 1452              	.LVL127:
 495:lcd.c         ****          lcd_write_register(0x0011,0x0007);
 1453              		.loc 1 495 10 view .LVU302
 1454 01e6 0721     		movs	r1, #7
 1455 01e8 1120     		movs	r0, #17
 1456 01ea FFF7FEFF 		bl	lcd_write_register
 1457              	.LVL128:
 496:lcd.c         ****          lcd_write_register(0x0012,0x0000);
 1458              		.loc 1 496 10 view .LVU303
 1459 01ee 0021     		movs	r1, #0
 1460 01f0 1220     		movs	r0, #18
 1461 01f2 FFF7FEFF 		bl	lcd_write_register
 1462              	.LVL129:
 497:lcd.c         ****          lcd_write_register(0x0013,0x0000);
 1463              		.loc 1 497 10 view .LVU304
 1464 01f6 0021     		movs	r1, #0
 1465 01f8 1320     		movs	r0, #19
 1466 01fa FFF7FEFF 		bl	lcd_write_register
 1467              	.LVL130:
 498:lcd.c         ****          lcd_delay(50);
 1468              		.loc 1 498 10 view .LVU305
 1469              	.LBB62:
 1470              	.LBI62:
 402:lcd.c         **** {
 1471              		.loc 1 402 6 view .LVU306
 1472              	.LBB63:
 404:lcd.c         **** }
 1473              		.loc 1 404 7 view .LVU307
 1474 01fe 3220     		movs	r0, #50
 1475 0200 FFF7FEFF 		bl	wait_ms
 1476              	.LVL131:
 404:lcd.c         **** }
 1477              		.loc 1 404 7 is_stmt 0 view .LVU308
 1478              	.LBE63:
 1479              	.LBE62:
 499:lcd.c         ****          lcd_write_register(0x0010,0x1590);
 1480              		.loc 1 499 10 is_stmt 1 view .LVU309
 1481 0204 41F29051 		movw	r1, #5520
 1482 0208 1020     		movs	r0, #16
 1483 020a FFF7FEFF 		bl	lcd_write_register
 1484              	.LVL132:
 500:lcd.c         ****          lcd_write_register(0x0011,0x0227);
 1485              		.loc 1 500 10 view .LVU310
 1486 020e 40F22721 		movw	r1, #551
 1487 0212 1120     		movs	r0, #17
 1488 0214 FFF7FEFF 		bl	lcd_write_register
 1489              	.LVL133:
 501:lcd.c         ****          lcd_delay(50);
 1490              		.loc 1 501 10 view .LVU311
 1491              	.LBB64:
 1492              	.LBI64:
 402:lcd.c         **** {
 1493              		.loc 1 402 6 view .LVU312
 1494              	.LBB65:
 404:lcd.c         **** }
 1495              		.loc 1 404 7 view .LVU313
 1496 0218 3220     		movs	r0, #50
 1497 021a FFF7FEFF 		bl	wait_ms
 1498              	.LVL134:
 404:lcd.c         **** }
 1499              		.loc 1 404 7 is_stmt 0 view .LVU314
 1500              	.LBE65:
 1501              	.LBE64:
 502:lcd.c         ****          lcd_write_register(0x0012,0x009c);
 1502              		.loc 1 502 10 is_stmt 1 view .LVU315
 1503 021e 9C21     		movs	r1, #156
 1504 0220 1220     		movs	r0, #18
 1505 0222 FFF7FEFF 		bl	lcd_write_register
 1506              	.LVL135:
 503:lcd.c         ****          lcd_delay(50);
 1507              		.loc 1 503 10 view .LVU316
 1508              	.LBB66:
 1509              	.LBI66:
 402:lcd.c         **** {
 1510              		.loc 1 402 6 view .LVU317
 1511              	.LBB67:
 404:lcd.c         **** }
 1512              		.loc 1 404 7 view .LVU318
 1513 0226 3220     		movs	r0, #50
 1514 0228 FFF7FEFF 		bl	wait_ms
 1515              	.LVL136:
 404:lcd.c         **** }
 1516              		.loc 1 404 7 is_stmt 0 view .LVU319
 1517              	.LBE67:
 1518              	.LBE66:
 504:lcd.c         ****          lcd_write_register(0x0013,0x1900);
 1519              		.loc 1 504 10 is_stmt 1 view .LVU320
 1520 022c 4FF4C851 		mov	r1, #6400
 1521 0230 1320     		movs	r0, #19
 1522 0232 FFF7FEFF 		bl	lcd_write_register
 1523              	.LVL137:
 505:lcd.c         ****          lcd_write_register(0x0029,0x0023);
 1524              		.loc 1 505 10 view .LVU321
 1525 0236 2321     		movs	r1, #35
 1526 0238 2920     		movs	r0, #41
 1527 023a FFF7FEFF 		bl	lcd_write_register
 1528              	.LVL138:
 506:lcd.c         ****          lcd_write_register(0x002b,0x000e);
 1529              		.loc 1 506 10 view .LVU322
 1530 023e 0E21     		movs	r1, #14
 1531 0240 2B20     		movs	r0, #43
 1532 0242 FFF7FEFF 		bl	lcd_write_register
 1533              	.LVL139:
 507:lcd.c         ****          lcd_delay(50);
 1534              		.loc 1 507 10 view .LVU323
 1535              	.LBB68:
 1536              	.LBI68:
 402:lcd.c         **** {
 1537              		.loc 1 402 6 view .LVU324
 1538              	.LBB69:
 404:lcd.c         **** }
 1539              		.loc 1 404 7 view .LVU325
 1540 0246 3220     		movs	r0, #50
 1541 0248 FFF7FEFF 		bl	wait_ms
 1542              	.LVL140:
 404:lcd.c         **** }
 1543              		.loc 1 404 7 is_stmt 0 view .LVU326
 1544              	.LBE69:
 1545              	.LBE68:
 508:lcd.c         ****          lcd_write_register(0x0020,0x0000);
 1546              		.loc 1 508 10 is_stmt 1 view .LVU327
 1547 024c 0021     		movs	r1, #0
 1548 024e 2020     		movs	r0, #32
 1549 0250 FFF7FEFF 		bl	lcd_write_register
 1550              	.LVL141:
 509:lcd.c         ****          lcd_write_register(0x0021,0x013f);
 1551              		.loc 1 509 10 view .LVU328
 1552 0254 40F23F11 		movw	r1, #319
 1553 0258 2120     		movs	r0, #33
 1554 025a FFF7FEFF 		bl	lcd_write_register
 1555              	.LVL142:
 510:lcd.c         **** 	 lcd_delay(50);
 1556              		.loc 1 510 3 view .LVU329
 1557              	.LBB70:
 1558              	.LBI70:
 402:lcd.c         **** {
 1559              		.loc 1 402 6 view .LVU330
 1560              	.LBB71:
 404:lcd.c         **** }
 1561              		.loc 1 404 7 view .LVU331
 1562 025e 3220     		movs	r0, #50
 1563 0260 FFF7FEFF 		bl	wait_ms
 1564              	.LVL143:
 404:lcd.c         **** }
 1565              		.loc 1 404 7 is_stmt 0 view .LVU332
 1566              	.LBE71:
 1567              	.LBE70:
 511:lcd.c         ****          lcd_write_register(0x0030,0x0007);
 1568              		.loc 1 511 10 is_stmt 1 view .LVU333
 1569 0264 0721     		movs	r1, #7
 1570 0266 3020     		movs	r0, #48
 1571 0268 FFF7FEFF 		bl	lcd_write_register
 1572              	.LVL144:
 512:lcd.c         ****          lcd_write_register(0x0031,0x0707);
 1573              		.loc 1 512 10 view .LVU334
 1574 026c 40F20771 		movw	r1, #1799
 1575 0270 3120     		movs	r0, #49
 1576 0272 FFF7FEFF 		bl	lcd_write_register
 1577              	.LVL145:
 513:lcd.c         ****          lcd_write_register(0x0032,0x0006);
 1578              		.loc 1 513 10 view .LVU335
 1579 0276 0621     		movs	r1, #6
 1580 0278 3220     		movs	r0, #50
 1581 027a FFF7FEFF 		bl	lcd_write_register
 1582              	.LVL146:
 514:lcd.c         ****          lcd_write_register(0x0035,0x0704);
 1583              		.loc 1 514 10 view .LVU336
 1584 027e 40F20471 		movw	r1, #1796
 1585 0282 3520     		movs	r0, #53
 1586 0284 FFF7FEFF 		bl	lcd_write_register
 1587              	.LVL147:
 515:lcd.c         ****          lcd_write_register(0x0036,0x1f04);
 1588              		.loc 1 515 10 view .LVU337
 1589 0288 41F60471 		movw	r1, #7940
 1590 028c 3620     		movs	r0, #54
 1591 028e FFF7FEFF 		bl	lcd_write_register
 1592              	.LVL148:
 516:lcd.c         ****          lcd_write_register(0x0037,0x0004);
 1593              		.loc 1 516 10 view .LVU338
 1594 0292 0421     		movs	r1, #4
 1595 0294 3720     		movs	r0, #55
 1596 0296 FFF7FEFF 		bl	lcd_write_register
 1597              	.LVL149:
 517:lcd.c         ****          lcd_write_register(0x0038,0x0000);
 1598              		.loc 1 517 10 view .LVU339
 1599 029a 0021     		movs	r1, #0
 1600 029c 3820     		movs	r0, #56
 1601 029e FFF7FEFF 		bl	lcd_write_register
 1602              	.LVL150:
 518:lcd.c         ****          lcd_write_register(0x0039,0x0706);
 1603              		.loc 1 518 10 view .LVU340
 1604 02a2 40F20671 		movw	r1, #1798
 1605 02a6 3920     		movs	r0, #57
 1606 02a8 FFF7FEFF 		bl	lcd_write_register
 1607              	.LVL151:
 519:lcd.c         ****          lcd_write_register(0x003c,0x0701);
 1608              		.loc 1 519 10 view .LVU341
 1609 02ac 40F20171 		movw	r1, #1793
 1610 02b0 3C20     		movs	r0, #60
 1611 02b2 FFF7FEFF 		bl	lcd_write_register
 1612              	.LVL152:
 520:lcd.c         ****          lcd_write_register(0x003d,0x000f);
 1613              		.loc 1 520 10 view .LVU342
 1614 02b6 0F21     		movs	r1, #15
 1615 02b8 3D20     		movs	r0, #61
 1616 02ba FFF7FEFF 		bl	lcd_write_register
 1617              	.LVL153:
 521:lcd.c         ****          lcd_delay(50);
 1618              		.loc 1 521 10 view .LVU343
 1619              	.LBB72:
 1620              	.LBI72:
 402:lcd.c         **** {
 1621              		.loc 1 402 6 view .LVU344
 1622              	.LBB73:
 404:lcd.c         **** }
 1623              		.loc 1 404 7 view .LVU345
 1624 02be 3220     		movs	r0, #50
 1625 02c0 FFF7FEFF 		bl	wait_ms
 1626              	.LVL154:
 404:lcd.c         **** }
 1627              		.loc 1 404 7 is_stmt 0 view .LVU346
 1628              	.LBE73:
 1629              	.LBE72:
 522:lcd.c         ****          lcd_write_register(0x0050,0x0000);
 1630              		.loc 1 522 10 is_stmt 1 view .LVU347
 1631 02c4 0021     		movs	r1, #0
 1632 02c6 5020     		movs	r0, #80
 1633 02c8 FFF7FEFF 		bl	lcd_write_register
 1634              	.LVL155:
 523:lcd.c         ****          lcd_write_register(0x0051,0x00ef);
 1635              		.loc 1 523 10 view .LVU348
 1636 02cc EF21     		movs	r1, #239
 1637 02ce 5120     		movs	r0, #81
 1638 02d0 FFF7FEFF 		bl	lcd_write_register
 1639              	.LVL156:
 524:lcd.c         ****          lcd_write_register(0x0052,0x0000);
 1640              		.loc 1 524 10 view .LVU349
 1641 02d4 0021     		movs	r1, #0
 1642 02d6 5220     		movs	r0, #82
 1643 02d8 FFF7FEFF 		bl	lcd_write_register
 1644              	.LVL157:
 525:lcd.c         ****          lcd_write_register(0x0053,0x013f);
 1645              		.loc 1 525 10 view .LVU350
 1646 02dc 40F23F11 		movw	r1, #319
 1647 02e0 5320     		movs	r0, #83
 1648 02e2 FFF7FEFF 		bl	lcd_write_register
 1649              	.LVL158:
 526:lcd.c         ****          lcd_write_register(0x0060,0xa700);
 1650              		.loc 1 526 10 view .LVU351
 1651 02e6 4FF42741 		mov	r1, #42752
 1652 02ea 6020     		movs	r0, #96
 1653 02ec FFF7FEFF 		bl	lcd_write_register
 1654              	.LVL159:
 527:lcd.c         ****          lcd_write_register(0x0061,0x0001);
 1655              		.loc 1 527 10 view .LVU352
 1656 02f0 0121     		movs	r1, #1
 1657 02f2 6120     		movs	r0, #97
 1658 02f4 FFF7FEFF 		bl	lcd_write_register
 1659              	.LVL160:
 528:lcd.c         ****          lcd_write_register(0x006a,0x0000);
 1660              		.loc 1 528 10 view .LVU353
 1661 02f8 0021     		movs	r1, #0
 1662 02fa 6A20     		movs	r0, #106
 1663 02fc FFF7FEFF 		bl	lcd_write_register
 1664              	.LVL161:
 529:lcd.c         ****          lcd_write_register(0x0080,0x0000);
 1665              		.loc 1 529 10 view .LVU354
 1666 0300 0021     		movs	r1, #0
 1667 0302 8020     		movs	r0, #128
 1668 0304 FFF7FEFF 		bl	lcd_write_register
 1669              	.LVL162:
 530:lcd.c         ****          lcd_write_register(0x0081,0x0000);
 1670              		.loc 1 530 10 view .LVU355
 1671 0308 0021     		movs	r1, #0
 1672 030a 8120     		movs	r0, #129
 1673 030c FFF7FEFF 		bl	lcd_write_register
 1674              	.LVL163:
 531:lcd.c         ****          lcd_write_register(0x0082,0x0000);
 1675              		.loc 1 531 10 view .LVU356
 1676 0310 0021     		movs	r1, #0
 1677 0312 8220     		movs	r0, #130
 1678 0314 FFF7FEFF 		bl	lcd_write_register
 1679              	.LVL164:
 532:lcd.c         ****          lcd_write_register(0x0083,0x0000);
 1680              		.loc 1 532 10 view .LVU357
 1681 0318 0021     		movs	r1, #0
 1682 031a 8320     		movs	r0, #131
 1683 031c FFF7FEFF 		bl	lcd_write_register
 1684              	.LVL165:
 533:lcd.c         ****          lcd_write_register(0x0084,0x0000);
 1685              		.loc 1 533 10 view .LVU358
 1686 0320 0021     		movs	r1, #0
 1687 0322 8420     		movs	r0, #132
 1688 0324 FFF7FEFF 		bl	lcd_write_register
 1689              	.LVL166:
 534:lcd.c         ****          lcd_write_register(0x0085,0x0000);
 1690              		.loc 1 534 10 view .LVU359
 1691 0328 0021     		movs	r1, #0
 1692 032a 8520     		movs	r0, #133
 1693 032c FFF7FEFF 		bl	lcd_write_register
 1694              	.LVL167:
 535:lcd.c         ****          lcd_write_register(0x0090,0x0010);
 1695              		.loc 1 535 10 view .LVU360
 1696 0330 1021     		movs	r1, #16
 1697 0332 9020     		movs	r0, #144
 1698 0334 FFF7FEFF 		bl	lcd_write_register
 1699              	.LVL168:
 536:lcd.c         ****          lcd_write_register(0x0092,0x0000);
 1700              		.loc 1 536 10 view .LVU361
 1701 0338 0021     		movs	r1, #0
 1702 033a 9220     		movs	r0, #146
 1703 033c FFF7FEFF 		bl	lcd_write_register
 1704              	.LVL169:
 537:lcd.c         ****          lcd_write_register(0x0093,0x0003);
 1705              		.loc 1 537 10 view .LVU362
 1706 0340 0321     		movs	r1, #3
 1707 0342 9320     		movs	r0, #147
 1708 0344 FFF7FEFF 		bl	lcd_write_register
 1709              	.LVL170:
 538:lcd.c         ****          lcd_write_register(0x0095,0x0110);
 1710              		.loc 1 538 10 view .LVU363
 1711 0348 4FF48871 		mov	r1, #272
 1712 034c 9520     		movs	r0, #149
 1713 034e FFF7FEFF 		bl	lcd_write_register
 1714              	.LVL171:
 539:lcd.c         ****          lcd_write_register(0x0097,0x0000);
 1715              		.loc 1 539 10 view .LVU364
 1716 0352 0021     		movs	r1, #0
 1717 0354 9720     		movs	r0, #151
 1718 0356 FFF7FEFF 		bl	lcd_write_register
 1719              	.LVL172:
 540:lcd.c         ****          lcd_write_register(0x0098,0x0000);
 1720              		.loc 1 540 10 view .LVU365
 1721 035a 0021     		movs	r1, #0
 1722 035c 9820     		movs	r0, #152
 1723 035e FFF7FEFF 		bl	lcd_write_register
 1724              	.LVL173:
 541:lcd.c         ****          lcd_write_register(0x0007,0x0133);
 1725              		.loc 1 541 10 view .LVU366
 1726 0362 40F23311 		movw	r1, #307
 1727 0366 0720     		movs	r0, #7
 1728 0368 FFF7FEFF 		bl	lcd_write_register
 1729              	.LVL174:
 542:lcd.c         ****          lcd_write_register(0x0020,0x0000);
 1730              		.loc 1 542 10 view .LVU367
 1731 036c 0021     		movs	r1, #0
 1732 036e 2020     		movs	r0, #32
 1733 0370 FFF7FEFF 		bl	lcd_write_register
 1734              	.LVL175:
 543:lcd.c         ****          lcd_write_register(0x0021,0x013f);
 1735              		.loc 1 543 10 view .LVU368
 1736 0374 40F23F11 		movw	r1, #319
 1737 0378 2120     		movs	r0, #33
 1738              	.L77:
 544:lcd.c         ****       }	else if ((device_code == 0x9320) || (device_code == 0x9300)) {
 545:lcd.c         **** 	 lcd_write_register(0x00,0x0000);
 546:lcd.c         **** 	 lcd_write_register(0x01,0x0100);
 547:lcd.c         **** 	 lcd_write_register(0x02,0x0700);
 548:lcd.c         **** 	 lcd_write_register(0x03,0x1030);
 549:lcd.c         **** 	 lcd_write_register(0x04,0x0000);
 550:lcd.c         **** 	 lcd_write_register(0x08,0x0202);
 551:lcd.c         **** 	 lcd_write_register(0x09,0x0000);
 552:lcd.c         **** 	 lcd_write_register(0x0a,0x0000);
 553:lcd.c         **** 	 lcd_write_register(0x0c,(1 << 0));
 554:lcd.c         **** 	 lcd_write_register(0x0d,0x0000);
 555:lcd.c         **** 	 lcd_write_register(0x0f,0x0000);
 556:lcd.c         **** 	 lcd_delay(50);
 557:lcd.c         **** 	 lcd_write_register(0x07,0x0101);
 558:lcd.c         **** 	 lcd_delay(50);
 559:lcd.c         **** 	 lcd_write_register(0x10,(1 << 12) | (0 << 8) | (1 << 7) | (1 << 6) | (0 << 4));
 560:lcd.c         **** 	 lcd_write_register(0x11,0x0007);
 561:lcd.c         **** 	 lcd_write_register(0x12,(1 << 8) | (1 << 4) | (0 << 0));
 562:lcd.c         **** 	 lcd_write_register(0x13,0x0b00);
 563:lcd.c         **** 	 lcd_write_register(0x29,0x0000);
 564:lcd.c         **** 	 lcd_write_register(0x2b,(1 << 14) | (1 << 4));
 565:lcd.c         **** 	 lcd_write_register(0x50,0);
 566:lcd.c         **** 	 lcd_write_register(0x51,239);
 567:lcd.c         **** 	 lcd_write_register(0x52,0);
 568:lcd.c         **** 	 lcd_write_register(0x53,319);
 569:lcd.c         **** 	 lcd_write_register(0x60,0x2700);
 570:lcd.c         **** 	 lcd_write_register(0x61,0x0001);
 571:lcd.c         **** 	 lcd_write_register(0x6a,0x0000);
 572:lcd.c         **** 	 lcd_write_register(0x80,0x0000);
 573:lcd.c         **** 	 lcd_write_register(0x81,0x0000);
 574:lcd.c         **** 	 lcd_write_register(0x82,0x0000);
 575:lcd.c         **** 	 lcd_write_register(0x83,0x0000);
 576:lcd.c         **** 	 lcd_write_register(0x84,0x0000);
 577:lcd.c         **** 	 lcd_write_register(0x85,0x0000);
 578:lcd.c         **** 	 lcd_write_register(0x90,(0 << 7) | (16 << 0));
 579:lcd.c         **** 	 lcd_write_register(0x92,0x0000);
 580:lcd.c         **** 	 lcd_write_register(0x93,0x0001);
 581:lcd.c         **** 	 lcd_write_register(0x95,0x0110);
 582:lcd.c         **** 	 lcd_write_register(0x97,(0 << 8));
 583:lcd.c         **** 	 lcd_write_register(0x98,0x0000);
 584:lcd.c         **** 	 lcd_write_register(0x07,0x0173);
 585:lcd.c         ****       }	else if (device_code == 0x1505)	{
 586:lcd.c         ****          lcd_write_register(0x0007,0x0000);
 587:lcd.c         ****          lcd_delay(50);
 588:lcd.c         ****          lcd_write_register(0x0012,0x011C);
 589:lcd.c         ****          lcd_write_register(0x00A4,0x0001);
 590:lcd.c         ****          lcd_write_register(0x0008,0x000F);
 591:lcd.c         ****          lcd_write_register(0x000A,0x0008);
 592:lcd.c         ****          lcd_write_register(0x000D,0x0008);
 593:lcd.c         ****          lcd_write_register(0x0030,0x0707);
 594:lcd.c         ****          lcd_write_register(0x0031,0x0007);
 595:lcd.c         ****          lcd_write_register(0x0032,0x0603);
 596:lcd.c         ****          lcd_write_register(0x0033,0x0700);
 597:lcd.c         ****          lcd_write_register(0x0034,0x0202);
 598:lcd.c         ****          lcd_write_register(0x0035,0x0002);
 599:lcd.c         ****          lcd_write_register(0x0036,0x1F0F);
 600:lcd.c         ****          lcd_write_register(0x0037,0x0707);
 601:lcd.c         ****          lcd_write_register(0x0038,0x0000);
 602:lcd.c         ****          lcd_write_register(0x0039,0x0000);
 603:lcd.c         ****          lcd_write_register(0x003A,0x0707);
 604:lcd.c         ****          lcd_write_register(0x003B,0x0000);
 605:lcd.c         ****          lcd_write_register(0x003C,0x0007);
 606:lcd.c         ****          lcd_write_register(0x003D,0x0000);
 607:lcd.c         ****          lcd_delay(50);
 608:lcd.c         ****          lcd_write_register(0x0007,0x0001);
 609:lcd.c         ****          lcd_write_register(0x0017,0x0001);
 610:lcd.c         ****          lcd_delay(50);
 611:lcd.c         ****          lcd_write_register(0x0010,0x17A0);
 612:lcd.c         ****          lcd_write_register(0x0011,0x0217);
 613:lcd.c         ****          lcd_write_register(0x0012,0x011E);
 614:lcd.c         ****          lcd_write_register(0x0013,0x0F00);
 615:lcd.c         ****          lcd_write_register(0x002A,0x0000);
 616:lcd.c         ****          lcd_write_register(0x0029,0x000A);
 617:lcd.c         ****          lcd_write_register(0x0012,0x013E);
 618:lcd.c         ****          lcd_write_register(0x0050,0x0000);
 619:lcd.c         ****          lcd_write_register(0x0051,0x00EF);
 620:lcd.c         ****          lcd_write_register(0x0052,0x0000);
 621:lcd.c         ****          lcd_write_register(0x0053,0x013F);
 622:lcd.c         ****          lcd_write_register(0x0060,0x2700);
 623:lcd.c         ****          lcd_write_register(0x0061,0x0001);
 624:lcd.c         ****          lcd_write_register(0x006A,0x0000);
 625:lcd.c         ****          lcd_write_register(0x0080,0x0000);
 626:lcd.c         ****          lcd_write_register(0x0081,0x0000);
 627:lcd.c         ****          lcd_write_register(0x0082,0x0000);
 628:lcd.c         ****          lcd_write_register(0x0083,0x0000);
 629:lcd.c         ****          lcd_write_register(0x0084,0x0000);
 630:lcd.c         ****          lcd_write_register(0x0085,0x0000);
 631:lcd.c         ****          lcd_write_register(0x0090,0x0013);
 632:lcd.c         ****          lcd_write_register(0x0092,0x0300);
 633:lcd.c         ****          lcd_write_register(0x0093,0x0005);
 634:lcd.c         ****          lcd_write_register(0x0095,0x0000);
 635:lcd.c         ****          lcd_write_register(0x0097,0x0000);
 636:lcd.c         ****          lcd_write_register(0x0098,0x0000);
 637:lcd.c         ****          lcd_write_register(0x0001,0x0100);
 638:lcd.c         ****          lcd_write_register(0x0002,0x0700);
 639:lcd.c         ****          lcd_write_register(0x0003,0x1030);
 640:lcd.c         ****          lcd_write_register(0x0004,0x0000);
 641:lcd.c         ****          lcd_write_register(0x000C,0x0000);
 642:lcd.c         ****          lcd_write_register(0x000F,0x0000);
 643:lcd.c         ****          lcd_write_register(0x0020,0x0000);
 644:lcd.c         ****          lcd_write_register(0x0021,0x0000);
 645:lcd.c         ****          lcd_write_register(0x0007,0x0021);
 646:lcd.c         ****          lcd_delay(200);
 647:lcd.c         ****          lcd_write_register(0x0007,0x0061);
 648:lcd.c         ****          lcd_delay(200);
 649:lcd.c         ****          lcd_write_register(0x0007,0x0173);
 650:lcd.c         ****          lcd_delay(200);
 651:lcd.c         ****       }	else if (device_code == 0x8989) {
 652:lcd.c         **** 	 lcd_write_register(0x0000,0x0001);
 653:lcd.c         ****     	 lcd_write_register(0x0003,0xA8A4);
 654:lcd.c         ****     	 lcd_write_register(0x000C,0x0000);
 655:lcd.c         ****     	 lcd_write_register(0x000D,0x080C);
 656:lcd.c         ****     	 lcd_write_register(0x000E,0x2B00);
 657:lcd.c         ****     	 lcd_write_register(0x001E,0x00B0);
 658:lcd.c         ****     	 lcd_write_register(0x0001,0x2B3F);
 659:lcd.c         ****     	 lcd_write_register(0x0002,0x0600);
 660:lcd.c         ****     	 lcd_write_register(0x0010,0x0000);
 661:lcd.c         ****     	 lcd_write_register(0x0011,0x6070);
 662:lcd.c         ****     	 lcd_write_register(0x0005,0x0000);
 663:lcd.c         ****     	 lcd_write_register(0x0006,0x0000);
 664:lcd.c         ****     	 lcd_write_register(0x0016,0xEF1C);
 665:lcd.c         ****     	 lcd_write_register(0x0017,0x0003);
 666:lcd.c         ****     	 lcd_write_register(0x0007,0x0233);
 667:lcd.c         ****     	 lcd_write_register(0x000B,0x0000);
 668:lcd.c         ****     	 lcd_write_register(0x000F,0x0000);
 669:lcd.c         ****     	 lcd_write_register(0x0041,0x0000);
 670:lcd.c         ****     	 lcd_write_register(0x0042,0x0000);
 671:lcd.c         ****     	 lcd_write_register(0x0048,0x0000);
 672:lcd.c         ****     	 lcd_write_register(0x0049,0x013F);
 673:lcd.c         ****     	 lcd_write_register(0x004A,0x0000);
 674:lcd.c         ****     	 lcd_write_register(0x004B,0x0000);
 675:lcd.c         ****     	 lcd_write_register(0x0044,0xEF00);
 676:lcd.c         ****     	 lcd_write_register(0x0045,0x0000);
 677:lcd.c         ****     	 lcd_write_register(0x0046,0x013F);
 678:lcd.c         ****     	 lcd_write_register(0x0030,0x0707);
 679:lcd.c         ****     	 lcd_write_register(0x0031,0x0204);
 680:lcd.c         ****     	 lcd_write_register(0x0032,0x0204);
 681:lcd.c         ****     	 lcd_write_register(0x0033,0x0502);
 682:lcd.c         ****     	 lcd_write_register(0x0034,0x0507);
 683:lcd.c         ****     	 lcd_write_register(0x0035,0x0204);
 684:lcd.c         ****     	 lcd_write_register(0x0036,0x0204);
 685:lcd.c         ****     	 lcd_write_register(0x0037,0x0502);
 686:lcd.c         ****     	 lcd_write_register(0x003A,0x0302);
 687:lcd.c         ****     	 lcd_write_register(0x003B,0x0302);
 688:lcd.c         ****     	 lcd_write_register(0x0023,0x0000);
 689:lcd.c         ****     	 lcd_write_register(0x0024,0x0000);
 690:lcd.c         ****     	 lcd_write_register(0x0025,0x8000);
 691:lcd.c         ****     	 lcd_write_register(0x004f,0);
 692:lcd.c         ****     	 lcd_write_register(0x004e,0);
 693:lcd.c         ****       }	else if (device_code == 0x8999) {
 694:lcd.c         **** 	 /************* Start Initial Sequence **********/
 695:lcd.c         **** 	 lcd_write_register(0x00,0x0001);
 696:lcd.c         **** 	 lcd_write_register(0x01,0x3B3F);
 697:lcd.c         **** 	 lcd_write_register(0x02,0x0600);
 698:lcd.c         **** 	 /************* Power control setup ***********/
 699:lcd.c         **** 	 lcd_write_register(0x0C,0x0007);
 700:lcd.c         **** 	 lcd_write_register(0x0D,0x0006);
 701:lcd.c         **** 	 lcd_write_register(0x0E,0x3200);
 702:lcd.c         **** 	 lcd_write_register(0x1E,0x00BB);
 703:lcd.c         **** 	 lcd_write_register(0x03,0x6A64);
 704:lcd.c         **** 	 //************ RAM position control **********/
 705:lcd.c         **** 	 lcd_write_register(0x0F,0x0000);
 706:lcd.c         **** 	 lcd_write_register(0x44,0xEF00);
 707:lcd.c         **** 	 lcd_write_register(0x45,0x0000);
 708:lcd.c         **** 	 lcd_write_register(0x46,0x013F);
 709:lcd.c         **** 	 /************* Adjust the Gamma Curve ********/
 710:lcd.c         **** 	 lcd_write_register(0x30,0x0000);
 711:lcd.c         **** 	 lcd_write_register(0x31,0x0706);
 712:lcd.c         **** 	 lcd_write_register(0x32,0x0206);
 713:lcd.c         **** 	 lcd_write_register(0x33,0x0300);
 714:lcd.c         **** 	 lcd_write_register(0x34,0x0002);
 715:lcd.c         **** 	 lcd_write_register(0x35,0x0000);
 716:lcd.c         **** 	 lcd_write_register(0x36,0x0707);
 717:lcd.c         **** 	 lcd_write_register(0x37,0x0200);
 718:lcd.c         **** 	 lcd_write_register(0x3A,0x0908);
 719:lcd.c         **** 	 lcd_write_register(0x3B,0x0F0D);
 720:lcd.c         **** 	 /************* Special command **************/
 721:lcd.c         **** 	 lcd_write_register(0x28,0x0006);
 722:lcd.c         **** 	 lcd_write_register(0x2F,0x12EB);
 723:lcd.c         **** 	 lcd_write_register(0x26,0x7000);
 724:lcd.c         **** 	 lcd_write_register(0x20,0xB0E3);
 725:lcd.c         **** 	 lcd_write_register(0x27,0x0044);
 726:lcd.c         **** 	 lcd_write_register(0x2E,0x7E45);
 727:lcd.c         **** 	 /************* Turn On display **************/
 728:lcd.c         **** 	 lcd_write_register(0x10,0x0000);
 729:lcd.c         **** 	 lcd_delay(30);
 730:lcd.c         **** 	 lcd_write_register(0x11,0x6870);
 731:lcd.c         **** 	 lcd_write_register(0x07,0x0033);
 1739              		.loc 1 731 3 is_stmt 0 view .LVU369
 1740 037a FFF7FEFF 		bl	lcd_write_register
 1741              	.LVL176:
 1742 037e E2E1     		b	.L73
 1743              	.L80:
 1744              		.align	2
 1745              	.L79:
 1746 0380 00000000 		.word	maxx
 1747 0384 00000000 		.word	maxy
 1748 0388 00000000 		.word	ax
 1749 038c 00000000 		.word	ay
 1750 0390 00180140 		.word	1073813504
 1751 0394 00000000 		.word	page
 1752 0398 00000000 		.word	eng_mode
 1753 039c 00000000 		.word	hangul_mode
 1754 03a0 00000000 		.word	max_col
 1755 03a4 00000000 		.word	max_row
 1756 03a8 00000000 		.word	foreground_color
 1757 03ac 00000000 		.word	background_color
 1758 03b0 00140140 		.word	1073812480
 1759 03b4 00000000 		.word	device_code
 1760              	.L72:
 544:lcd.c         ****       }	else if ((device_code == 0x9320) || (device_code == 0x9300)) {
 1761              		.loc 1 544 14 is_stmt 1 discriminator 1 view .LVU370
 544:lcd.c         ****       }	else if ((device_code == 0x9320) || (device_code == 0x9300)) {
 1762              		.loc 1 544 42 is_stmt 0 discriminator 1 view .LVU371
 1763 03b8 20F02003 		bic	r3, r0, #32
 1764 03bc B3F5134F 		cmp	r3, #37632
 1765 03c0 40F0AA80 		bne	.L74
 545:lcd.c         **** 	 lcd_write_register(0x01,0x0100);
 1766              		.loc 1 545 3 is_stmt 1 view .LVU372
 1767 03c4 2146     		mov	r1, r4
 1768 03c6 2046     		mov	r0, r4
 1769 03c8 FFF7FEFF 		bl	lcd_write_register
 1770              	.LVL177:
 546:lcd.c         **** 	 lcd_write_register(0x02,0x0700);
 1771              		.loc 1 546 3 view .LVU373
 1772 03cc 4FF48071 		mov	r1, #256
 1773 03d0 0120     		movs	r0, #1
 1774 03d2 FFF7FEFF 		bl	lcd_write_register
 1775              	.LVL178:
 547:lcd.c         **** 	 lcd_write_register(0x03,0x1030);
 1776              		.loc 1 547 3 view .LVU374
 1777 03d6 4FF4E061 		mov	r1, #1792
 1778 03da 0220     		movs	r0, #2
 1779 03dc FFF7FEFF 		bl	lcd_write_register
 1780              	.LVL179:
 548:lcd.c         **** 	 lcd_write_register(0x04,0x0000);
 1781              		.loc 1 548 3 view .LVU375
 1782 03e0 41F23001 		movw	r1, #4144
 1783 03e4 0320     		movs	r0, #3
 1784 03e6 FFF7FEFF 		bl	lcd_write_register
 1785              	.LVL180:
 549:lcd.c         **** 	 lcd_write_register(0x08,0x0202);
 1786              		.loc 1 549 3 view .LVU376
 1787 03ea 2146     		mov	r1, r4
 1788 03ec 0420     		movs	r0, #4
 1789 03ee FFF7FEFF 		bl	lcd_write_register
 1790              	.LVL181:
 550:lcd.c         **** 	 lcd_write_register(0x09,0x0000);
 1791              		.loc 1 550 3 view .LVU377
 1792 03f2 40F20221 		movw	r1, #514
 1793 03f6 0820     		movs	r0, #8
 1794 03f8 FFF7FEFF 		bl	lcd_write_register
 1795              	.LVL182:
 551:lcd.c         **** 	 lcd_write_register(0x0a,0x0000);
 1796              		.loc 1 551 3 view .LVU378
 1797 03fc 2146     		mov	r1, r4
 1798 03fe 0920     		movs	r0, #9
 1799 0400 FFF7FEFF 		bl	lcd_write_register
 1800              	.LVL183:
 552:lcd.c         **** 	 lcd_write_register(0x0c,(1 << 0));
 1801              		.loc 1 552 3 view .LVU379
 1802 0404 2146     		mov	r1, r4
 1803 0406 0A20     		movs	r0, #10
 1804 0408 FFF7FEFF 		bl	lcd_write_register
 1805              	.LVL184:
 553:lcd.c         **** 	 lcd_write_register(0x0d,0x0000);
 1806              		.loc 1 553 3 view .LVU380
 1807 040c 0121     		movs	r1, #1
 1808 040e 0C20     		movs	r0, #12
 1809 0410 FFF7FEFF 		bl	lcd_write_register
 1810              	.LVL185:
 554:lcd.c         **** 	 lcd_write_register(0x0f,0x0000);
 1811              		.loc 1 554 3 view .LVU381
 1812 0414 2146     		mov	r1, r4
 1813 0416 0D20     		movs	r0, #13
 1814 0418 FFF7FEFF 		bl	lcd_write_register
 1815              	.LVL186:
 555:lcd.c         **** 	 lcd_delay(50);
 1816              		.loc 1 555 3 view .LVU382
 1817 041c 2146     		mov	r1, r4
 1818 041e 0F20     		movs	r0, #15
 1819 0420 FFF7FEFF 		bl	lcd_write_register
 1820              	.LVL187:
 556:lcd.c         **** 	 lcd_write_register(0x07,0x0101);
 1821              		.loc 1 556 3 view .LVU383
 1822              	.LBB74:
 1823              	.LBI74:
 402:lcd.c         **** {
 1824              		.loc 1 402 6 view .LVU384
 1825              	.LBB75:
 404:lcd.c         **** }
 1826              		.loc 1 404 7 view .LVU385
 1827 0424 3220     		movs	r0, #50
 1828 0426 FFF7FEFF 		bl	wait_ms
 1829              	.LVL188:
 404:lcd.c         **** }
 1830              		.loc 1 404 7 is_stmt 0 view .LVU386
 1831              	.LBE75:
 1832              	.LBE74:
 557:lcd.c         **** 	 lcd_delay(50);
 1833              		.loc 1 557 3 is_stmt 1 view .LVU387
 1834 042a 40F20111 		movw	r1, #257
 1835 042e 0720     		movs	r0, #7
 1836 0430 FFF7FEFF 		bl	lcd_write_register
 1837              	.LVL189:
 558:lcd.c         **** 	 lcd_write_register(0x10,(1 << 12) | (0 << 8) | (1 << 7) | (1 << 6) | (0 << 4));
 1838              		.loc 1 558 3 view .LVU388
 1839              	.LBB76:
 1840              	.LBI76:
 402:lcd.c         **** {
 1841              		.loc 1 402 6 view .LVU389
 1842              	.LBB77:
 404:lcd.c         **** }
 1843              		.loc 1 404 7 view .LVU390
 1844 0434 3220     		movs	r0, #50
 1845 0436 FFF7FEFF 		bl	wait_ms
 1846              	.LVL190:
 404:lcd.c         **** }
 1847              		.loc 1 404 7 is_stmt 0 view .LVU391
 1848              	.LBE77:
 1849              	.LBE76:
 559:lcd.c         **** 	 lcd_write_register(0x11,0x0007);
 1850              		.loc 1 559 3 is_stmt 1 view .LVU392
 1851 043a 4FF48651 		mov	r1, #4288
 1852 043e 1020     		movs	r0, #16
 1853 0440 FFF7FEFF 		bl	lcd_write_register
 1854              	.LVL191:
 560:lcd.c         **** 	 lcd_write_register(0x12,(1 << 8) | (1 << 4) | (0 << 0));
 1855              		.loc 1 560 3 view .LVU393
 1856 0444 0721     		movs	r1, #7
 1857 0446 1120     		movs	r0, #17
 1858 0448 FFF7FEFF 		bl	lcd_write_register
 1859              	.LVL192:
 561:lcd.c         **** 	 lcd_write_register(0x13,0x0b00);
 1860              		.loc 1 561 3 view .LVU394
 1861 044c 4FF48871 		mov	r1, #272
 1862 0450 1220     		movs	r0, #18
 1863 0452 FFF7FEFF 		bl	lcd_write_register
 1864              	.LVL193:
 562:lcd.c         **** 	 lcd_write_register(0x29,0x0000);
 1865              		.loc 1 562 3 view .LVU395
 1866 0456 4FF43061 		mov	r1, #2816
 1867 045a 1320     		movs	r0, #19
 1868 045c FFF7FEFF 		bl	lcd_write_register
 1869              	.LVL194:
 563:lcd.c         **** 	 lcd_write_register(0x2b,(1 << 14) | (1 << 4));
 1870              		.loc 1 563 3 view .LVU396
 1871 0460 2146     		mov	r1, r4
 1872 0462 2920     		movs	r0, #41
 1873 0464 FFF7FEFF 		bl	lcd_write_register
 1874              	.LVL195:
 564:lcd.c         **** 	 lcd_write_register(0x50,0);
 1875              		.loc 1 564 3 view .LVU397
 1876 0468 44F21001 		movw	r1, #16400
 1877 046c 2B20     		movs	r0, #43
 1878 046e FFF7FEFF 		bl	lcd_write_register
 1879              	.LVL196:
 565:lcd.c         **** 	 lcd_write_register(0x51,239);
 1880              		.loc 1 565 3 view .LVU398
 1881 0472 2146     		mov	r1, r4
 1882 0474 5020     		movs	r0, #80
 1883 0476 FFF7FEFF 		bl	lcd_write_register
 1884              	.LVL197:
 566:lcd.c         **** 	 lcd_write_register(0x52,0);
 1885              		.loc 1 566 3 view .LVU399
 1886 047a EF21     		movs	r1, #239
 1887 047c 5120     		movs	r0, #81
 1888 047e FFF7FEFF 		bl	lcd_write_register
 1889              	.LVL198:
 567:lcd.c         **** 	 lcd_write_register(0x53,319);
 1890              		.loc 1 567 3 view .LVU400
 1891 0482 2146     		mov	r1, r4
 1892 0484 5220     		movs	r0, #82
 1893 0486 FFF7FEFF 		bl	lcd_write_register
 1894              	.LVL199:
 568:lcd.c         **** 	 lcd_write_register(0x60,0x2700);
 1895              		.loc 1 568 3 view .LVU401
 1896 048a 40F23F11 		movw	r1, #319
 1897 048e 5320     		movs	r0, #83
 1898 0490 FFF7FEFF 		bl	lcd_write_register
 1899              	.LVL200:
 569:lcd.c         **** 	 lcd_write_register(0x61,0x0001);
 1900              		.loc 1 569 3 view .LVU402
 1901 0494 4FF41C51 		mov	r1, #9984
 1902 0498 6020     		movs	r0, #96
 1903 049a FFF7FEFF 		bl	lcd_write_register
 1904              	.LVL201:
 570:lcd.c         **** 	 lcd_write_register(0x6a,0x0000);
 1905              		.loc 1 570 3 view .LVU403
 1906 049e 0121     		movs	r1, #1
 1907 04a0 6120     		movs	r0, #97
 1908 04a2 FFF7FEFF 		bl	lcd_write_register
 1909              	.LVL202:
 571:lcd.c         **** 	 lcd_write_register(0x80,0x0000);
 1910              		.loc 1 571 3 view .LVU404
 1911 04a6 2146     		mov	r1, r4
 1912 04a8 6A20     		movs	r0, #106
 1913 04aa FFF7FEFF 		bl	lcd_write_register
 1914              	.LVL203:
 572:lcd.c         **** 	 lcd_write_register(0x81,0x0000);
 1915              		.loc 1 572 3 view .LVU405
 1916 04ae 2146     		mov	r1, r4
 1917 04b0 8020     		movs	r0, #128
 1918 04b2 FFF7FEFF 		bl	lcd_write_register
 1919              	.LVL204:
 573:lcd.c         **** 	 lcd_write_register(0x82,0x0000);
 1920              		.loc 1 573 3 view .LVU406
 1921 04b6 2146     		mov	r1, r4
 1922 04b8 8120     		movs	r0, #129
 1923 04ba FFF7FEFF 		bl	lcd_write_register
 1924              	.LVL205:
 574:lcd.c         **** 	 lcd_write_register(0x83,0x0000);
 1925              		.loc 1 574 3 view .LVU407
 1926 04be 2146     		mov	r1, r4
 1927 04c0 8220     		movs	r0, #130
 1928 04c2 FFF7FEFF 		bl	lcd_write_register
 1929              	.LVL206:
 575:lcd.c         **** 	 lcd_write_register(0x84,0x0000);
 1930              		.loc 1 575 3 view .LVU408
 1931 04c6 2146     		mov	r1, r4
 1932 04c8 8320     		movs	r0, #131
 1933 04ca FFF7FEFF 		bl	lcd_write_register
 1934              	.LVL207:
 576:lcd.c         **** 	 lcd_write_register(0x85,0x0000);
 1935              		.loc 1 576 3 view .LVU409
 1936 04ce 2146     		mov	r1, r4
 1937 04d0 8420     		movs	r0, #132
 1938 04d2 FFF7FEFF 		bl	lcd_write_register
 1939              	.LVL208:
 577:lcd.c         **** 	 lcd_write_register(0x90,(0 << 7) | (16 << 0));
 1940              		.loc 1 577 3 view .LVU410
 1941 04d6 2146     		mov	r1, r4
 1942 04d8 8520     		movs	r0, #133
 1943 04da FFF7FEFF 		bl	lcd_write_register
 1944              	.LVL209:
 578:lcd.c         **** 	 lcd_write_register(0x92,0x0000);
 1945              		.loc 1 578 3 view .LVU411
 1946 04de 1021     		movs	r1, #16
 1947 04e0 9020     		movs	r0, #144
 1948 04e2 FFF7FEFF 		bl	lcd_write_register
 1949              	.LVL210:
 579:lcd.c         **** 	 lcd_write_register(0x93,0x0001);
 1950              		.loc 1 579 3 view .LVU412
 1951 04e6 2146     		mov	r1, r4
 1952 04e8 9220     		movs	r0, #146
 1953 04ea FFF7FEFF 		bl	lcd_write_register
 1954              	.LVL211:
 580:lcd.c         **** 	 lcd_write_register(0x95,0x0110);
 1955              		.loc 1 580 3 view .LVU413
 1956 04ee 0121     		movs	r1, #1
 1957 04f0 9320     		movs	r0, #147
 1958 04f2 FFF7FEFF 		bl	lcd_write_register
 1959              	.LVL212:
 581:lcd.c         **** 	 lcd_write_register(0x97,(0 << 8));
 1960              		.loc 1 581 3 view .LVU414
 1961 04f6 4FF48871 		mov	r1, #272
 1962 04fa 9520     		movs	r0, #149
 1963 04fc FFF7FEFF 		bl	lcd_write_register
 1964              	.LVL213:
 582:lcd.c         **** 	 lcd_write_register(0x98,0x0000);
 1965              		.loc 1 582 3 view .LVU415
 1966 0500 2146     		mov	r1, r4
 1967 0502 9720     		movs	r0, #151
 1968 0504 FFF7FEFF 		bl	lcd_write_register
 1969              	.LVL214:
 583:lcd.c         **** 	 lcd_write_register(0x07,0x0173);
 1970              		.loc 1 583 3 view .LVU416
 1971 0508 2146     		mov	r1, r4
 1972 050a 9820     		movs	r0, #152
 1973 050c FFF7FEFF 		bl	lcd_write_register
 1974              	.LVL215:
 584:lcd.c         ****       }	else if (device_code == 0x1505)	{
 1975              		.loc 1 584 3 view .LVU417
 1976 0510 40F27311 		movw	r1, #371
 1977              	.L78:
 1978              		.loc 1 731 3 is_stmt 0 view .LVU418
 1979 0514 0720     		movs	r0, #7
 1980 0516 30E7     		b	.L77
 1981              	.L74:
 585:lcd.c         ****          lcd_write_register(0x0007,0x0000);
 1982              		.loc 1 585 14 is_stmt 1 view .LVU419
 585:lcd.c         ****          lcd_write_register(0x0007,0x0000);
 1983              		.loc 1 585 17 is_stmt 0 view .LVU420
 1984 0518 41F20553 		movw	r3, #5381
 1985 051c 9842     		cmp	r0, r3
 1986 051e 40F01B81 		bne	.L75
 586:lcd.c         ****          lcd_delay(50);
 1987              		.loc 1 586 10 is_stmt 1 view .LVU421
 1988 0522 2146     		mov	r1, r4
 1989 0524 0720     		movs	r0, #7
 1990 0526 FFF7FEFF 		bl	lcd_write_register
 1991              	.LVL216:
 587:lcd.c         ****          lcd_write_register(0x0012,0x011C);
 1992              		.loc 1 587 10 view .LVU422
 1993              	.LBB78:
 1994              	.LBI78:
 402:lcd.c         **** {
 1995              		.loc 1 402 6 view .LVU423
 1996              	.LBB79:
 404:lcd.c         **** }
 1997              		.loc 1 404 7 view .LVU424
 1998 052a 3220     		movs	r0, #50
 1999 052c FFF7FEFF 		bl	wait_ms
 2000              	.LVL217:
 404:lcd.c         **** }
 2001              		.loc 1 404 7 is_stmt 0 view .LVU425
 2002              	.LBE79:
 2003              	.LBE78:
 588:lcd.c         ****          lcd_write_register(0x00A4,0x0001);
 2004              		.loc 1 588 10 is_stmt 1 view .LVU426
 2005 0530 4FF48E71 		mov	r1, #284
 2006 0534 1220     		movs	r0, #18
 2007 0536 FFF7FEFF 		bl	lcd_write_register
 2008              	.LVL218:
 589:lcd.c         ****          lcd_write_register(0x0008,0x000F);
 2009              		.loc 1 589 10 view .LVU427
 2010 053a 0121     		movs	r1, #1
 2011 053c A420     		movs	r0, #164
 2012 053e FFF7FEFF 		bl	lcd_write_register
 2013              	.LVL219:
 590:lcd.c         ****          lcd_write_register(0x000A,0x0008);
 2014              		.loc 1 590 10 view .LVU428
 2015 0542 0F21     		movs	r1, #15
 2016 0544 0820     		movs	r0, #8
 2017 0546 FFF7FEFF 		bl	lcd_write_register
 2018              	.LVL220:
 591:lcd.c         ****          lcd_write_register(0x000D,0x0008);
 2019              		.loc 1 591 10 view .LVU429
 2020 054a 0821     		movs	r1, #8
 2021 054c 0A20     		movs	r0, #10
 2022 054e FFF7FEFF 		bl	lcd_write_register
 2023              	.LVL221:
 592:lcd.c         ****          lcd_write_register(0x0030,0x0707);
 2024              		.loc 1 592 10 view .LVU430
 2025 0552 0821     		movs	r1, #8
 2026 0554 0D20     		movs	r0, #13
 2027 0556 FFF7FEFF 		bl	lcd_write_register
 2028              	.LVL222:
 593:lcd.c         ****          lcd_write_register(0x0031,0x0007);
 2029              		.loc 1 593 10 view .LVU431
 2030 055a 40F20771 		movw	r1, #1799
 2031 055e 3020     		movs	r0, #48
 2032 0560 FFF7FEFF 		bl	lcd_write_register
 2033              	.LVL223:
 594:lcd.c         ****          lcd_write_register(0x0032,0x0603);
 2034              		.loc 1 594 10 view .LVU432
 2035 0564 0721     		movs	r1, #7
 2036 0566 3120     		movs	r0, #49
 2037 0568 FFF7FEFF 		bl	lcd_write_register
 2038              	.LVL224:
 595:lcd.c         ****          lcd_write_register(0x0033,0x0700);
 2039              		.loc 1 595 10 view .LVU433
 2040 056c 40F20361 		movw	r1, #1539
 2041 0570 3220     		movs	r0, #50
 2042 0572 FFF7FEFF 		bl	lcd_write_register
 2043              	.LVL225:
 596:lcd.c         ****          lcd_write_register(0x0034,0x0202);
 2044              		.loc 1 596 10 view .LVU434
 2045 0576 4FF4E061 		mov	r1, #1792
 2046 057a 3320     		movs	r0, #51
 2047 057c FFF7FEFF 		bl	lcd_write_register
 2048              	.LVL226:
 597:lcd.c         ****          lcd_write_register(0x0035,0x0002);
 2049              		.loc 1 597 10 view .LVU435
 2050 0580 40F20221 		movw	r1, #514
 2051 0584 3420     		movs	r0, #52
 2052 0586 FFF7FEFF 		bl	lcd_write_register
 2053              	.LVL227:
 598:lcd.c         ****          lcd_write_register(0x0036,0x1F0F);
 2054              		.loc 1 598 10 view .LVU436
 2055 058a 0221     		movs	r1, #2
 2056 058c 3520     		movs	r0, #53
 2057 058e FFF7FEFF 		bl	lcd_write_register
 2058              	.LVL228:
 599:lcd.c         ****          lcd_write_register(0x0037,0x0707);
 2059              		.loc 1 599 10 view .LVU437
 2060 0592 41F60F71 		movw	r1, #7951
 2061 0596 3620     		movs	r0, #54
 2062 0598 FFF7FEFF 		bl	lcd_write_register
 2063              	.LVL229:
 600:lcd.c         ****          lcd_write_register(0x0038,0x0000);
 2064              		.loc 1 600 10 view .LVU438
 2065 059c 40F20771 		movw	r1, #1799
 2066 05a0 3720     		movs	r0, #55
 2067 05a2 FFF7FEFF 		bl	lcd_write_register
 2068              	.LVL230:
 601:lcd.c         ****          lcd_write_register(0x0039,0x0000);
 2069              		.loc 1 601 10 view .LVU439
 2070 05a6 2146     		mov	r1, r4
 2071 05a8 3820     		movs	r0, #56
 2072 05aa FFF7FEFF 		bl	lcd_write_register
 2073              	.LVL231:
 602:lcd.c         ****          lcd_write_register(0x003A,0x0707);
 2074              		.loc 1 602 10 view .LVU440
 2075 05ae 2146     		mov	r1, r4
 2076 05b0 3920     		movs	r0, #57
 2077 05b2 FFF7FEFF 		bl	lcd_write_register
 2078              	.LVL232:
 603:lcd.c         ****          lcd_write_register(0x003B,0x0000);
 2079              		.loc 1 603 10 view .LVU441
 2080 05b6 40F20771 		movw	r1, #1799
 2081 05ba 3A20     		movs	r0, #58
 2082 05bc FFF7FEFF 		bl	lcd_write_register
 2083              	.LVL233:
 604:lcd.c         ****          lcd_write_register(0x003C,0x0007);
 2084              		.loc 1 604 10 view .LVU442
 2085 05c0 2146     		mov	r1, r4
 2086 05c2 3B20     		movs	r0, #59
 2087 05c4 FFF7FEFF 		bl	lcd_write_register
 2088              	.LVL234:
 605:lcd.c         ****          lcd_write_register(0x003D,0x0000);
 2089              		.loc 1 605 10 view .LVU443
 2090 05c8 0721     		movs	r1, #7
 2091 05ca 3C20     		movs	r0, #60
 2092 05cc FFF7FEFF 		bl	lcd_write_register
 2093              	.LVL235:
 606:lcd.c         ****          lcd_delay(50);
 2094              		.loc 1 606 10 view .LVU444
 2095 05d0 2146     		mov	r1, r4
 2096 05d2 3D20     		movs	r0, #61
 2097 05d4 FFF7FEFF 		bl	lcd_write_register
 2098              	.LVL236:
 607:lcd.c         ****          lcd_write_register(0x0007,0x0001);
 2099              		.loc 1 607 10 view .LVU445
 2100              	.LBB80:
 2101              	.LBI80:
 402:lcd.c         **** {
 2102              		.loc 1 402 6 view .LVU446
 2103              	.LBB81:
 404:lcd.c         **** }
 2104              		.loc 1 404 7 view .LVU447
 2105 05d8 3220     		movs	r0, #50
 2106 05da FFF7FEFF 		bl	wait_ms
 2107              	.LVL237:
 404:lcd.c         **** }
 2108              		.loc 1 404 7 is_stmt 0 view .LVU448
 2109              	.LBE81:
 2110              	.LBE80:
 608:lcd.c         ****          lcd_write_register(0x0017,0x0001);
 2111              		.loc 1 608 10 is_stmt 1 view .LVU449
 2112 05de 0121     		movs	r1, #1
 2113 05e0 0720     		movs	r0, #7
 2114 05e2 FFF7FEFF 		bl	lcd_write_register
 2115              	.LVL238:
 609:lcd.c         ****          lcd_delay(50);
 2116              		.loc 1 609 10 view .LVU450
 2117 05e6 0121     		movs	r1, #1
 2118 05e8 1720     		movs	r0, #23
 2119 05ea FFF7FEFF 		bl	lcd_write_register
 2120              	.LVL239:
 610:lcd.c         ****          lcd_write_register(0x0010,0x17A0);
 2121              		.loc 1 610 10 view .LVU451
 2122              	.LBB82:
 2123              	.LBI82:
 402:lcd.c         **** {
 2124              		.loc 1 402 6 view .LVU452
 2125              	.LBB83:
 404:lcd.c         **** }
 2126              		.loc 1 404 7 view .LVU453
 2127 05ee 3220     		movs	r0, #50
 2128 05f0 FFF7FEFF 		bl	wait_ms
 2129              	.LVL240:
 404:lcd.c         **** }
 2130              		.loc 1 404 7 is_stmt 0 view .LVU454
 2131              	.LBE83:
 2132              	.LBE82:
 611:lcd.c         ****          lcd_write_register(0x0011,0x0217);
 2133              		.loc 1 611 10 is_stmt 1 view .LVU455
 2134 05f4 4FF4BD51 		mov	r1, #6048
 2135 05f8 1020     		movs	r0, #16
 2136 05fa FFF7FEFF 		bl	lcd_write_register
 2137              	.LVL241:
 612:lcd.c         ****          lcd_write_register(0x0012,0x011E);
 2138              		.loc 1 612 10 view .LVU456
 2139 05fe 40F21721 		movw	r1, #535
 2140 0602 1120     		movs	r0, #17
 2141 0604 FFF7FEFF 		bl	lcd_write_register
 2142              	.LVL242:
 613:lcd.c         ****          lcd_write_register(0x0013,0x0F00);
 2143              		.loc 1 613 10 view .LVU457
 2144 0608 4FF48F71 		mov	r1, #286
 2145 060c 1220     		movs	r0, #18
 2146 060e FFF7FEFF 		bl	lcd_write_register
 2147              	.LVL243:
 614:lcd.c         ****          lcd_write_register(0x002A,0x0000);
 2148              		.loc 1 614 10 view .LVU458
 2149 0612 4FF47061 		mov	r1, #3840
 2150 0616 1320     		movs	r0, #19
 2151 0618 FFF7FEFF 		bl	lcd_write_register
 2152              	.LVL244:
 615:lcd.c         ****          lcd_write_register(0x0029,0x000A);
 2153              		.loc 1 615 10 view .LVU459
 2154 061c 2146     		mov	r1, r4
 2155 061e 2A20     		movs	r0, #42
 2156 0620 FFF7FEFF 		bl	lcd_write_register
 2157              	.LVL245:
 616:lcd.c         ****          lcd_write_register(0x0012,0x013E);
 2158              		.loc 1 616 10 view .LVU460
 2159 0624 0A21     		movs	r1, #10
 2160 0626 2920     		movs	r0, #41
 2161 0628 FFF7FEFF 		bl	lcd_write_register
 2162              	.LVL246:
 617:lcd.c         ****          lcd_write_register(0x0050,0x0000);
 2163              		.loc 1 617 10 view .LVU461
 2164 062c 4FF49F71 		mov	r1, #318
 2165 0630 1220     		movs	r0, #18
 2166 0632 FFF7FEFF 		bl	lcd_write_register
 2167              	.LVL247:
 618:lcd.c         ****          lcd_write_register(0x0051,0x00EF);
 2168              		.loc 1 618 10 view .LVU462
 2169 0636 2146     		mov	r1, r4
 2170 0638 5020     		movs	r0, #80
 2171 063a FFF7FEFF 		bl	lcd_write_register
 2172              	.LVL248:
 619:lcd.c         ****          lcd_write_register(0x0052,0x0000);
 2173              		.loc 1 619 10 view .LVU463
 2174 063e EF21     		movs	r1, #239
 2175 0640 5120     		movs	r0, #81
 2176 0642 FFF7FEFF 		bl	lcd_write_register
 2177              	.LVL249:
 620:lcd.c         ****          lcd_write_register(0x0053,0x013F);
 2178              		.loc 1 620 10 view .LVU464
 2179 0646 2146     		mov	r1, r4
 2180 0648 5220     		movs	r0, #82
 2181 064a FFF7FEFF 		bl	lcd_write_register
 2182              	.LVL250:
 621:lcd.c         ****          lcd_write_register(0x0060,0x2700);
 2183              		.loc 1 621 10 view .LVU465
 2184 064e 40F23F11 		movw	r1, #319
 2185 0652 5320     		movs	r0, #83
 2186 0654 FFF7FEFF 		bl	lcd_write_register
 2187              	.LVL251:
 622:lcd.c         ****          lcd_write_register(0x0061,0x0001);
 2188              		.loc 1 622 10 view .LVU466
 2189 0658 4FF41C51 		mov	r1, #9984
 2190 065c 6020     		movs	r0, #96
 2191 065e FFF7FEFF 		bl	lcd_write_register
 2192              	.LVL252:
 623:lcd.c         ****          lcd_write_register(0x006A,0x0000);
 2193              		.loc 1 623 10 view .LVU467
 2194 0662 0121     		movs	r1, #1
 2195 0664 6120     		movs	r0, #97
 2196 0666 FFF7FEFF 		bl	lcd_write_register
 2197              	.LVL253:
 624:lcd.c         ****          lcd_write_register(0x0080,0x0000);
 2198              		.loc 1 624 10 view .LVU468
 2199 066a 2146     		mov	r1, r4
 2200 066c 6A20     		movs	r0, #106
 2201 066e FFF7FEFF 		bl	lcd_write_register
 2202              	.LVL254:
 625:lcd.c         ****          lcd_write_register(0x0081,0x0000);
 2203              		.loc 1 625 10 view .LVU469
 2204 0672 2146     		mov	r1, r4
 2205 0674 8020     		movs	r0, #128
 2206 0676 FFF7FEFF 		bl	lcd_write_register
 2207              	.LVL255:
 626:lcd.c         ****          lcd_write_register(0x0082,0x0000);
 2208              		.loc 1 626 10 view .LVU470
 2209 067a 2146     		mov	r1, r4
 2210 067c 8120     		movs	r0, #129
 2211 067e FFF7FEFF 		bl	lcd_write_register
 2212              	.LVL256:
 627:lcd.c         ****          lcd_write_register(0x0083,0x0000);
 2213              		.loc 1 627 10 view .LVU471
 2214 0682 2146     		mov	r1, r4
 2215 0684 8220     		movs	r0, #130
 2216 0686 FFF7FEFF 		bl	lcd_write_register
 2217              	.LVL257:
 628:lcd.c         ****          lcd_write_register(0x0084,0x0000);
 2218              		.loc 1 628 10 view .LVU472
 2219 068a 2146     		mov	r1, r4
 2220 068c 8320     		movs	r0, #131
 2221 068e FFF7FEFF 		bl	lcd_write_register
 2222              	.LVL258:
 629:lcd.c         ****          lcd_write_register(0x0085,0x0000);
 2223              		.loc 1 629 10 view .LVU473
 2224 0692 2146     		mov	r1, r4
 2225 0694 8420     		movs	r0, #132
 2226 0696 FFF7FEFF 		bl	lcd_write_register
 2227              	.LVL259:
 630:lcd.c         ****          lcd_write_register(0x0090,0x0013);
 2228              		.loc 1 630 10 view .LVU474
 2229 069a 2146     		mov	r1, r4
 2230 069c 8520     		movs	r0, #133
 2231 069e FFF7FEFF 		bl	lcd_write_register
 2232              	.LVL260:
 631:lcd.c         ****          lcd_write_register(0x0092,0x0300);
 2233              		.loc 1 631 10 view .LVU475
 2234 06a2 1321     		movs	r1, #19
 2235 06a4 9020     		movs	r0, #144
 2236 06a6 FFF7FEFF 		bl	lcd_write_register
 2237              	.LVL261:
 632:lcd.c         ****          lcd_write_register(0x0093,0x0005);
 2238              		.loc 1 632 10 view .LVU476
 2239 06aa 4FF44071 		mov	r1, #768
 2240 06ae 9220     		movs	r0, #146
 2241 06b0 FFF7FEFF 		bl	lcd_write_register
 2242              	.LVL262:
 633:lcd.c         ****          lcd_write_register(0x0095,0x0000);
 2243              		.loc 1 633 10 view .LVU477
 2244 06b4 0521     		movs	r1, #5
 2245 06b6 9320     		movs	r0, #147
 2246 06b8 FFF7FEFF 		bl	lcd_write_register
 2247              	.LVL263:
 634:lcd.c         ****          lcd_write_register(0x0097,0x0000);
 2248              		.loc 1 634 10 view .LVU478
 2249 06bc 2146     		mov	r1, r4
 2250 06be 9520     		movs	r0, #149
 2251 06c0 FFF7FEFF 		bl	lcd_write_register
 2252              	.LVL264:
 635:lcd.c         ****          lcd_write_register(0x0098,0x0000);
 2253              		.loc 1 635 10 view .LVU479
 2254 06c4 2146     		mov	r1, r4
 2255 06c6 9720     		movs	r0, #151
 2256 06c8 FFF7FEFF 		bl	lcd_write_register
 2257              	.LVL265:
 636:lcd.c         ****          lcd_write_register(0x0001,0x0100);
 2258              		.loc 1 636 10 view .LVU480
 2259 06cc 2146     		mov	r1, r4
 2260 06ce 9820     		movs	r0, #152
 2261 06d0 FFF7FEFF 		bl	lcd_write_register
 2262              	.LVL266:
 637:lcd.c         ****          lcd_write_register(0x0002,0x0700);
 2263              		.loc 1 637 10 view .LVU481
 2264 06d4 4FF48071 		mov	r1, #256
 2265 06d8 0120     		movs	r0, #1
 2266 06da FFF7FEFF 		bl	lcd_write_register
 2267              	.LVL267:
 638:lcd.c         ****          lcd_write_register(0x0003,0x1030);
 2268              		.loc 1 638 10 view .LVU482
 2269 06de 4FF4E061 		mov	r1, #1792
 2270 06e2 0220     		movs	r0, #2
 2271 06e4 FFF7FEFF 		bl	lcd_write_register
 2272              	.LVL268:
 639:lcd.c         ****          lcd_write_register(0x0004,0x0000);
 2273              		.loc 1 639 10 view .LVU483
 2274 06e8 41F23001 		movw	r1, #4144
 2275 06ec 0320     		movs	r0, #3
 2276 06ee FFF7FEFF 		bl	lcd_write_register
 2277              	.LVL269:
 640:lcd.c         ****          lcd_write_register(0x000C,0x0000);
 2278              		.loc 1 640 10 view .LVU484
 2279 06f2 2146     		mov	r1, r4
 2280 06f4 0420     		movs	r0, #4
 2281 06f6 FFF7FEFF 		bl	lcd_write_register
 2282              	.LVL270:
 641:lcd.c         ****          lcd_write_register(0x000F,0x0000);
 2283              		.loc 1 641 10 view .LVU485
 2284 06fa 2146     		mov	r1, r4
 2285 06fc 0C20     		movs	r0, #12
 2286 06fe FFF7FEFF 		bl	lcd_write_register
 2287              	.LVL271:
 642:lcd.c         ****          lcd_write_register(0x0020,0x0000);
 2288              		.loc 1 642 10 view .LVU486
 2289 0702 2146     		mov	r1, r4
 2290 0704 0F20     		movs	r0, #15
 2291 0706 FFF7FEFF 		bl	lcd_write_register
 2292              	.LVL272:
 643:lcd.c         ****          lcd_write_register(0x0021,0x0000);
 2293              		.loc 1 643 10 view .LVU487
 2294 070a 2146     		mov	r1, r4
 2295 070c 2020     		movs	r0, #32
 2296 070e FFF7FEFF 		bl	lcd_write_register
 2297              	.LVL273:
 644:lcd.c         ****          lcd_write_register(0x0007,0x0021);
 2298              		.loc 1 644 10 view .LVU488
 2299 0712 2146     		mov	r1, r4
 2300 0714 2120     		movs	r0, #33
 2301 0716 FFF7FEFF 		bl	lcd_write_register
 2302              	.LVL274:
 645:lcd.c         ****          lcd_delay(200);
 2303              		.loc 1 645 10 view .LVU489
 2304 071a 2121     		movs	r1, #33
 2305 071c 0720     		movs	r0, #7
 2306 071e FFF7FEFF 		bl	lcd_write_register
 2307              	.LVL275:
 646:lcd.c         ****          lcd_write_register(0x0007,0x0061);
 2308              		.loc 1 646 10 view .LVU490
 2309              	.LBB84:
 2310              	.LBI84:
 402:lcd.c         **** {
 2311              		.loc 1 402 6 view .LVU491
 2312              	.LBB85:
 404:lcd.c         **** }
 2313              		.loc 1 404 7 view .LVU492
 2314 0722 C820     		movs	r0, #200
 2315 0724 FFF7FEFF 		bl	wait_ms
 2316              	.LVL276:
 404:lcd.c         **** }
 2317              		.loc 1 404 7 is_stmt 0 view .LVU493
 2318              	.LBE85:
 2319              	.LBE84:
 647:lcd.c         ****          lcd_delay(200);
 2320              		.loc 1 647 10 is_stmt 1 view .LVU494
 2321 0728 6121     		movs	r1, #97
 2322 072a 0720     		movs	r0, #7
 2323 072c FFF7FEFF 		bl	lcd_write_register
 2324              	.LVL277:
 648:lcd.c         ****          lcd_write_register(0x0007,0x0173);
 2325              		.loc 1 648 10 view .LVU495
 2326              	.LBB86:
 2327              	.LBI86:
 402:lcd.c         **** {
 2328              		.loc 1 402 6 view .LVU496
 2329              	.LBB87:
 404:lcd.c         **** }
 2330              		.loc 1 404 7 view .LVU497
 2331 0730 C820     		movs	r0, #200
 2332 0732 FFF7FEFF 		bl	wait_ms
 2333              	.LVL278:
 404:lcd.c         **** }
 2334              		.loc 1 404 7 is_stmt 0 view .LVU498
 2335              	.LBE87:
 2336              	.LBE86:
 649:lcd.c         ****          lcd_delay(200);
 2337              		.loc 1 649 10 is_stmt 1 view .LVU499
 2338 0736 0720     		movs	r0, #7
 2339 0738 40F27311 		movw	r1, #371
 2340 073c FFF7FEFF 		bl	lcd_write_register
 2341              	.LVL279:
 650:lcd.c         ****       }	else if (device_code == 0x8989) {
 2342              		.loc 1 650 10 view .LVU500
 2343              	.LBB88:
 2344              	.LBI88:
 402:lcd.c         **** {
 2345              		.loc 1 402 6 view .LVU501
 2346              	.LBB89:
 404:lcd.c         **** }
 2347              		.loc 1 404 7 view .LVU502
 2348 0740 C820     		movs	r0, #200
 2349 0742 FFF7FEFF 		bl	wait_ms
 2350              	.LVL280:
 2351              	.L73:
 404:lcd.c         **** }
 2352              		.loc 1 404 7 is_stmt 0 view .LVU503
 2353              	.LBE89:
 2354              	.LBE88:
 732:lcd.c         ****       }
 733:lcd.c         ****       lcd_delay(500);
 2355              		.loc 1 733 7 is_stmt 1 view .LVU504
 2356              	.LBB90:
 2357              	.LBI90:
 402:lcd.c         **** {
 2358              		.loc 1 402 6 view .LVU505
 2359              	.LBB91:
 404:lcd.c         **** }
 2360              		.loc 1 404 7 view .LVU506
 2361 0746 4FF4FA70 		mov	r0, #500
 2362 074a FFF7FEFF 		bl	wait_ms
 2363              	.LVL281:
 404:lcd.c         **** }
 2364              		.loc 1 404 7 is_stmt 0 view .LVU507
 2365              	.LBE91:
 2366              	.LBE90:
 734:lcd.c         ****       lcd_clear(BLACK);
 2367              		.loc 1 734 7 is_stmt 1 view .LVU508
 735:lcd.c         **** }
 2368              		.loc 1 735 1 is_stmt 0 view .LVU509
 2369 074e BDE83840 		pop	{r3, r4, r5, lr}
 2370              		.cfi_remember_state
 2371              		.cfi_restore 14
 2372              		.cfi_restore 5
 2373              		.cfi_restore 4
 2374              		.cfi_restore 3
 2375              		.cfi_def_cfa_offset 0
 734:lcd.c         ****       lcd_clear(BLACK);
 2376              		.loc 1 734 7 view .LVU510
 2377 0752 0020     		movs	r0, #0
 2378 0754 FFF7FEBF 		b	lcd_clear
 2379              	.LVL282:
 2380              	.L75:
 2381              		.cfi_restore_state
 651:lcd.c         **** 	 lcd_write_register(0x0000,0x0001);
 2382              		.loc 1 651 14 is_stmt 1 view .LVU511
 651:lcd.c         **** 	 lcd_write_register(0x0000,0x0001);
 2383              		.loc 1 651 17 is_stmt 0 view .LVU512
 2384 0758 48F68913 		movw	r3, #35209
 2385 075c 9842     		cmp	r0, r3
 2386 075e 40F0B980 		bne	.L76
 652:lcd.c         ****     	 lcd_write_register(0x0003,0xA8A4);
 2387              		.loc 1 652 3 is_stmt 1 view .LVU513
 2388 0762 0121     		movs	r1, #1
 2389 0764 2046     		mov	r0, r4
 2390 0766 FFF7FEFF 		bl	lcd_write_register
 2391              	.LVL283:
 653:lcd.c         ****     	 lcd_write_register(0x000C,0x0000);
 2392              		.loc 1 653 7 view .LVU514
 2393 076a 4AF6A401 		movw	r1, #43172
 2394 076e 0320     		movs	r0, #3
 2395 0770 FFF7FEFF 		bl	lcd_write_register
 2396              	.LVL284:
 654:lcd.c         ****     	 lcd_write_register(0x000D,0x080C);
 2397              		.loc 1 654 7 view .LVU515
 2398 0774 2146     		mov	r1, r4
 2399 0776 0C20     		movs	r0, #12
 2400 0778 FFF7FEFF 		bl	lcd_write_register
 2401              	.LVL285:
 655:lcd.c         ****     	 lcd_write_register(0x000E,0x2B00);
 2402              		.loc 1 655 7 view .LVU516
 2403 077c 40F60C01 		movw	r1, #2060
 2404 0780 0D20     		movs	r0, #13
 2405 0782 FFF7FEFF 		bl	lcd_write_register
 2406              	.LVL286:
 656:lcd.c         ****     	 lcd_write_register(0x001E,0x00B0);
 2407              		.loc 1 656 7 view .LVU517
 2408 0786 4FF42C51 		mov	r1, #11008
 2409 078a 0E20     		movs	r0, #14
 2410 078c FFF7FEFF 		bl	lcd_write_register
 2411              	.LVL287:
 657:lcd.c         ****     	 lcd_write_register(0x0001,0x2B3F);
 2412              		.loc 1 657 7 view .LVU518
 2413 0790 B021     		movs	r1, #176
 2414 0792 2846     		mov	r0, r5
 2415 0794 FFF7FEFF 		bl	lcd_write_register
 2416              	.LVL288:
 658:lcd.c         ****     	 lcd_write_register(0x0002,0x0600);
 2417              		.loc 1 658 7 view .LVU519
 2418 0798 42F63F31 		movw	r1, #11071
 2419 079c 0120     		movs	r0, #1
 2420 079e FFF7FEFF 		bl	lcd_write_register
 2421              	.LVL289:
 659:lcd.c         ****     	 lcd_write_register(0x0010,0x0000);
 2422              		.loc 1 659 7 view .LVU520
 2423 07a2 4FF4C061 		mov	r1, #1536
 2424 07a6 0220     		movs	r0, #2
 2425 07a8 FFF7FEFF 		bl	lcd_write_register
 2426              	.LVL290:
 660:lcd.c         ****     	 lcd_write_register(0x0011,0x6070);
 2427              		.loc 1 660 7 view .LVU521
 2428 07ac 2146     		mov	r1, r4
 2429 07ae 1020     		movs	r0, #16
 2430 07b0 FFF7FEFF 		bl	lcd_write_register
 2431              	.LVL291:
 661:lcd.c         ****     	 lcd_write_register(0x0005,0x0000);
 2432              		.loc 1 661 7 view .LVU522
 2433 07b4 46F27001 		movw	r1, #24688
 2434 07b8 1120     		movs	r0, #17
 2435 07ba FFF7FEFF 		bl	lcd_write_register
 2436              	.LVL292:
 662:lcd.c         ****     	 lcd_write_register(0x0006,0x0000);
 2437              		.loc 1 662 7 view .LVU523
 2438 07be 2146     		mov	r1, r4
 2439 07c0 0520     		movs	r0, #5
 2440 07c2 FFF7FEFF 		bl	lcd_write_register
 2441              	.LVL293:
 663:lcd.c         ****     	 lcd_write_register(0x0016,0xEF1C);
 2442              		.loc 1 663 7 view .LVU524
 2443 07c6 2146     		mov	r1, r4
 2444 07c8 0620     		movs	r0, #6
 2445 07ca FFF7FEFF 		bl	lcd_write_register
 2446              	.LVL294:
 664:lcd.c         ****     	 lcd_write_register(0x0017,0x0003);
 2447              		.loc 1 664 7 view .LVU525
 2448 07ce 4EF61C71 		movw	r1, #61212
 2449 07d2 1620     		movs	r0, #22
 2450 07d4 FFF7FEFF 		bl	lcd_write_register
 2451              	.LVL295:
 665:lcd.c         ****     	 lcd_write_register(0x0007,0x0233);
 2452              		.loc 1 665 7 view .LVU526
 2453 07d8 0321     		movs	r1, #3
 2454 07da 1720     		movs	r0, #23
 2455 07dc FFF7FEFF 		bl	lcd_write_register
 2456              	.LVL296:
 666:lcd.c         ****     	 lcd_write_register(0x000B,0x0000);
 2457              		.loc 1 666 7 view .LVU527
 2458 07e0 40F23321 		movw	r1, #563
 2459 07e4 0720     		movs	r0, #7
 2460 07e6 FFF7FEFF 		bl	lcd_write_register
 2461              	.LVL297:
 667:lcd.c         ****     	 lcd_write_register(0x000F,0x0000);
 2462              		.loc 1 667 7 view .LVU528
 2463 07ea 2146     		mov	r1, r4
 2464 07ec 0B20     		movs	r0, #11
 2465 07ee FFF7FEFF 		bl	lcd_write_register
 2466              	.LVL298:
 668:lcd.c         ****     	 lcd_write_register(0x0041,0x0000);
 2467              		.loc 1 668 7 view .LVU529
 2468 07f2 2146     		mov	r1, r4
 2469 07f4 0F20     		movs	r0, #15
 2470 07f6 FFF7FEFF 		bl	lcd_write_register
 2471              	.LVL299:
 669:lcd.c         ****     	 lcd_write_register(0x0042,0x0000);
 2472              		.loc 1 669 7 view .LVU530
 2473 07fa 2146     		mov	r1, r4
 2474 07fc 4120     		movs	r0, #65
 2475 07fe FFF7FEFF 		bl	lcd_write_register
 2476              	.LVL300:
 670:lcd.c         ****     	 lcd_write_register(0x0048,0x0000);
 2477              		.loc 1 670 7 view .LVU531
 2478 0802 2146     		mov	r1, r4
 2479 0804 4220     		movs	r0, #66
 2480 0806 FFF7FEFF 		bl	lcd_write_register
 2481              	.LVL301:
 671:lcd.c         ****     	 lcd_write_register(0x0049,0x013F);
 2482              		.loc 1 671 7 view .LVU532
 2483 080a 2146     		mov	r1, r4
 2484 080c 4820     		movs	r0, #72
 2485 080e FFF7FEFF 		bl	lcd_write_register
 2486              	.LVL302:
 672:lcd.c         ****     	 lcd_write_register(0x004A,0x0000);
 2487              		.loc 1 672 7 view .LVU533
 2488 0812 40F23F11 		movw	r1, #319
 2489 0816 4920     		movs	r0, #73
 2490 0818 FFF7FEFF 		bl	lcd_write_register
 2491              	.LVL303:
 673:lcd.c         ****     	 lcd_write_register(0x004B,0x0000);
 2492              		.loc 1 673 7 view .LVU534
 2493 081c 2146     		mov	r1, r4
 2494 081e 4A20     		movs	r0, #74
 2495 0820 FFF7FEFF 		bl	lcd_write_register
 2496              	.LVL304:
 674:lcd.c         ****     	 lcd_write_register(0x0044,0xEF00);
 2497              		.loc 1 674 7 view .LVU535
 2498 0824 2146     		mov	r1, r4
 2499 0826 4B20     		movs	r0, #75
 2500 0828 FFF7FEFF 		bl	lcd_write_register
 2501              	.LVL305:
 675:lcd.c         ****     	 lcd_write_register(0x0045,0x0000);
 2502              		.loc 1 675 7 view .LVU536
 2503 082c 4FF46F41 		mov	r1, #61184
 2504 0830 4420     		movs	r0, #68
 2505 0832 FFF7FEFF 		bl	lcd_write_register
 2506              	.LVL306:
 676:lcd.c         ****     	 lcd_write_register(0x0046,0x013F);
 2507              		.loc 1 676 7 view .LVU537
 2508 0836 2146     		mov	r1, r4
 2509 0838 4520     		movs	r0, #69
 2510 083a FFF7FEFF 		bl	lcd_write_register
 2511              	.LVL307:
 677:lcd.c         ****     	 lcd_write_register(0x0030,0x0707);
 2512              		.loc 1 677 7 view .LVU538
 2513 083e 40F23F11 		movw	r1, #319
 2514 0842 4620     		movs	r0, #70
 2515 0844 FFF7FEFF 		bl	lcd_write_register
 2516              	.LVL308:
 678:lcd.c         ****     	 lcd_write_register(0x0031,0x0204);
 2517              		.loc 1 678 7 view .LVU539
 2518 0848 40F20771 		movw	r1, #1799
 2519 084c 3020     		movs	r0, #48
 2520 084e FFF7FEFF 		bl	lcd_write_register
 2521              	.LVL309:
 679:lcd.c         ****     	 lcd_write_register(0x0032,0x0204);
 2522              		.loc 1 679 7 view .LVU540
 2523 0852 4FF40171 		mov	r1, #516
 2524 0856 3120     		movs	r0, #49
 2525 0858 FFF7FEFF 		bl	lcd_write_register
 2526              	.LVL310:
 680:lcd.c         ****     	 lcd_write_register(0x0033,0x0502);
 2527              		.loc 1 680 7 view .LVU541
 2528 085c 4FF40171 		mov	r1, #516
 2529 0860 3220     		movs	r0, #50
 2530 0862 FFF7FEFF 		bl	lcd_write_register
 2531              	.LVL311:
 681:lcd.c         ****     	 lcd_write_register(0x0034,0x0507);
 2532              		.loc 1 681 7 view .LVU542
 2533 0866 40F20251 		movw	r1, #1282
 2534 086a 3320     		movs	r0, #51
 2535 086c FFF7FEFF 		bl	lcd_write_register
 2536              	.LVL312:
 682:lcd.c         ****     	 lcd_write_register(0x0035,0x0204);
 2537              		.loc 1 682 7 view .LVU543
 2538 0870 40F20751 		movw	r1, #1287
 2539 0874 3420     		movs	r0, #52
 2540 0876 FFF7FEFF 		bl	lcd_write_register
 2541              	.LVL313:
 683:lcd.c         ****     	 lcd_write_register(0x0036,0x0204);
 2542              		.loc 1 683 7 view .LVU544
 2543 087a 4FF40171 		mov	r1, #516
 2544 087e 3520     		movs	r0, #53
 2545 0880 FFF7FEFF 		bl	lcd_write_register
 2546              	.LVL314:
 684:lcd.c         ****     	 lcd_write_register(0x0037,0x0502);
 2547              		.loc 1 684 7 view .LVU545
 2548 0884 4FF40171 		mov	r1, #516
 2549 0888 3620     		movs	r0, #54
 2550 088a FFF7FEFF 		bl	lcd_write_register
 2551              	.LVL315:
 685:lcd.c         ****     	 lcd_write_register(0x003A,0x0302);
 2552              		.loc 1 685 7 view .LVU546
 2553 088e 40F20251 		movw	r1, #1282
 2554 0892 3720     		movs	r0, #55
 2555 0894 FFF7FEFF 		bl	lcd_write_register
 2556              	.LVL316:
 686:lcd.c         ****     	 lcd_write_register(0x003B,0x0302);
 2557              		.loc 1 686 7 view .LVU547
 2558 0898 40F20231 		movw	r1, #770
 2559 089c 3A20     		movs	r0, #58
 2560 089e FFF7FEFF 		bl	lcd_write_register
 2561              	.LVL317:
 687:lcd.c         ****     	 lcd_write_register(0x0023,0x0000);
 2562              		.loc 1 687 7 view .LVU548
 2563 08a2 40F20231 		movw	r1, #770
 2564 08a6 3B20     		movs	r0, #59
 2565 08a8 FFF7FEFF 		bl	lcd_write_register
 2566              	.LVL318:
 688:lcd.c         ****     	 lcd_write_register(0x0024,0x0000);
 2567              		.loc 1 688 7 view .LVU549
 2568 08ac 2146     		mov	r1, r4
 2569 08ae 2320     		movs	r0, #35
 2570 08b0 FFF7FEFF 		bl	lcd_write_register
 2571              	.LVL319:
 689:lcd.c         ****     	 lcd_write_register(0x0025,0x8000);
 2572              		.loc 1 689 7 view .LVU550
 2573 08b4 2146     		mov	r1, r4
 2574 08b6 2420     		movs	r0, #36
 2575 08b8 FFF7FEFF 		bl	lcd_write_register
 2576              	.LVL320:
 690:lcd.c         ****     	 lcd_write_register(0x004f,0);
 2577              		.loc 1 690 7 view .LVU551
 2578 08bc 4FF40041 		mov	r1, #32768
 2579 08c0 2520     		movs	r0, #37
 2580 08c2 FFF7FEFF 		bl	lcd_write_register
 2581              	.LVL321:
 691:lcd.c         ****     	 lcd_write_register(0x004e,0);
 2582              		.loc 1 691 7 view .LVU552
 2583 08c6 2146     		mov	r1, r4
 2584 08c8 4F20     		movs	r0, #79
 2585 08ca FFF7FEFF 		bl	lcd_write_register
 2586              	.LVL322:
 692:lcd.c         ****       }	else if (device_code == 0x8999) {
 2587              		.loc 1 692 7 view .LVU553
 2588 08ce 2146     		mov	r1, r4
 2589 08d0 4E20     		movs	r0, #78
 2590 08d2 52E5     		b	.L77
 2591              	.L76:
 693:lcd.c         **** 	 /************* Start Initial Sequence **********/
 2592              		.loc 1 693 14 view .LVU554
 693:lcd.c         **** 	 /************* Start Initial Sequence **********/
 2593              		.loc 1 693 17 is_stmt 0 view .LVU555
 2594 08d4 48F69913 		movw	r3, #35225
 2595 08d8 9842     		cmp	r0, r3
 2596 08da 7FF434AF 		bne	.L73
 695:lcd.c         **** 	 lcd_write_register(0x01,0x3B3F);
 2597              		.loc 1 695 3 is_stmt 1 view .LVU556
 2598 08de 0121     		movs	r1, #1
 2599 08e0 2046     		mov	r0, r4
 2600 08e2 FFF7FEFF 		bl	lcd_write_register
 2601              	.LVL323:
 696:lcd.c         **** 	 lcd_write_register(0x02,0x0600);
 2602              		.loc 1 696 3 view .LVU557
 2603 08e6 43F63F31 		movw	r1, #15167
 2604 08ea 0120     		movs	r0, #1
 2605 08ec FFF7FEFF 		bl	lcd_write_register
 2606              	.LVL324:
 697:lcd.c         **** 	 /************* Power control setup ***********/
 2607              		.loc 1 697 3 view .LVU558
 2608 08f0 4FF4C061 		mov	r1, #1536
 2609 08f4 0220     		movs	r0, #2
 2610 08f6 FFF7FEFF 		bl	lcd_write_register
 2611              	.LVL325:
 699:lcd.c         **** 	 lcd_write_register(0x0D,0x0006);
 2612              		.loc 1 699 3 view .LVU559
 2613 08fa 0721     		movs	r1, #7
 2614 08fc 0C20     		movs	r0, #12
 2615 08fe FFF7FEFF 		bl	lcd_write_register
 2616              	.LVL326:
 700:lcd.c         **** 	 lcd_write_register(0x0E,0x3200);
 2617              		.loc 1 700 3 view .LVU560
 2618 0902 0621     		movs	r1, #6
 2619 0904 0D20     		movs	r0, #13
 2620 0906 FFF7FEFF 		bl	lcd_write_register
 2621              	.LVL327:
 701:lcd.c         **** 	 lcd_write_register(0x1E,0x00BB);
 2622              		.loc 1 701 3 view .LVU561
 2623 090a 4FF44851 		mov	r1, #12800
 2624 090e 0E20     		movs	r0, #14
 2625 0910 FFF7FEFF 		bl	lcd_write_register
 2626              	.LVL328:
 702:lcd.c         **** 	 lcd_write_register(0x03,0x6A64);
 2627              		.loc 1 702 3 view .LVU562
 2628 0914 BB21     		movs	r1, #187
 2629 0916 2846     		mov	r0, r5
 2630 0918 FFF7FEFF 		bl	lcd_write_register
 2631              	.LVL329:
 703:lcd.c         **** 	 //************ RAM position control **********/
 2632              		.loc 1 703 3 view .LVU563
 2633 091c 46F66421 		movw	r1, #27236
 2634 0920 0320     		movs	r0, #3
 2635 0922 FFF7FEFF 		bl	lcd_write_register
 2636              	.LVL330:
 705:lcd.c         **** 	 lcd_write_register(0x44,0xEF00);
 2637              		.loc 1 705 3 view .LVU564
 2638 0926 2146     		mov	r1, r4
 2639 0928 0F20     		movs	r0, #15
 2640 092a FFF7FEFF 		bl	lcd_write_register
 2641              	.LVL331:
 706:lcd.c         **** 	 lcd_write_register(0x45,0x0000);
 2642              		.loc 1 706 3 view .LVU565
 2643 092e 4FF46F41 		mov	r1, #61184
 2644 0932 4420     		movs	r0, #68
 2645 0934 FFF7FEFF 		bl	lcd_write_register
 2646              	.LVL332:
 707:lcd.c         **** 	 lcd_write_register(0x46,0x013F);
 2647              		.loc 1 707 3 view .LVU566
 2648 0938 2146     		mov	r1, r4
 2649 093a 4520     		movs	r0, #69
 2650 093c FFF7FEFF 		bl	lcd_write_register
 2651              	.LVL333:
 708:lcd.c         **** 	 /************* Adjust the Gamma Curve ********/
 2652              		.loc 1 708 3 view .LVU567
 2653 0940 40F23F11 		movw	r1, #319
 2654 0944 4620     		movs	r0, #70
 2655 0946 FFF7FEFF 		bl	lcd_write_register
 2656              	.LVL334:
 710:lcd.c         **** 	 lcd_write_register(0x31,0x0706);
 2657              		.loc 1 710 3 view .LVU568
 2658 094a 2146     		mov	r1, r4
 2659 094c 3020     		movs	r0, #48
 2660 094e FFF7FEFF 		bl	lcd_write_register
 2661              	.LVL335:
 711:lcd.c         **** 	 lcd_write_register(0x32,0x0206);
 2662              		.loc 1 711 3 view .LVU569
 2663 0952 40F20671 		movw	r1, #1798
 2664 0956 3120     		movs	r0, #49
 2665 0958 FFF7FEFF 		bl	lcd_write_register
 2666              	.LVL336:
 712:lcd.c         **** 	 lcd_write_register(0x33,0x0300);
 2667              		.loc 1 712 3 view .LVU570
 2668 095c 40F20621 		movw	r1, #518
 2669 0960 3220     		movs	r0, #50
 2670 0962 FFF7FEFF 		bl	lcd_write_register
 2671              	.LVL337:
 713:lcd.c         **** 	 lcd_write_register(0x34,0x0002);
 2672              		.loc 1 713 3 view .LVU571
 2673 0966 4FF44071 		mov	r1, #768
 2674 096a 3320     		movs	r0, #51
 2675 096c FFF7FEFF 		bl	lcd_write_register
 2676              	.LVL338:
 714:lcd.c         **** 	 lcd_write_register(0x35,0x0000);
 2677              		.loc 1 714 3 view .LVU572
 2678 0970 0221     		movs	r1, #2
 2679 0972 3420     		movs	r0, #52
 2680 0974 FFF7FEFF 		bl	lcd_write_register
 2681              	.LVL339:
 715:lcd.c         **** 	 lcd_write_register(0x36,0x0707);
 2682              		.loc 1 715 3 view .LVU573
 2683 0978 2146     		mov	r1, r4
 2684 097a 3520     		movs	r0, #53
 2685 097c FFF7FEFF 		bl	lcd_write_register
 2686              	.LVL340:
 716:lcd.c         **** 	 lcd_write_register(0x37,0x0200);
 2687              		.loc 1 716 3 view .LVU574
 2688 0980 40F20771 		movw	r1, #1799
 2689 0984 3620     		movs	r0, #54
 2690 0986 FFF7FEFF 		bl	lcd_write_register
 2691              	.LVL341:
 717:lcd.c         **** 	 lcd_write_register(0x3A,0x0908);
 2692              		.loc 1 717 3 view .LVU575
 2693 098a 4FF40071 		mov	r1, #512
 2694 098e 3720     		movs	r0, #55
 2695 0990 FFF7FEFF 		bl	lcd_write_register
 2696              	.LVL342:
 718:lcd.c         **** 	 lcd_write_register(0x3B,0x0F0D);
 2697              		.loc 1 718 3 view .LVU576
 2698 0994 40F60811 		movw	r1, #2312
 2699 0998 3A20     		movs	r0, #58
 2700 099a FFF7FEFF 		bl	lcd_write_register
 2701              	.LVL343:
 719:lcd.c         **** 	 /************* Special command **************/
 2702              		.loc 1 719 3 view .LVU577
 2703 099e 40F60D71 		movw	r1, #3853
 2704 09a2 3B20     		movs	r0, #59
 2705 09a4 FFF7FEFF 		bl	lcd_write_register
 2706              	.LVL344:
 721:lcd.c         **** 	 lcd_write_register(0x2F,0x12EB);
 2707              		.loc 1 721 3 view .LVU578
 2708 09a8 0621     		movs	r1, #6
 2709 09aa 2820     		movs	r0, #40
 2710 09ac FFF7FEFF 		bl	lcd_write_register
 2711              	.LVL345:
 722:lcd.c         **** 	 lcd_write_register(0x26,0x7000);
 2712              		.loc 1 722 3 view .LVU579
 2713 09b0 41F2EB21 		movw	r1, #4843
 2714 09b4 2F20     		movs	r0, #47
 2715 09b6 FFF7FEFF 		bl	lcd_write_register
 2716              	.LVL346:
 723:lcd.c         **** 	 lcd_write_register(0x20,0xB0E3);
 2717              		.loc 1 723 3 view .LVU580
 2718 09ba 4FF4E041 		mov	r1, #28672
 2719 09be 2620     		movs	r0, #38
 2720 09c0 FFF7FEFF 		bl	lcd_write_register
 2721              	.LVL347:
 724:lcd.c         **** 	 lcd_write_register(0x27,0x0044);
 2722              		.loc 1 724 3 view .LVU581
 2723 09c4 4BF2E301 		movw	r1, #45283
 2724 09c8 2020     		movs	r0, #32
 2725 09ca FFF7FEFF 		bl	lcd_write_register
 2726              	.LVL348:
 725:lcd.c         **** 	 lcd_write_register(0x2E,0x7E45);
 2727              		.loc 1 725 3 view .LVU582
 2728 09ce 4421     		movs	r1, #68
 2729 09d0 2720     		movs	r0, #39
 2730 09d2 FFF7FEFF 		bl	lcd_write_register
 2731              	.LVL349:
 726:lcd.c         **** 	 /************* Turn On display **************/
 2732              		.loc 1 726 3 view .LVU583
 2733 09d6 47F64561 		movw	r1, #32325
 2734 09da 2E20     		movs	r0, #46
 2735 09dc FFF7FEFF 		bl	lcd_write_register
 2736              	.LVL350:
 728:lcd.c         **** 	 lcd_delay(30);
 2737              		.loc 1 728 3 view .LVU584
 2738 09e0 2146     		mov	r1, r4
 2739 09e2 1020     		movs	r0, #16
 2740 09e4 FFF7FEFF 		bl	lcd_write_register
 2741              	.LVL351:
 729:lcd.c         **** 	 lcd_write_register(0x11,0x6870);
 2742              		.loc 1 729 3 view .LVU585
 2743              	.LBB92:
 2744              	.LBI92:
 402:lcd.c         **** {
 2745              		.loc 1 402 6 view .LVU586
 2746              	.LBB93:
 404:lcd.c         **** }
 2747              		.loc 1 404 7 view .LVU587
 2748 09e8 2846     		mov	r0, r5
 2749 09ea FFF7FEFF 		bl	wait_ms
 2750              	.LVL352:
 404:lcd.c         **** }
 2751              		.loc 1 404 7 is_stmt 0 view .LVU588
 2752              	.LBE93:
 2753              	.LBE92:
 730:lcd.c         **** 	 lcd_write_register(0x07,0x0033);
 2754              		.loc 1 730 3 is_stmt 1 view .LVU589
 2755 09ee 46F67001 		movw	r1, #26736
 2756 09f2 1120     		movs	r0, #17
 2757 09f4 FFF7FEFF 		bl	lcd_write_register
 2758              	.LVL353:
 731:lcd.c         ****       }
 2759              		.loc 1 731 3 view .LVU590
 2760 09f8 3321     		movs	r1, #51
 2761 09fa 8BE5     		b	.L78
 2762              		.cfi_endproc
 2763              	.LFE60:
 2765              		.section	.text.lcd_fill,"ax",%progbits
 2766              		.align	1
 2767              		.global	lcd_fill
 2768              		.syntax unified
 2769              		.thumb
 2770              		.thumb_func
 2771              		.fpu softvfp
 2773              	lcd_fill:
 2774              	.LVL354:
 2775              	.LFB61:
 736:lcd.c         **** 
 737:lcd.c         **** 
 738:lcd.c         **** void lcd_fill (unsigned char xsta,unsigned short ysta,unsigned char xend,unsigned short yend,unsign
 739:lcd.c         **** {
 2776              		.loc 1 739 1 view -0
 2777              		.cfi_startproc
 2778              		@ args = 4, pretend = 0, frame = 0
 2779              		@ frame_needed = 0, uses_anonymous_args = 0
 740:lcd.c         ****       unsigned int n;
 2780              		.loc 1 740 7 view .LVU592
 741:lcd.c         ****       lcd_write_register(R80,xsta);
 2781              		.loc 1 741 7 view .LVU593
 739:lcd.c         ****       unsigned int n;
 2782              		.loc 1 739 1 is_stmt 0 view .LVU594
 2783 0000 2DE9F041 		push	{r4, r5, r6, r7, r8, lr}
 2784              		.cfi_def_cfa_offset 24
 2785              		.cfi_offset 4, -24
 2786              		.cfi_offset 5, -20
 2787              		.cfi_offset 6, -16
 2788              		.cfi_offset 7, -12
 2789              		.cfi_offset 8, -8
 2790              		.cfi_offset 14, -4
 739:lcd.c         ****       unsigned int n;
 2791              		.loc 1 739 1 view .LVU595
 2792 0004 1546     		mov	r5, r2
 2793 0006 8846     		mov	r8, r1
 2794 0008 1E46     		mov	r6, r3
 2795 000a 0446     		mov	r4, r0
 2796              		.loc 1 741 7 view .LVU596
 2797 000c 0146     		mov	r1, r0
 2798              	.LVL355:
 2799              		.loc 1 741 7 view .LVU597
 2800 000e 5020     		movs	r0, #80
 2801              	.LVL356:
 739:lcd.c         ****       unsigned int n;
 2802              		.loc 1 739 1 view .LVU598
 2803 0010 BDF81870 		ldrh	r7, [sp, #24]
 2804              		.loc 1 741 7 view .LVU599
 2805 0014 FFF7FEFF 		bl	lcd_write_register
 2806              	.LVL357:
 742:lcd.c         ****       lcd_write_register(R81,xend);
 2807              		.loc 1 742 7 is_stmt 1 view .LVU600
 2808 0018 2946     		mov	r1, r5
 2809 001a 5120     		movs	r0, #81
 2810 001c FFF7FEFF 		bl	lcd_write_register
 2811              	.LVL358:
 743:lcd.c         ****       lcd_write_register(R82,ysta);
 2812              		.loc 1 743 7 view .LVU601
 2813 0020 4146     		mov	r1, r8
 2814 0022 5220     		movs	r0, #82
 2815 0024 FFF7FEFF 		bl	lcd_write_register
 2816              	.LVL359:
 744:lcd.c         ****       lcd_write_register(R83,yend);
 2817              		.loc 1 744 7 view .LVU602
 2818 0028 3146     		mov	r1, r6
 2819 002a 5320     		movs	r0, #83
 2820 002c FFF7FEFF 		bl	lcd_write_register
 2821              	.LVL360:
 745:lcd.c         ****       lcd_set_cursor(xsta,ysta);
 2822              		.loc 1 745 7 view .LVU603
 2823 0030 2046     		mov	r0, r4
 2824 0032 4146     		mov	r1, r8
 2825 0034 FFF7FEFF 		bl	lcd_set_cursor
 2826              	.LVL361:
 746:lcd.c         ****       lcd_write_ram_prepare();
 2827              		.loc 1 746 7 view .LVU604
 2828 0038 FFF7FEFF 		bl	lcd_write_ram_prepare
 2829              	.LVL362:
 747:lcd.c         ****       n = (unsigned int)(yend - ysta + 1) *(xend - xsta + 1);
 2830              		.loc 1 747 7 view .LVU605
 2831              		.loc 1 747 50 is_stmt 0 view .LVU606
 2832 003c 2C1B     		subs	r4, r5, r4
 2833              		.loc 1 747 31 view .LVU607
 2834 003e A6EB0806 		sub	r6, r6, r8
 2835              		.loc 1 747 57 view .LVU608
 2836 0042 0134     		adds	r4, r4, #1
 2837              		.loc 1 747 9 view .LVU609
 2838 0044 06FB0444 		mla	r4, r6, r4, r4
 2839              	.LVL363:
 748:lcd.c         ****       while (n--) {
 2840              		.loc 1 748 7 is_stmt 1 view .LVU610
 2841              	.L82:
 2842              		.loc 1 748 13 view .LVU611
 2843 0048 013C     		subs	r4, r4, #1
 2844              	.LVL364:
 2845              		.loc 1 748 13 is_stmt 0 view .LVU612
 2846 004a 12D2     		bcs	.L83
 749:lcd.c         ****       	    lcd_wr_data(color);
 750:lcd.c         ****       }
 751:lcd.c         ****       lcd_write_register(R80,0x0000);
 2847              		.loc 1 751 7 is_stmt 1 view .LVU613
 2848 004c 0021     		movs	r1, #0
 2849 004e 5020     		movs	r0, #80
 2850 0050 FFF7FEFF 		bl	lcd_write_register
 2851              	.LVL365:
 752:lcd.c         ****       lcd_write_register(R81,0x00EF);
 2852              		.loc 1 752 7 view .LVU614
 2853 0054 EF21     		movs	r1, #239
 2854 0056 5120     		movs	r0, #81
 2855 0058 FFF7FEFF 		bl	lcd_write_register
 2856              	.LVL366:
 753:lcd.c         ****       lcd_write_register(R82,0x0000);
 2857              		.loc 1 753 7 view .LVU615
 2858 005c 0021     		movs	r1, #0
 2859 005e 5220     		movs	r0, #82
 2860 0060 FFF7FEFF 		bl	lcd_write_register
 2861              	.LVL367:
 754:lcd.c         ****       lcd_write_register(R83,0x013F);
 2862              		.loc 1 754 7 view .LVU616
 755:lcd.c         **** }
 2863              		.loc 1 755 1 is_stmt 0 view .LVU617
 2864 0064 BDE8F041 		pop	{r4, r5, r6, r7, r8, lr}
 2865              		.cfi_remember_state
 2866              		.cfi_restore 14
 2867              		.cfi_restore 8
 2868              		.cfi_restore 7
 2869              		.cfi_restore 6
 2870              		.cfi_restore 5
 2871              		.cfi_restore 4
 2872              		.cfi_def_cfa_offset 0
 2873              	.LVL368:
 754:lcd.c         ****       lcd_write_register(R83,0x013F);
 2874              		.loc 1 754 7 view .LVU618
 2875 0068 40F23F11 		movw	r1, #319
 2876 006c 5320     		movs	r0, #83
 2877 006e FFF7FEBF 		b	lcd_write_register
 2878              	.LVL369:
 2879              	.L83:
 2880              		.cfi_restore_state
 749:lcd.c         ****       }
 2881              		.loc 1 749 12 is_stmt 1 view .LVU619
 2882 0072 3846     		mov	r0, r7
 2883 0074 FFF7FEFF 		bl	lcd_wr_data
 2884              	.LVL370:
 2885 0078 E6E7     		b	.L82
 2886              		.cfi_endproc
 2887              	.LFE61:
 2889              		.section	.text.lcd_draw_line,"ax",%progbits
 2890              		.align	1
 2891              		.global	lcd_draw_line
 2892              		.syntax unified
 2893              		.thumb
 2894              		.thumb_func
 2895              		.fpu softvfp
 2897              	lcd_draw_line:
 2898              	.LVL371:
 2899              	.LFB62:
 756:lcd.c         **** 
 757:lcd.c         **** 
 758:lcd.c         **** void lcd_draw_line (unsigned char x1, unsigned short y1, unsigned char x2, unsigned short y2)
 759:lcd.c         **** {
 2900              		.loc 1 759 1 view -0
 2901              		.cfi_startproc
 2902              		@ args = 0, pretend = 0, frame = 0
 2903              		@ frame_needed = 0, uses_anonymous_args = 0
 760:lcd.c         ****       unsigned short x, y, t;
 2904              		.loc 1 760 7 view .LVU621
 761:lcd.c         ****       if ((x1 == x2) && (y1 == y2)) lcd_set_pixel(x1, y1);
 2905              		.loc 1 761 7 view .LVU622
 2906              		.loc 1 761 10 is_stmt 0 view .LVU623
 2907 0000 9042     		cmp	r0, r2
 759:lcd.c         ****       unsigned short x, y, t;
 2908              		.loc 1 759 1 view .LVU624
 2909 0002 2DE9F843 		push	{r3, r4, r5, r6, r7, r8, r9, lr}
 2910              		.cfi_def_cfa_offset 32
 2911              		.cfi_offset 3, -32
 2912              		.cfi_offset 4, -28
 2913              		.cfi_offset 5, -24
 2914              		.cfi_offset 6, -20
 2915              		.cfi_offset 7, -16
 2916              		.cfi_offset 8, -12
 2917              		.cfi_offset 9, -8
 2918              		.cfi_offset 14, -4
 759:lcd.c         ****       unsigned short x, y, t;
 2919              		.loc 1 759 1 view .LVU625
 2920 0006 0546     		mov	r5, r0
 2921 0008 0C46     		mov	r4, r1
 2922 000a 1E46     		mov	r6, r3
 2923              		.loc 1 761 10 view .LVU626
 2924 000c 05D1     		bne	.L85
 2925              		.loc 1 761 22 discriminator 1 view .LVU627
 2926 000e 9942     		cmp	r1, r3
 2927 0010 03D1     		bne	.L85
 2928              		.loc 1 761 37 is_stmt 1 discriminator 2 view .LVU628
 762:lcd.c         ****       else if (abs(y2 - y1) > abs(x2 - x1)) {
 763:lcd.c         **** 	 if (y1 > y2) {
 764:lcd.c         **** 	    t = y1;
 765:lcd.c         ****   	    y1 = y2;
 766:lcd.c         **** 	    y2 = t;
 767:lcd.c         **** 	    t = x1;
 768:lcd.c         **** 	    x1 = x2;
 769:lcd.c         **** 	    x2 = t;
 770:lcd.c         ****          }
 771:lcd.c         **** 	 for (y=y1;y<y2;y++) {
 772:lcd.c         **** 	     x = (unsigned int)(y - y1) * (x2 - x1) / (y2 - y1) + x1;
 773:lcd.c         **** 	     lcd_set_pixel(x, y);
 774:lcd.c         **** 	 }
 775:lcd.c         ****       }	else {
 776:lcd.c         **** 	 if (x1 > x2) {
 777:lcd.c         **** 	    t = y1;
 778:lcd.c         ****    	    y1 = y2;
 779:lcd.c         ****      	    y2 = t;
 780:lcd.c         ****             t = x1;
 781:lcd.c         **** 	    x1 = x2;
 782:lcd.c         **** 	    x2 = t;
 783:lcd.c         **** 	 }
 784:lcd.c         **** 	 for (x=x1;x<=x2;x++) {
 785:lcd.c         **** 	     y =(unsigned int)(x - x1) * (y2 - y1) / (x2 - x1) + y1;
 786:lcd.c         **** 	     lcd_set_pixel(x,y);
 787:lcd.c         **** 	 }
 788:lcd.c         ****       }
 789:lcd.c         **** }
 2929              		.loc 1 789 1 is_stmt 0 discriminator 2 view .LVU629
 2930 0012 BDE8F843 		pop	{r3, r4, r5, r6, r7, r8, r9, lr}
 2931              		.cfi_remember_state
 2932              		.cfi_restore 14
 2933              		.cfi_restore 9
 2934              		.cfi_restore 8
 2935              		.cfi_restore 7
 2936              		.cfi_restore 6
 2937              		.cfi_restore 5
 2938              		.cfi_restore 4
 2939              		.cfi_restore 3
 2940              		.cfi_def_cfa_offset 0
 2941              	.LVL372:
 761:lcd.c         ****       else if (abs(y2 - y1) > abs(x2 - x1)) {
 2942              		.loc 1 761 37 discriminator 2 view .LVU630
 2943 0016 FFF7FEBF 		b	lcd_set_pixel
 2944              	.LVL373:
 2945              	.L85:
 2946              		.cfi_restore_state
 762:lcd.c         ****       else if (abs(y2 - y1) > abs(x2 - x1)) {
 2947              		.loc 1 762 12 is_stmt 1 view .LVU631
 762:lcd.c         ****       else if (abs(y2 - y1) > abs(x2 - x1)) {
 2948              		.loc 1 762 23 is_stmt 0 view .LVU632
 2949 001a 311B     		subs	r1, r6, r4
 2950              	.LVL374:
 762:lcd.c         ****       else if (abs(y2 - y1) > abs(x2 - x1)) {
 2951              		.loc 1 762 38 view .LVU633
 2952 001c 531B     		subs	r3, r2, r5
 2953              	.LVL375:
 762:lcd.c         ****       else if (abs(y2 - y1) > abs(x2 - x1)) {
 2954              		.loc 1 762 16 view .LVU634
 2955 001e 0029     		cmp	r1, #0
 2956 0020 B8BF     		it	lt
 2957 0022 4942     		rsblt	r1, r1, #0
 762:lcd.c         ****       else if (abs(y2 - y1) > abs(x2 - x1)) {
 2958              		.loc 1 762 31 view .LVU635
 2959 0024 002B     		cmp	r3, #0
 2960 0026 B8BF     		it	lt
 2961 0028 5B42     		rsblt	r3, r3, #0
 762:lcd.c         ****       else if (abs(y2 - y1) > abs(x2 - x1)) {
 2962              		.loc 1 762 15 view .LVU636
 2963 002a 9942     		cmp	r1, r3
 2964 002c 1BDD     		ble	.L86
 2965              	.LVL376:
 2966              	.LBB96:
 2967              	.LBI96:
 758:lcd.c         **** {
 2968              		.loc 1 758 6 is_stmt 1 view .LVU637
 2969              	.LBB97:
 763:lcd.c         **** 	    t = y1;
 2970              		.loc 1 763 3 view .LVU638
 763:lcd.c         **** 	    t = y1;
 2971              		.loc 1 763 6 is_stmt 0 view .LVU639
 2972 002e B442     		cmp	r4, r6
 2973 0030 05D9     		bls	.L87
 2974 0032 2346     		mov	r3, r4
 2975 0034 3446     		mov	r4, r6
 2976              	.LVL377:
 763:lcd.c         **** 	    t = y1;
 2977              		.loc 1 763 6 view .LVU640
 2978 0036 1E46     		mov	r6, r3
 2979              	.LVL378:
 763:lcd.c         **** 	    t = y1;
 2980              		.loc 1 763 6 view .LVU641
 2981 0038 2B46     		mov	r3, r5
 2982 003a 1546     		mov	r5, r2
 2983              	.LVL379:
 763:lcd.c         **** 	    t = y1;
 2984              		.loc 1 763 6 view .LVU642
 2985 003c 1A46     		mov	r2, r3
 2986              	.LVL380:
 2987              	.L87:
 771:lcd.c         **** 	     x = (unsigned int)(y - y1) * (x2 - x1) / (y2 - y1) + x1;
 2988              		.loc 1 771 3 is_stmt 1 view .LVU643
 771:lcd.c         **** 	     x = (unsigned int)(y - y1) * (x2 - x1) / (y2 - y1) + x1;
 2989              		.loc 1 771 3 is_stmt 0 view .LVU644
 2990 003e 0027     		movs	r7, #0
 2991 0040 A2EB0508 		sub	r8, r2, r5
 772:lcd.c         **** 	     lcd_set_pixel(x, y);
 2992              		.loc 1 772 52 view .LVU645
 2993 0044 A6EB0409 		sub	r9, r6, r4
 2994              	.LVL381:
 2995              	.L88:
 771:lcd.c         **** 	     x = (unsigned int)(y - y1) * (x2 - x1) / (y2 - y1) + x1;
 2996              		.loc 1 771 13 is_stmt 1 view .LVU646
 771:lcd.c         **** 	     x = (unsigned int)(y - y1) * (x2 - x1) / (y2 - y1) + x1;
 2997              		.loc 1 771 3 is_stmt 0 view .LVU647
 2998 0048 B442     		cmp	r4, r6
 2999 004a 01D3     		bcc	.L89
 3000              	.LVL382:
 3001              	.L84:
 771:lcd.c         **** 	     x = (unsigned int)(y - y1) * (x2 - x1) / (y2 - y1) + x1;
 3002              		.loc 1 771 3 view .LVU648
 3003              	.LBE97:
 3004              	.LBE96:
 3005              		.loc 1 789 1 view .LVU649
 3006 004c BDE8F883 		pop	{r3, r4, r5, r6, r7, r8, r9, pc}
 3007              	.LVL383:
 3008              	.L89:
 3009              	.LBB99:
 3010              	.LBB98:
 772:lcd.c         **** 	     lcd_set_pixel(x, y);
 3011              		.loc 1 772 7 is_stmt 1 view .LVU650
 773:lcd.c         **** 	 }
 3012              		.loc 1 773 7 view .LVU651
 772:lcd.c         **** 	     lcd_set_pixel(x, y);
 3013              		.loc 1 772 46 is_stmt 0 view .LVU652
 3014 0050 B7FBF9F0 		udiv	r0, r7, r9
 772:lcd.c         **** 	     lcd_set_pixel(x, y);
 3015              		.loc 1 772 9 view .LVU653
 3016 0054 2844     		add	r0, r0, r5
 773:lcd.c         **** 	 }
 3017              		.loc 1 773 7 view .LVU654
 3018 0056 2146     		mov	r1, r4
 3019 0058 C0B2     		uxtb	r0, r0
 771:lcd.c         **** 	     x = (unsigned int)(y - y1) * (x2 - x1) / (y2 - y1) + x1;
 3020              		.loc 1 771 19 view .LVU655
 3021 005a 0134     		adds	r4, r4, #1
 3022              	.LVL384:
 773:lcd.c         **** 	 }
 3023              		.loc 1 773 7 view .LVU656
 3024 005c FFF7FEFF 		bl	lcd_set_pixel
 3025              	.LVL385:
 771:lcd.c         **** 	     x = (unsigned int)(y - y1) * (x2 - x1) / (y2 - y1) + x1;
 3026              		.loc 1 771 18 is_stmt 1 view .LVU657
 771:lcd.c         **** 	     x = (unsigned int)(y - y1) * (x2 - x1) / (y2 - y1) + x1;
 3027              		.loc 1 771 19 is_stmt 0 view .LVU658
 3028 0060 A4B2     		uxth	r4, r4
 3029              	.LVL386:
 771:lcd.c         **** 	     x = (unsigned int)(y - y1) * (x2 - x1) / (y2 - y1) + x1;
 3030              		.loc 1 771 19 view .LVU659
 3031 0062 4744     		add	r7, r7, r8
 771:lcd.c         **** 	     x = (unsigned int)(y - y1) * (x2 - x1) / (y2 - y1) + x1;
 3032              		.loc 1 771 19 view .LVU660
 3033 0064 F0E7     		b	.L88
 3034              	.LVL387:
 3035              	.L86:
 771:lcd.c         **** 	     x = (unsigned int)(y - y1) * (x2 - x1) / (y2 - y1) + x1;
 3036              		.loc 1 771 19 view .LVU661
 3037              	.LBE98:
 3038              	.LBE99:
 776:lcd.c         **** 	    t = y1;
 3039              		.loc 1 776 3 is_stmt 1 view .LVU662
 776:lcd.c         **** 	    t = y1;
 3040              		.loc 1 776 6 is_stmt 0 view .LVU663
 3041 0066 9542     		cmp	r5, r2
 3042 0068 05D9     		bls	.L91
 3043 006a 2346     		mov	r3, r4
 3044 006c 3446     		mov	r4, r6
 3045 006e 1E46     		mov	r6, r3
 3046 0070 2B46     		mov	r3, r5
 3047 0072 1546     		mov	r5, r2
 3048 0074 1A46     		mov	r2, r3
 3049              	.LVL388:
 3050              	.L91:
 784:lcd.c         **** 	     y =(unsigned int)(x - x1) * (y2 - y1) / (x2 - x1) + y1;
 3051              		.loc 1 784 3 is_stmt 1 view .LVU664
 3052 0076 4FF00008 		mov	r8, #0
 784:lcd.c         **** 	     y =(unsigned int)(x - x1) * (y2 - y1) / (x2 - x1) + y1;
 3053              		.loc 1 784 9 is_stmt 0 view .LVU665
 3054 007a AFB2     		uxth	r7, r5
 3055              	.LVL389:
 784:lcd.c         **** 	     y =(unsigned int)(x - x1) * (y2 - y1) / (x2 - x1) + y1;
 3056              		.loc 1 784 9 view .LVU666
 3057 007c 361B     		subs	r6, r6, r4
 3058              	.LVL390:
 784:lcd.c         **** 	     y =(unsigned int)(x - x1) * (y2 - y1) / (x2 - x1) + y1;
 3059              		.loc 1 784 3 view .LVU667
 3060 007e 1FFA82F9 		uxth	r9, r2
 785:lcd.c         **** 	     lcd_set_pixel(x,y);
 3061              		.loc 1 785 51 view .LVU668
 3062 0082 551B     		subs	r5, r2, r5
 3063              	.LVL391:
 3064              	.L92:
 784:lcd.c         **** 	     y =(unsigned int)(x - x1) * (y2 - y1) / (x2 - x1) + y1;
 3065              		.loc 1 784 13 is_stmt 1 discriminator 1 view .LVU669
 784:lcd.c         **** 	     y =(unsigned int)(x - x1) * (y2 - y1) / (x2 - x1) + y1;
 3066              		.loc 1 784 3 is_stmt 0 discriminator 1 view .LVU670
 3067 0084 B945     		cmp	r9, r7
 3068 0086 E1D3     		bcc	.L84
 785:lcd.c         **** 	     lcd_set_pixel(x,y);
 3069              		.loc 1 785 7 is_stmt 1 discriminator 3 view .LVU671
 3070              	.LVL392:
 786:lcd.c         **** 	 }
 3071              		.loc 1 786 7 discriminator 3 view .LVU672
 785:lcd.c         **** 	     lcd_set_pixel(x,y);
 3072              		.loc 1 785 45 is_stmt 0 discriminator 3 view .LVU673
 3073 0088 B8FBF5F1 		udiv	r1, r8, r5
 785:lcd.c         **** 	     lcd_set_pixel(x,y);
 3074              		.loc 1 785 9 discriminator 3 view .LVU674
 3075 008c 2144     		add	r1, r1, r4
 786:lcd.c         **** 	 }
 3076              		.loc 1 786 7 discriminator 3 view .LVU675
 3077 008e F8B2     		uxtb	r0, r7
 3078 0090 89B2     		uxth	r1, r1
 784:lcd.c         **** 	     y =(unsigned int)(x - x1) * (y2 - y1) / (x2 - x1) + y1;
 3079              		.loc 1 784 20 discriminator 3 view .LVU676
 3080 0092 0137     		adds	r7, r7, #1
 3081              	.LVL393:
 786:lcd.c         **** 	 }
 3082              		.loc 1 786 7 discriminator 3 view .LVU677
 3083 0094 FFF7FEFF 		bl	lcd_set_pixel
 3084              	.LVL394:
 784:lcd.c         **** 	     y =(unsigned int)(x - x1) * (y2 - y1) / (x2 - x1) + y1;
 3085              		.loc 1 784 19 is_stmt 1 discriminator 3 view .LVU678
 784:lcd.c         **** 	     y =(unsigned int)(x - x1) * (y2 - y1) / (x2 - x1) + y1;
 3086              		.loc 1 784 20 is_stmt 0 discriminator 3 view .LVU679
 3087 0098 BFB2     		uxth	r7, r7
 3088              	.LVL395:
 784:lcd.c         **** 	     y =(unsigned int)(x - x1) * (y2 - y1) / (x2 - x1) + y1;
 3089              		.loc 1 784 20 discriminator 3 view .LVU680
 3090 009a B044     		add	r8, r8, r6
 784:lcd.c         **** 	     y =(unsigned int)(x - x1) * (y2 - y1) / (x2 - x1) + y1;
 3091              		.loc 1 784 20 discriminator 3 view .LVU681
 3092 009c F2E7     		b	.L92
 3093              		.cfi_endproc
 3094              	.LFE62:
 3096              		.section	.text.lcd_draw_rectangle,"ax",%progbits
 3097              		.align	1
 3098              		.global	lcd_draw_rectangle
 3099              		.syntax unified
 3100              		.thumb
 3101              		.thumb_func
 3102              		.fpu softvfp
 3104              	lcd_draw_rectangle:
 3105              	.LVL396:
 3106              	.LFB63:
 790:lcd.c         **** 
 791:lcd.c         **** 
 792:lcd.c         **** void lcd_draw_rectangle (unsigned char x1, unsigned short y1, unsigned char x2, unsigned short y2)
 793:lcd.c         **** {
 3107              		.loc 1 793 1 is_stmt 1 view -0
 3108              		.cfi_startproc
 3109              		@ args = 0, pretend = 0, frame = 0
 3110              		@ frame_needed = 0, uses_anonymous_args = 0
 794:lcd.c         ****       lcd_draw_line(x1,y1,x2,y1);
 3111              		.loc 1 794 7 view .LVU683
 793:lcd.c         ****       lcd_draw_line(x1,y1,x2,y1);
 3112              		.loc 1 793 1 is_stmt 0 view .LVU684
 3113 0000 2DE9F041 		push	{r4, r5, r6, r7, r8, lr}
 3114              		.cfi_def_cfa_offset 24
 3115              		.cfi_offset 4, -24
 3116              		.cfi_offset 5, -20
 3117              		.cfi_offset 6, -16
 3118              		.cfi_offset 7, -12
 3119              		.cfi_offset 8, -8
 3120              		.cfi_offset 14, -4
 793:lcd.c         ****       lcd_draw_line(x1,y1,x2,y1);
 3121              		.loc 1 793 1 view .LVU685
 3122 0004 1C46     		mov	r4, r3
 3123 0006 0646     		mov	r6, r0
 3124 0008 0D46     		mov	r5, r1
 3125 000a 1746     		mov	r7, r2
 3126              		.loc 1 794 7 view .LVU686
 3127 000c 0B46     		mov	r3, r1
 3128              	.LVL397:
 3129              		.loc 1 794 7 view .LVU687
 3130 000e FFF7FEFF 		bl	lcd_draw_line
 3131              	.LVL398:
 795:lcd.c         ****       lcd_draw_line(x1,y1,x1,y2);
 3132              		.loc 1 795 7 is_stmt 1 view .LVU688
 3133 0012 2346     		mov	r3, r4
 3134 0014 3246     		mov	r2, r6
 3135 0016 2946     		mov	r1, r5
 3136 0018 3046     		mov	r0, r6
 3137 001a FFF7FEFF 		bl	lcd_draw_line
 3138              	.LVL399:
 796:lcd.c         ****       lcd_draw_line(x1,y2,x2,y2);
 3139              		.loc 1 796 7 view .LVU689
 3140 001e 2346     		mov	r3, r4
 3141 0020 3A46     		mov	r2, r7
 3142 0022 2146     		mov	r1, r4
 3143 0024 3046     		mov	r0, r6
 3144 0026 FFF7FEFF 		bl	lcd_draw_line
 3145              	.LVL400:
 797:lcd.c         ****       lcd_draw_line(x2,y1,x2,y2);
 3146              		.loc 1 797 7 view .LVU690
 3147 002a 2346     		mov	r3, r4
 3148 002c 3A46     		mov	r2, r7
 3149 002e 2946     		mov	r1, r5
 3150 0030 3846     		mov	r0, r7
 798:lcd.c         **** }
 3151              		.loc 1 798 1 is_stmt 0 view .LVU691
 3152 0032 BDE8F041 		pop	{r4, r5, r6, r7, r8, lr}
 3153              		.cfi_restore 14
 3154              		.cfi_restore 8
 3155              		.cfi_restore 7
 3156              		.cfi_restore 6
 3157              		.cfi_restore 5
 3158              		.cfi_restore 4
 3159              		.cfi_def_cfa_offset 0
 797:lcd.c         ****       lcd_draw_line(x2,y1,x2,y2);
 3160              		.loc 1 797 7 view .LVU692
 3161 0036 FFF7FEBF 		b	lcd_draw_line
 3162              	.LVL401:
 3163              		.cfi_endproc
 3164              	.LFE63:
 3166              		.section	.text.lcd_draw_circle,"ax",%progbits
 3167              		.align	1
 3168              		.global	lcd_draw_circle
 3169              		.syntax unified
 3170              		.thumb
 3171              		.thumb_func
 3172              		.fpu softvfp
 3174              	lcd_draw_circle:
 3175              	.LVL402:
 3176              	.LFB64:
 799:lcd.c         **** 
 800:lcd.c         **** 
 801:lcd.c         **** void lcd_draw_circle (unsigned char x0,unsigned short y0,unsigned char r)
 802:lcd.c         **** {
 3177              		.loc 1 802 1 is_stmt 1 view -0
 3178              		.cfi_startproc
 3179              		@ args = 0, pretend = 0, frame = 24
 3180              		@ frame_needed = 0, uses_anonymous_args = 0
 803:lcd.c         ****       int a,b;
 3181              		.loc 1 803 7 view .LVU694
 804:lcd.c         ****       int di;
 3182              		.loc 1 804 7 view .LVU695
 805:lcd.c         ****       a = 0;
 3183              		.loc 1 805 7 view .LVU696
 806:lcd.c         ****       b = r;
 3184              		.loc 1 806 7 view .LVU697
 807:lcd.c         ****       di = 3 - (r << 1);
 3185              		.loc 1 807 7 view .LVU698
 802:lcd.c         ****       int a,b;
 3186              		.loc 1 802 1 is_stmt 0 view .LVU699
 3187 0000 2DE9F04F 		push	{r4, r5, r6, r7, r8, r9, r10, fp, lr}
 3188              		.cfi_def_cfa_offset 36
 3189              		.cfi_offset 4, -36
 3190              		.cfi_offset 5, -32
 3191              		.cfi_offset 6, -28
 3192              		.cfi_offset 7, -24
 3193              		.cfi_offset 8, -20
 3194              		.cfi_offset 9, -16
 3195              		.cfi_offset 10, -12
 3196              		.cfi_offset 11, -8
 3197              		.cfi_offset 14, -4
 3198 0004 0746     		mov	r7, r0
 3199 0006 8846     		mov	r8, r1
 3200 0008 1446     		mov	r4, r2
 805:lcd.c         ****       b = r;
 3201              		.loc 1 805 9 view .LVU700
 3202 000a 0026     		movs	r6, #0
 3203              		.loc 1 807 19 view .LVU701
 3204 000c 5500     		lsls	r5, r2, #1
 802:lcd.c         ****       int a,b;
 3205              		.loc 1 802 1 view .LVU702
 3206 000e 87B0     		sub	sp, sp, #28
 3207              		.cfi_def_cfa_offset 64
 3208              		.loc 1 807 10 view .LVU703
 3209 0010 C5F10305 		rsb	r5, r5, #3
 3210              	.LVL403:
 808:lcd.c         ****       while (a <= b) {
 3211              		.loc 1 808 7 is_stmt 1 view .LVU704
 3212              		.loc 1 808 13 view .LVU705
 3213              	.L99:
 809:lcd.c         **** 	    lcd_set_pixel(x0-b,y0-a);
 3214              		.loc 1 809 6 view .LVU706
 3215 0014 B3B2     		uxth	r3, r6
 3216 0016 5FFA84F9 		uxtb	r9, r4
 3217 001a A8EB030B 		sub	fp, r8, r3
 3218 001e A7EB090A 		sub	r10, r7, r9
 3219 0022 1FFA8BFB 		uxth	fp, fp
 3220 0026 5FFA8AFA 		uxtb	r10, r10
 810:lcd.c         **** 	    lcd_set_pixel(x0+b,y0-a);
 3221              		.loc 1 810 6 is_stmt 0 view .LVU707
 3222 002a B944     		add	r9, r9, r7
 809:lcd.c         **** 	    lcd_set_pixel(x0-b,y0-a);
 3223              		.loc 1 809 6 view .LVU708
 3224 002c 5946     		mov	r1, fp
 3225              		.loc 1 810 6 view .LVU709
 3226 002e 5FFA89F9 		uxtb	r9, r9
 809:lcd.c         **** 	    lcd_set_pixel(x0-b,y0-a);
 3227              		.loc 1 809 6 view .LVU710
 3228 0032 5046     		mov	r0, r10
 3229 0034 0393     		str	r3, [sp, #12]
 3230 0036 FFF7FEFF 		bl	lcd_set_pixel
 3231              	.LVL404:
 3232              		.loc 1 810 6 is_stmt 1 view .LVU711
 3233 003a 5946     		mov	r1, fp
 3234 003c 4846     		mov	r0, r9
 3235 003e FFF7FEFF 		bl	lcd_set_pixel
 3236              	.LVL405:
 811:lcd.c         **** 	    lcd_set_pixel(x0-a,y0+b);
 3237              		.loc 1 811 6 view .LVU712
 3238 0042 F3B2     		uxtb	r3, r6
 3239 0044 0293     		str	r3, [sp, #8]
 3240 0046 FA1A     		subs	r2, r7, r3
 3241 0048 A3B2     		uxth	r3, r4
 3242 004a 0193     		str	r3, [sp, #4]
 3243 004c 4344     		add	r3, r3, r8
 3244 004e D2B2     		uxtb	r2, r2
 3245 0050 9BB2     		uxth	r3, r3
 3246 0052 1946     		mov	r1, r3
 3247 0054 1046     		mov	r0, r2
 3248 0056 0593     		str	r3, [sp, #20]
 3249 0058 0492     		str	r2, [sp, #16]
 3250 005a FFF7FEFF 		bl	lcd_set_pixel
 3251              	.LVL406:
 812:lcd.c         **** 	    lcd_set_pixel(x0-b,y0-a);
 3252              		.loc 1 812 6 view .LVU713
 3253 005e 5946     		mov	r1, fp
 3254 0060 5046     		mov	r0, r10
 3255 0062 FFF7FEFF 		bl	lcd_set_pixel
 3256              	.LVL407:
 813:lcd.c         **** 	    lcd_set_pixel(x0-a,y0-b);
 3257              		.loc 1 813 6 view .LVU714
 3258 0066 019B     		ldr	r3, [sp, #4]
 3259 0068 049A     		ldr	r2, [sp, #16]
 3260 006a A8EB030B 		sub	fp, r8, r3
 3261 006e 1FFA8BFB 		uxth	fp, fp
 3262 0072 1046     		mov	r0, r2
 3263 0074 5946     		mov	r1, fp
 3264 0076 FFF7FEFF 		bl	lcd_set_pixel
 3265              	.LVL408:
 814:lcd.c         **** 	    lcd_set_pixel(x0+b,y0+a);
 3266              		.loc 1 814 6 view .LVU715
 3267 007a 039B     		ldr	r3, [sp, #12]
 3268 007c 4846     		mov	r0, r9
 3269 007e 08EB0302 		add	r2, r8, r3
 3270 0082 92B2     		uxth	r2, r2
 3271 0084 1146     		mov	r1, r2
 3272 0086 0192     		str	r2, [sp, #4]
 3273 0088 FFF7FEFF 		bl	lcd_set_pixel
 3274              	.LVL409:
 815:lcd.c         **** 	    lcd_set_pixel(x0+a,y0-b);
 3275              		.loc 1 815 6 view .LVU716
 3276 008c 029B     		ldr	r3, [sp, #8]
 3277 008e 5946     		mov	r1, fp
 3278 0090 03EB0709 		add	r9, r3, r7
 3279 0094 5FFA89F9 		uxtb	r9, r9
 3280 0098 4846     		mov	r0, r9
 3281 009a FFF7FEFF 		bl	lcd_set_pixel
 3282              	.LVL410:
 816:lcd.c         **** 	    lcd_set_pixel(x0+a,y0+b);
 3283              		.loc 1 816 6 view .LVU717
 3284 009e 059B     		ldr	r3, [sp, #20]
 3285 00a0 4846     		mov	r0, r9
 3286 00a2 1946     		mov	r1, r3
 3287 00a4 FFF7FEFF 		bl	lcd_set_pixel
 3288              	.LVL411:
 817:lcd.c         **** 	    lcd_set_pixel(x0-b,y0+a);
 3289              		.loc 1 817 6 view .LVU718
 3290 00a8 019A     		ldr	r2, [sp, #4]
 3291 00aa 5046     		mov	r0, r10
 3292 00ac 1146     		mov	r1, r2
 3293 00ae FFF7FEFF 		bl	lcd_set_pixel
 3294              	.LVL412:
 818:lcd.c         **** 	    a++;
 3295              		.loc 1 818 6 view .LVU719
 3296              		.loc 1 818 7 is_stmt 0 view .LVU720
 3297 00b2 0136     		adds	r6, r6, #1
 3298              	.LVL413:
 819:lcd.c         **** 	    if (di < 0) {
 3299              		.loc 1 819 6 is_stmt 1 view .LVU721
 3300              		.loc 1 819 9 is_stmt 0 view .LVU722
 3301 00b4 002D     		cmp	r5, #0
 820:lcd.c         **** 	       di += 4 * a + 6;
 3302              		.loc 1 820 9 is_stmt 1 view .LVU723
 821:lcd.c         **** 	    } else {
 822:lcd.c         **** 	       di += 10 + 4 * (a - b);
 3303              		.loc 1 822 27 is_stmt 0 view .LVU724
 3304 00b6 A4BF     		itt	ge
 3305 00b8 331B     		subge	r3, r6, r4
 823:lcd.c         **** 	       b--;
 3306              		.loc 1 823 10 view .LVU725
 3307 00ba 04F1FF34 		addge	r4, r4, #-1
 3308              	.LVL414:
 824:lcd.c         **** 	    }
 825:lcd.c         **** 	    lcd_set_pixel(x0+a,y0+b);
 3309              		.loc 1 825 6 view .LVU726
 3310 00be 08EB0401 		add	r1, r8, r4
 3311 00c2 07EB0600 		add	r0, r7, r6
 820:lcd.c         **** 	    } else {
 3312              		.loc 1 820 12 view .LVU727
 3313 00c6 B4BF     		ite	lt
 3314 00c8 05EB8605 		addlt	r5, r5, r6, lsl #2
 3315              	.LVL415:
 822:lcd.c         **** 	       b--;
 3316              		.loc 1 822 18 view .LVU728
 3317 00cc 05EB8305 		addge	r5, r5, r3, lsl #2
 3318              		.loc 1 825 6 view .LVU729
 3319 00d0 89B2     		uxth	r1, r1
 3320 00d2 C0B2     		uxtb	r0, r0
 820:lcd.c         **** 	    } else {
 3321              		.loc 1 820 12 view .LVU730
 3322 00d4 B4BF     		ite	lt
 3323 00d6 0635     		addlt	r5, r5, #6
 822:lcd.c         **** 	       b--;
 3324              		.loc 1 822 9 is_stmt 1 view .LVU731
 822:lcd.c         **** 	       b--;
 3325              		.loc 1 822 12 is_stmt 0 view .LVU732
 3326 00d8 0A35     		addge	r5, r5, #10
 3327              	.LVL416:
 823:lcd.c         **** 	    }
 3328              		.loc 1 823 9 is_stmt 1 view .LVU733
 3329              		.loc 1 825 6 view .LVU734
 3330 00da FFF7FEFF 		bl	lcd_set_pixel
 3331              	.LVL417:
 808:lcd.c         **** 	    lcd_set_pixel(x0-b,y0-a);
 3332              		.loc 1 808 13 view .LVU735
 3333 00de B442     		cmp	r4, r6
 3334 00e0 98DA     		bge	.L99
 826:lcd.c         ****       }
 827:lcd.c         **** }
 3335              		.loc 1 827 1 is_stmt 0 view .LVU736
 3336 00e2 07B0     		add	sp, sp, #28
 3337              		.cfi_def_cfa_offset 36
 3338              		@ sp needed
 3339 00e4 BDE8F08F 		pop	{r4, r5, r6, r7, r8, r9, r10, fp, pc}
 3340              		.loc 1 827 1 view .LVU737
 3341              		.cfi_endproc
 3342              	.LFE64:
 3344              		.section	.text.set_color,"ax",%progbits
 3345              		.align	1
 3346              		.global	set_color
 3347              		.syntax unified
 3348              		.thumb
 3349              		.thumb_func
 3350              		.fpu softvfp
 3352              	set_color:
 3353              	.LVL418:
 3354              	.LFB65:
 828:lcd.c         **** 
 829:lcd.c         **** 
 830:lcd.c         **** void set_color (unsigned short color)
 831:lcd.c         **** {
 3355              		.loc 1 831 1 is_stmt 1 view -0
 3356              		.cfi_startproc
 3357              		@ args = 0, pretend = 0, frame = 0
 3358              		@ frame_needed = 0, uses_anonymous_args = 0
 3359              		@ link register save eliminated.
 832:lcd.c         ****       foreground_color = color;
 3360              		.loc 1 832 7 view .LVU739
 3361              		.loc 1 832 24 is_stmt 0 view .LVU740
 3362 0000 014B     		ldr	r3, .L102
 3363 0002 1880     		strh	r0, [r3]	@ movhi
 833:lcd.c         **** }
 3364              		.loc 1 833 1 view .LVU741
 3365 0004 7047     		bx	lr
 3366              	.L103:
 3367 0006 00BF     		.align	2
 3368              	.L102:
 3369 0008 00000000 		.word	foreground_color
 3370              		.cfi_endproc
 3371              	.LFE65:
 3373              		.section	.text.set_background_color,"ax",%progbits
 3374              		.align	1
 3375              		.global	set_background_color
 3376              		.syntax unified
 3377              		.thumb
 3378              		.thumb_func
 3379              		.fpu softvfp
 3381              	set_background_color:
 3382              	.LVL419:
 3383              	.LFB66:
 834:lcd.c         **** 
 835:lcd.c         **** 
 836:lcd.c         **** void set_background_color (unsigned short color)
 837:lcd.c         **** {
 3384              		.loc 1 837 1 is_stmt 1 view -0
 3385              		.cfi_startproc
 3386              		@ args = 0, pretend = 0, frame = 0
 3387              		@ frame_needed = 0, uses_anonymous_args = 0
 3388              		@ link register save eliminated.
 838:lcd.c         ****       background_color = color;
 3389              		.loc 1 838 7 view .LVU743
 3390              		.loc 1 838 24 is_stmt 0 view .LVU744
 3391 0000 014B     		ldr	r3, .L105
 3392 0002 1880     		strh	r0, [r3]	@ movhi
 839:lcd.c         **** }
 3393              		.loc 1 839 1 view .LVU745
 3394 0004 7047     		bx	lr
 3395              	.L106:
 3396 0006 00BF     		.align	2
 3397              	.L105:
 3398 0008 00000000 		.word	background_color
 3399              		.cfi_endproc
 3400              	.LFE66:
 3402              		.section	.text.set_pixel,"ax",%progbits
 3403              		.align	1
 3404              		.global	set_pixel
 3405              		.syntax unified
 3406              		.thumb
 3407              		.thumb_func
 3408              		.fpu softvfp
 3410              	set_pixel:
 3411              	.LVL420:
 3412              	.LFB67:
 840:lcd.c         **** 
 841:lcd.c         **** 
 842:lcd.c         **** void set_pixel (unsigned short x, unsigned short y, unsigned short color)
 843:lcd.c         **** {
 3413              		.loc 1 843 1 is_stmt 1 view -0
 3414              		.cfi_startproc
 3415              		@ args = 0, pretend = 0, frame = 0
 3416              		@ frame_needed = 0, uses_anonymous_args = 0
 844:lcd.c         ****       unsigned short temp = foreground_color;
 3417              		.loc 1 844 7 view .LVU747
 843:lcd.c         ****       unsigned short temp = foreground_color;
 3418              		.loc 1 843 1 is_stmt 0 view .LVU748
 3419 0000 38B5     		push	{r3, r4, r5, lr}
 3420              		.cfi_def_cfa_offset 16
 3421              		.cfi_offset 3, -16
 3422              		.cfi_offset 4, -12
 3423              		.cfi_offset 5, -8
 3424              		.cfi_offset 14, -4
 3425              		.loc 1 844 22 view .LVU749
 3426 0002 044C     		ldr	r4, .L108
 845:lcd.c         ****       foreground_color = color;
 846:lcd.c         ****       lcd_set_pixel(x,y);
 3427              		.loc 1 846 7 view .LVU750
 3428 0004 C0B2     		uxtb	r0, r0
 3429              	.LVL421:
 844:lcd.c         ****       foreground_color = color;
 3430              		.loc 1 844 22 view .LVU751
 3431 0006 2588     		ldrh	r5, [r4]
 3432              	.LVL422:
 845:lcd.c         ****       foreground_color = color;
 3433              		.loc 1 845 7 is_stmt 1 view .LVU752
 845:lcd.c         ****       foreground_color = color;
 3434              		.loc 1 845 24 is_stmt 0 view .LVU753
 3435 0008 2280     		strh	r2, [r4]	@ movhi
 3436              		.loc 1 846 7 is_stmt 1 view .LVU754
 3437 000a FFF7FEFF 		bl	lcd_set_pixel
 3438              	.LVL423:
 847:lcd.c         ****       foreground_color = temp;
 3439              		.loc 1 847 7 view .LVU755
 3440              		.loc 1 847 24 is_stmt 0 view .LVU756
 3441 000e 2580     		strh	r5, [r4]	@ movhi
 848:lcd.c         **** }
 3442              		.loc 1 848 1 view .LVU757
 3443 0010 38BD     		pop	{r3, r4, r5, pc}
 3444              	.LVL424:
 3445              	.L109:
 3446              		.loc 1 848 1 view .LVU758
 3447 0012 00BF     		.align	2
 3448              	.L108:
 3449 0014 00000000 		.word	foreground_color
 3450              		.cfi_endproc
 3451              	.LFE67:
 3453              		.section	.text.out_lcd,"ax",%progbits
 3454              		.align	1
 3455              		.global	out_lcd
 3456              		.syntax unified
 3457              		.thumb
 3458              		.thumb_func
 3459              		.fpu softvfp
 3461              	out_lcd:
 3462              	.LVL425:
 3463              	.LFB68:
 849:lcd.c         **** 
 850:lcd.c         **** 
 851:lcd.c         **** void out_lcd (char wchar)
 852:lcd.c         **** {
 3464              		.loc 1 852 1 is_stmt 1 view -0
 3465              		.cfi_startproc
 3466              		@ args = 0, pretend = 0, frame = 0
 3467              		@ frame_needed = 0, uses_anonymous_args = 0
 853:lcd.c         ****       int idx;
 3468              		.loc 1 853 7 view .LVU760
 854:lcd.c         ****       for (idx=0;idx<8;idx++) {
 3469              		.loc 1 854 7 view .LVU761
 3470              		.loc 1 854 18 view .LVU762
 852:lcd.c         ****       int idx;
 3471              		.loc 1 852 1 is_stmt 0 view .LVU763
 3472 0000 2DE9F843 		push	{r3, r4, r5, r6, r7, r8, r9, lr}
 3473              		.cfi_def_cfa_offset 32
 3474              		.cfi_offset 3, -32
 3475              		.cfi_offset 4, -28
 3476              		.cfi_offset 5, -24
 3477              		.cfi_offset 6, -20
 3478              		.cfi_offset 7, -16
 3479              		.cfi_offset 8, -12
 3480              		.cfi_offset 9, -8
 3481              		.cfi_offset 14, -4
 3482 0004 DFF84480 		ldr	r8, .L116+12
 852:lcd.c         ****       int idx;
 3483              		.loc 1 852 1 view .LVU764
 3484 0008 0546     		mov	r5, r0
 3485              		.loc 1 854 15 view .LVU765
 3486 000a 0024     		movs	r4, #0
 3487 000c 4646     		mov	r6, r8
 3488 000e 0C4F     		ldr	r7, .L116
 3489 0010 DFF83C90 		ldr	r9, .L116+16
 3490              	.LVL426:
 3491              	.L113:
 855:lcd.c         ****           if ((s_bit[idx] & wchar) == 0) set_pixel(tx,ty,background_color); else set_pixel(tx,ty,fo
 3492              		.loc 1 855 11 is_stmt 1 view .LVU766
 3493              		.loc 1 855 21 is_stmt 0 view .LVU767
 3494 0014 17F8013B 		ldrb	r3, [r7], #1	@ zero_extendqisi2
 3495 0018 B8F80000 		ldrh	r0, [r8]
 3496              		.loc 1 855 14 view .LVU768
 3497 001c 2B42     		tst	r3, r5
 3498              		.loc 1 855 42 is_stmt 1 view .LVU769
 3499 001e 0CBF     		ite	eq
 3500 0020 084B     		ldreq	r3, .L116+4
 3501              		.loc 1 855 82 view .LVU770
 3502 0022 094B     		ldrne	r3, .L116+8
 3503 0024 B9F80010 		ldrh	r1, [r9]
 3504 0028 1A88     		ldrh	r2, [r3]
 3505 002a FFF7FEFF 		bl	set_pixel
 3506              	.LVL427:
 856:lcd.c         ****           tx++;
 3507              		.loc 1 856 11 view .LVU771
 3508              		.loc 1 856 13 is_stmt 0 view .LVU772
 3509 002e 3388     		ldrh	r3, [r6]
 854:lcd.c         ****           if ((s_bit[idx] & wchar) == 0) set_pixel(tx,ty,background_color); else set_pixel(tx,ty,fo
 3510              		.loc 1 854 27 view .LVU773
 3511 0030 0134     		adds	r4, r4, #1
 3512              	.LVL428:
 3513              		.loc 1 856 13 view .LVU774
 3514 0032 0133     		adds	r3, r3, #1
 854:lcd.c         ****           if ((s_bit[idx] & wchar) == 0) set_pixel(tx,ty,background_color); else set_pixel(tx,ty,fo
 3515              		.loc 1 854 7 view .LVU775
 3516 0034 082C     		cmp	r4, #8
 3517              		.loc 1 856 13 view .LVU776
 3518 0036 3380     		strh	r3, [r6]	@ movhi
 854:lcd.c         ****           if ((s_bit[idx] & wchar) == 0) set_pixel(tx,ty,background_color); else set_pixel(tx,ty,fo
 3519              		.loc 1 854 24 is_stmt 1 view .LVU777
 3520              	.LVL429:
 854:lcd.c         ****           if ((s_bit[idx] & wchar) == 0) set_pixel(tx,ty,background_color); else set_pixel(tx,ty,fo
 3521              		.loc 1 854 18 view .LVU778
 854:lcd.c         ****           if ((s_bit[idx] & wchar) == 0) set_pixel(tx,ty,background_color); else set_pixel(tx,ty,fo
 3522              		.loc 1 854 7 is_stmt 0 view .LVU779
 3523 0038 ECD1     		bne	.L113
 857:lcd.c         ****       }
 858:lcd.c         **** }
 3524              		.loc 1 858 1 view .LVU780
 3525 003a BDE8F883 		pop	{r3, r4, r5, r6, r7, r8, r9, pc}
 3526              	.LVL430:
 3527              	.L117:
 3528              		.loc 1 858 1 view .LVU781
 3529 003e 00BF     		.align	2
 3530              	.L116:
 3531 0040 00000000 		.word	.LANCHOR0
 3532 0044 00000000 		.word	background_color
 3533 0048 00000000 		.word	foreground_color
 3534 004c 00000000 		.word	tx
 3535 0050 00000000 		.word	ty
 3536              		.cfi_endproc
 3537              	.LFE68:
 3539              		.section	.text.uni_to_kssm2,"ax",%progbits
 3540              		.align	1
 3541              		.global	uni_to_kssm2
 3542              		.syntax unified
 3543              		.thumb
 3544              		.thumb_func
 3545              		.fpu softvfp
 3547              	uni_to_kssm2:
 3548              	.LVL431:
 3549              	.LFB69:
 859:lcd.c         **** 
 860:lcd.c         **** 
 861:lcd.c         **** unsigned short uni_to_kssm2 (unsigned short wchar)
 862:lcd.c         **** {
 3550              		.loc 1 862 1 is_stmt 1 view -0
 3551              		.cfi_startproc
 3552              		@ args = 0, pretend = 0, frame = 0
 3553              		@ frame_needed = 0, uses_anonymous_args = 0
 3554              		@ link register save eliminated.
 863:lcd.c         ****       unsigned short cho_sung,jung_sung,jong_sung,unicode;
 3555              		.loc 1 863 7 view .LVU783
 864:lcd.c         ****       unsigned short temp = 0x0000;
 3556              		.loc 1 864 7 view .LVU784
 865:lcd.c         ****       unsigned short unicode_hangul_base = 0xAC00;
 3557              		.loc 1 865 7 view .LVU785
 866:lcd.c         ****       unsigned short unicode_hangul_last = 0xD79F;
 3558              		.loc 1 866 7 view .LVU786
 867:lcd.c         ****       unsigned short cho,jung,jong,result;
 3559              		.loc 1 867 7 view .LVU787
 868:lcd.c         ****       temp = wchar;
 3560              		.loc 1 868 7 view .LVU788
 869:lcd.c         ****       if ((temp < unicode_hangul_base) || (temp > unicode_hangul_last)) return temp;
 3561              		.loc 1 869 7 view .LVU789
 3562              		.loc 1 869 10 is_stmt 0 view .LVU790
 3563 0000 00F5A843 		add	r3, r0, #21504
 3564 0004 9AB2     		uxth	r2, r3
 3565 0006 42F69F33 		movw	r3, #11167
 3566 000a 9A42     		cmp	r2, r3
 3567 000c 18D8     		bhi	.L119
 870:lcd.c         ****       unicode = temp - unicode_hangul_base;
 3568              		.loc 1 870 7 is_stmt 1 view .LVU791
 3569              	.LVL432:
 871:lcd.c         ****       cho_sung = unicode / (21 * 28);
 3570              		.loc 1 871 7 view .LVU792
 872:lcd.c         ****       unicode = unicode % (21 * 28);
 3571              		.loc 1 872 7 view .LVU793
 3572              		.loc 1 872 15 is_stmt 0 view .LVU794
 3573 000e 4FF41373 		mov	r3, #588
 3574 0012 B2FBF3F1 		udiv	r1, r2, r3
 3575 0016 03FB1123 		mls	r3, r3, r1, r2
 873:lcd.c         ****       jung_sung = unicode / 28;
 3576              		.loc 1 873 17 view .LVU795
 3577 001a 1C22     		movs	r2, #28
 3578              	.LVL433:
 872:lcd.c         ****       unicode = unicode % (21 * 28);
 3579              		.loc 1 872 15 view .LVU796
 3580 001c 9BB2     		uxth	r3, r3
 3581              	.LVL434:
 3582              		.loc 1 873 7 is_stmt 1 view .LVU797
 874:lcd.c         ****       unicode = unicode % 28;
 3583              		.loc 1 874 7 view .LVU798
 875:lcd.c         ****       jong_sung = unicode;
 3584              		.loc 1 875 7 view .LVU799
 876:lcd.c         ****       cho = hangul_chosung_tbl[cho_sung];
 3585              		.loc 1 876 7 view .LVU800
 877:lcd.c         ****       jung = hangul_jungsung_tbl[jung_sung];
 3586              		.loc 1 877 7 view .LVU801
 878:lcd.c         ****       jong = hangul_jongsung_tbl[jong_sung];
 3587              		.loc 1 878 7 view .LVU802
 879:lcd.c         ****       result = (cho | jung | jong);
 3588              		.loc 1 879 7 view .LVU803
 873:lcd.c         ****       unicode = unicode % 28;
 3589              		.loc 1 873 17 is_stmt 0 view .LVU804
 3590 001e B3FBF2F0 		udiv	r0, r3, r2
 3591              	.LVL435:
 874:lcd.c         ****       jong_sung = unicode;
 3592              		.loc 1 874 15 view .LVU805
 3593 0022 02FB1033 		mls	r3, r2, r0, r3
 3594              	.LVL436:
 3595              		.loc 1 879 14 view .LVU806
 3596 0026 074A     		ldr	r2, .L120
 878:lcd.c         ****       result = (cho | jung | jong);
 3597              		.loc 1 878 33 view .LVU807
 3598 0028 9BB2     		uxth	r3, r3
 3599              		.loc 1 879 14 view .LVU808
 3600 002a 32F81000 		ldrh	r0, [r2, r0, lsl #1]
 3601 002e 064A     		ldr	r2, .L120+4
 3602 0030 32F81330 		ldrh	r3, [r2, r3, lsl #1]
 3603 0034 1843     		orrs	r0, r0, r3
 3604 0036 054B     		ldr	r3, .L120+8
 3605 0038 33F81130 		ldrh	r3, [r3, r1, lsl #1]
 3606 003c 1843     		orrs	r0, r0, r3
 3607 003e 80B2     		uxth	r0, r0
 3608              	.LVL437:
 880:lcd.c         ****       return result;
 3609              		.loc 1 880 7 is_stmt 1 view .LVU809
 3610              	.L119:
 881:lcd.c         **** }
 3611              		.loc 1 881 1 is_stmt 0 view .LVU810
 3612 0040 7047     		bx	lr
 3613              	.L121:
 3614 0042 00BF     		.align	2
 3615              	.L120:
 3616 0044 00000000 		.word	.LANCHOR1
 3617 0048 00000000 		.word	.LANCHOR2
 3618 004c 00000000 		.word	.LANCHOR3
 3619              		.cfi_endproc
 3620              	.LFE69:
 3622              		.section	.text.uni_to_kssm,"ax",%progbits
 3623              		.align	1
 3624              		.global	uni_to_kssm
 3625              		.syntax unified
 3626              		.thumb
 3627              		.thumb_func
 3628              		.fpu softvfp
 3630              	uni_to_kssm:
 3631              	.LVL438:
 3632              	.LFB70:
 882:lcd.c         **** 
 883:lcd.c         **** 
 884:lcd.c         **** unsigned short uni_to_kssm (unsigned short wchar)
 885:lcd.c         **** {
 3633              		.loc 1 885 1 is_stmt 1 view -0
 3634              		.cfi_startproc
 3635              		@ args = 0, pretend = 0, frame = 0
 3636              		@ frame_needed = 0, uses_anonymous_args = 0
 886:lcd.c         ****       unsigned short cho,joong,jong;
 3637              		.loc 1 886 7 view .LVU812
 887:lcd.c         ****       unsigned short result = 0x8000;
 3638              		.loc 1 887 7 view .LVU813
 888:lcd.c         ****       cho = 2 + (wchar - 0xAC00) / (21 * 28);
 3639              		.loc 1 888 7 view .LVU814
 885:lcd.c         ****       unsigned short cho,joong,jong;
 3640              		.loc 1 885 1 is_stmt 0 view .LVU815
 3641 0000 30B5     		push	{r4, r5, lr}
 3642              		.cfi_def_cfa_offset 12
 3643              		.cfi_offset 4, -12
 3644              		.cfi_offset 5, -8
 3645              		.cfi_offset 14, -4
 3646              		.loc 1 888 34 view .LVU816
 3647 0002 4FF41375 		mov	r5, #588
 3648              		.loc 1 888 24 view .LVU817
 3649 0006 A0F52C44 		sub	r4, r0, #44032
 3650              		.loc 1 888 34 view .LVU818
 3651 000a 94FBF5F2 		sdiv	r2, r4, r5
 3652              		.loc 1 888 11 view .LVU819
 3653 000e 931C     		adds	r3, r2, #2
 3654 0010 99B2     		uxth	r1, r3
 3655              	.LVL439:
 889:lcd.c         ****       joong = (wchar - 0xAC00) % (21 * 28) / 28;
 3656              		.loc 1 889 7 is_stmt 1 view .LVU820
 3657              		.loc 1 889 44 is_stmt 0 view .LVU821
 3658 0012 1C23     		movs	r3, #28
 3659              		.loc 1 889 32 view .LVU822
 3660 0014 05FB1242 		mls	r2, r5, r2, r4
 3661              		.loc 1 889 44 view .LVU823
 3662 0018 92FBF3F3 		sdiv	r3, r2, r3
 3663              		.loc 1 889 13 view .LVU824
 3664 001c 9BB2     		uxth	r3, r3
 3665              	.LVL440:
 890:lcd.c         ****       if (joong < 5) joong += 3;
 3666              		.loc 1 890 7 is_stmt 1 view .LVU825
 3667              		.loc 1 890 10 is_stmt 0 view .LVU826
 3668 001e 042B     		cmp	r3, #4
 3669 0020 16D8     		bhi	.L123
 3670              		.loc 1 890 22 is_stmt 1 discriminator 1 view .LVU827
 3671              		.loc 1 890 28 is_stmt 0 discriminator 1 view .LVU828
 3672 0022 0333     		adds	r3, r3, #3
 3673              	.LVL441:
 3674              	.L129:
 891:lcd.c         ****       else if (joong < 11) joong += 5;
 892:lcd.c         ****       else if (joong < 17) joong += 7;
 893:lcd.c         ****       else joong += 9;
 894:lcd.c         ****       jong  = (wchar - 0xAC00) % 28;
 3675              		.loc 1 894 32 view .LVU829
 3676 0024 1C22     		movs	r2, #28
 3677              	.LVL442:
 893:lcd.c         ****       jong  = (wchar - 0xAC00) % 28;
 3678              		.loc 1 893 18 view .LVU830
 3679 0026 9BB2     		uxth	r3, r3
 3680              	.LVL443:
 3681              		.loc 1 894 7 is_stmt 1 view .LVU831
 895:lcd.c         ****       if (jong < 17) jong++;
 896:lcd.c         ****       else jong += 2;
 897:lcd.c         ****       result |= cho << 10;
 898:lcd.c         ****       result |= joong << 5;
 3682              		.loc 1 898 23 is_stmt 0 view .LVU832
 3683 0028 5B01     		lsls	r3, r3, #5
 3684              	.LVL444:
 3685              		.loc 1 898 14 view .LVU833
 3686 002a 43EA8123 		orr	r3, r3, r1, lsl #10
 3687 002e 6FEA4343 		mvn	r3, r3, lsl #17
 894:lcd.c         ****       if (jong < 17) jong++;
 3688              		.loc 1 894 32 view .LVU834
 3689 0032 94FBF2F0 		sdiv	r0, r4, r2
 3690              	.LVL445:
 3691              		.loc 1 898 14 view .LVU835
 3692 0036 6FEA5343 		mvn	r3, r3, lsr #17
 894:lcd.c         ****       if (jong < 17) jong++;
 3693              		.loc 1 894 32 view .LVU836
 3694 003a 02FB1040 		mls	r0, r2, r0, r4
 894:lcd.c         ****       if (jong < 17) jong++;
 3695              		.loc 1 894 13 view .LVU837
 3696 003e 80B2     		uxth	r0, r0
 3697              	.LVL446:
 895:lcd.c         ****       if (jong < 17) jong++;
 3698              		.loc 1 895 7 is_stmt 1 view .LVU838
 895:lcd.c         ****       if (jong < 17) jong++;
 3699              		.loc 1 895 10 is_stmt 0 view .LVU839
 3700 0040 1028     		cmp	r0, #16
 895:lcd.c         ****       if (jong < 17) jong++;
 3701              		.loc 1 895 22 is_stmt 1 view .LVU840
 895:lcd.c         ****       if (jong < 17) jong++;
 3702              		.loc 1 895 26 is_stmt 0 view .LVU841
 3703 0042 94BF     		ite	ls
 3704 0044 0130     		addls	r0, r0, #1
 3705              	.LVL447:
 896:lcd.c         ****       result |= cho << 10;
 3706              		.loc 1 896 12 is_stmt 1 view .LVU842
 896:lcd.c         ****       result |= cho << 10;
 3707              		.loc 1 896 17 is_stmt 0 view .LVU843
 3708 0046 0230     		addhi	r0, r0, #2
 3709              		.loc 1 898 14 view .LVU844
 3710 0048 9BB2     		uxth	r3, r3
 896:lcd.c         ****       result |= cho << 10;
 3711              		.loc 1 896 17 view .LVU845
 3712 004a 80B2     		uxth	r0, r0
 3713              	.LVL448:
 897:lcd.c         ****       result |= joong << 5;
 3714              		.loc 1 897 7 is_stmt 1 view .LVU846
 3715              		.loc 1 898 7 view .LVU847
 899:lcd.c         ****       result |= jong;
 3716              		.loc 1 899 7 view .LVU848
 900:lcd.c         ****       return result;
 3717              		.loc 1 900 7 view .LVU849
 901:lcd.c         **** }
 3718              		.loc 1 901 1 is_stmt 0 view .LVU850
 3719 004c 1843     		orrs	r0, r0, r3
 3720              	.LVL449:
 3721              		.loc 1 901 1 view .LVU851
 3722 004e 30BD     		pop	{r4, r5, pc}
 3723              	.LVL450:
 3724              	.L123:
 891:lcd.c         ****       else if (joong < 17) joong += 7;
 3725              		.loc 1 891 12 is_stmt 1 view .LVU852
 891:lcd.c         ****       else if (joong < 17) joong += 7;
 3726              		.loc 1 891 15 is_stmt 0 view .LVU853
 3727 0050 0A2B     		cmp	r3, #10
 3728 0052 01D8     		bhi	.L125
 891:lcd.c         ****       else if (joong < 17) joong += 7;
 3729              		.loc 1 891 28 is_stmt 1 discriminator 1 view .LVU854
 891:lcd.c         ****       else if (joong < 17) joong += 7;
 3730              		.loc 1 891 34 is_stmt 0 discriminator 1 view .LVU855
 3731 0054 0533     		adds	r3, r3, #5
 3732              	.LVL451:
 891:lcd.c         ****       else if (joong < 17) joong += 7;
 3733              		.loc 1 891 34 discriminator 1 view .LVU856
 3734 0056 E5E7     		b	.L129
 3735              	.LVL452:
 3736              	.L125:
 892:lcd.c         ****       else joong += 9;
 3737              		.loc 1 892 12 is_stmt 1 view .LVU857
 892:lcd.c         ****       else joong += 9;
 3738              		.loc 1 892 15 is_stmt 0 view .LVU858
 3739 0058 102B     		cmp	r3, #16
 892:lcd.c         ****       else joong += 9;
 3740              		.loc 1 892 28 is_stmt 1 view .LVU859
 892:lcd.c         ****       else joong += 9;
 3741              		.loc 1 892 34 is_stmt 0 view .LVU860
 3742 005a 94BF     		ite	ls
 3743 005c 0733     		addls	r3, r3, #7
 3744              	.LVL453:
 893:lcd.c         ****       jong  = (wchar - 0xAC00) % 28;
 3745              		.loc 1 893 12 is_stmt 1 view .LVU861
 893:lcd.c         ****       jong  = (wchar - 0xAC00) % 28;
 3746              		.loc 1 893 18 is_stmt 0 view .LVU862
 3747 005e 0933     		addhi	r3, r3, #9
 3748 0060 E0E7     		b	.L129
 3749              		.cfi_endproc
 3750              	.LFE70:
 3752              		.section	.text.ks5601_to_kssm,"ax",%progbits
 3753              		.align	1
 3754              		.global	ks5601_to_kssm
 3755              		.syntax unified
 3756              		.thumb
 3757              		.thumb_func
 3758              		.fpu softvfp
 3760              	ks5601_to_kssm:
 3761              	.LVL454:
 3762              	.LFB71:
 902:lcd.c         **** 
 903:lcd.c         **** 
 904:lcd.c         **** 
 905:lcd.c         **** unsigned short ks5601_to_kssm (unsigned short wchar)
 906:lcd.c         **** {
 3763              		.loc 1 906 1 is_stmt 1 view -0
 3764              		.cfi_startproc
 3765              		@ args = 0, pretend = 0, frame = 0
 3766              		@ frame_needed = 0, uses_anonymous_args = 0
 3767              		@ link register save eliminated.
 907:lcd.c         ****       unsigned char xh,xl;
 3768              		.loc 1 907 7 view .LVU864
 908:lcd.c         ****       unsigned short i,result;
 3769              		.loc 1 908 7 view .LVU865
 909:lcd.c         ****       xh = ((wchar >> 8) & 0xFF);
 3770              		.loc 1 909 7 view .LVU866
 910:lcd.c         ****       xl = (wchar & 0x00FF);
 911:lcd.c         ****       if ((xh >= 0xB0) && (xl >= 0xA0)) {
 3771              		.loc 1 911 10 is_stmt 0 view .LVU867
 3772 0000 B0F5304F 		cmp	r0, #45056
 909:lcd.c         ****       xh = ((wchar >> 8) & 0xFF);
 3773              		.loc 1 909 10 view .LVU868
 3774 0004 4FEA1023 		lsr	r3, r0, #8
 3775              	.LVL455:
 910:lcd.c         ****       xl = (wchar & 0x00FF);
 3776              		.loc 1 910 7 is_stmt 1 view .LVU869
 3777              		.loc 1 911 7 view .LVU870
 3778              		.loc 1 911 10 is_stmt 0 view .LVU871
 3779 0008 13D3     		bcc	.L134
 910:lcd.c         ****       xl = (wchar & 0x00FF);
 3780              		.loc 1 910 10 discriminator 1 view .LVU872
 3781 000a C0B2     		uxtb	r0, r0
 3782              	.LVL456:
 3783              		.loc 1 911 24 discriminator 1 view .LVU873
 3784 000c 9F28     		cmp	r0, #159
 3785 000e 10D9     		bls	.L134
 912:lcd.c         ****          xh = xh - 0xB0;
 3786              		.loc 1 912 10 is_stmt 1 view .LVU874
 3787              	.LVL457:
 913:lcd.c         ****          xl = xl - 0xA0;
 3788              		.loc 1 913 10 view .LVU875
 914:lcd.c         ****          i = xl + xh * 96;
 3789              		.loc 1 914 10 view .LVU876
 915:lcd.c         ****          result = KS_CODE[i][0] << 8 | KS_CODE[i][1];
 3790              		.loc 1 915 10 view .LVU877
 912:lcd.c         ****          xl = xl - 0xA0;
 3791              		.loc 1 912 13 is_stmt 0 view .LVU878
 3792 0010 5033     		adds	r3, r3, #80
 3793              	.LVL458:
 914:lcd.c         ****          i = xl + xh * 96;
 3794              		.loc 1 914 17 view .LVU879
 3795 0012 DBB2     		uxtb	r3, r3
 3796              	.LVL459:
 913:lcd.c         ****          i = xl + xh * 96;
 3797              		.loc 1 913 13 view .LVU880
 3798 0014 6030     		adds	r0, r0, #96
 3799              	.LVL460:
 914:lcd.c         ****          result = KS_CODE[i][0] << 8 | KS_CODE[i][1];
 3800              		.loc 1 914 17 view .LVU881
 3801 0016 03EB4302 		add	r2, r3, r3, lsl #1
 3802 001a C3B2     		uxtb	r3, r0
 3803              		.loc 1 915 29 view .LVU882
 3804 001c 03EB4213 		add	r3, r3, r2, lsl #5
 3805 0020 054A     		ldr	r2, .L135
 3806 0022 12F81310 		ldrb	r1, [r2, r3, lsl #1]	@ zero_extendqisi2
 3807              		.loc 1 915 50 view .LVU883
 3808 0026 02EB4303 		add	r3, r2, r3, lsl #1
 3809 002a 5878     		ldrb	r0, [r3, #1]	@ zero_extendqisi2
 3810              	.LVL461:
 3811              		.loc 1 915 17 view .LVU884
 3812 002c 40EA0120 		orr	r0, r0, r1, lsl #8
 3813              	.LVL462:
 916:lcd.c         ****          return result;
 3814              		.loc 1 916 10 is_stmt 1 view .LVU885
 3815              		.loc 1 916 17 is_stmt 0 view .LVU886
 3816 0030 7047     		bx	lr
 3817              	.LVL463:
 3818              	.L134:
 917:lcd.c         ****       }
 918:lcd.c         ****       return 0;
 3819              		.loc 1 918 14 view .LVU887
 3820 0032 0020     		movs	r0, #0
 919:lcd.c         **** }
 3821              		.loc 1 919 1 view .LVU888
 3822 0034 7047     		bx	lr
 3823              	.L136:
 3824 0036 00BF     		.align	2
 3825              	.L135:
 3826 0038 00000000 		.word	KS_CODE
 3827              		.cfi_endproc
 3828              	.LFE71:
 3830              		.section	.text.put_eng,"ax",%progbits
 3831              		.align	1
 3832              		.global	put_eng
 3833              		.syntax unified
 3834              		.thumb
 3835              		.thumb_func
 3836              		.fpu softvfp
 3838              	put_eng:
 3839              	.LVL464:
 3840              	.LFB72:
 920:lcd.c         **** 
 921:lcd.c         **** 
 922:lcd.c         **** void put_eng (char cdata)
 923:lcd.c         **** {
 3841              		.loc 1 923 1 is_stmt 1 view -0
 3842              		.cfi_startproc
 3843              		@ args = 0, pretend = 0, frame = 0
 3844              		@ frame_needed = 0, uses_anonymous_args = 0
 924:lcd.c         ****       unsigned short val,pi;
 3845              		.loc 1 924 7 view .LVU890
 925:lcd.c         ****       if (cdata < 0x20) {
 3846              		.loc 1 925 7 view .LVU891
 3847              		.loc 1 925 10 is_stmt 0 view .LVU892
 3848 0000 1F28     		cmp	r0, #31
 923:lcd.c         ****       unsigned short val,pi;
 3849              		.loc 1 923 1 view .LVU893
 3850 0002 2DE9F84F 		push	{r3, r4, r5, r6, r7, r8, r9, r10, fp, lr}
 3851              		.cfi_def_cfa_offset 40
 3852              		.cfi_offset 3, -40
 3853              		.cfi_offset 4, -36
 3854              		.cfi_offset 5, -32
 3855              		.cfi_offset 6, -28
 3856              		.cfi_offset 7, -24
 3857              		.cfi_offset 8, -20
 3858              		.cfi_offset 9, -16
 3859              		.cfi_offset 10, -12
 3860              		.cfi_offset 11, -8
 3861              		.cfi_offset 14, -4
 3862              		.loc 1 925 10 view .LVU894
 3863 0006 13D8     		bhi	.L138
 926:lcd.c         ****          if (cdata == 0x0D) ax = 0;
 3864              		.loc 1 926 10 is_stmt 1 view .LVU895
 3865              		.loc 1 926 13 is_stmt 0 view .LVU896
 3866 0008 0D28     		cmp	r0, #13
 3867 000a 04D1     		bne	.L139
 3868              	.LVL465:
 3869              	.L149:
 927:lcd.c         ****          if (cdata == 0x0A) {
 928:lcd.c         ****             ay++;
 929:lcd.c         ****             if (ay >= max_row) {
 930:lcd.c         ****                ay -= 1;
 931:lcd.c         ****                ax = 0;
 3870              		.loc 1 931 16 is_stmt 1 view .LVU897
 3871              		.loc 1 931 19 is_stmt 0 view .LVU898
 3872 000c 0022     		movs	r2, #0
 3873 000e 304B     		ldr	r3, .L150
 3874 0010 1A80     		strh	r2, [r3]	@ movhi
 3875              	.L137:
 932:lcd.c         ****             }
 933:lcd.c         ****          }
 934:lcd.c         ****       } else {
 935:lcd.c         **** 	 val = (unsigned short)cdata;
 936:lcd.c         ****          ty = ay * 16;
 937:lcd.c         ****          for (pi=0;pi<16;pi++) {
 938:lcd.c         ****              tx = ax * 8;
 939:lcd.c         ****              if (eng_mode == 0) {
 940:lcd.c         ****                 dumy_data[pi] = eng_font[val][pi];
 941:lcd.c         ****              } else {
 942:lcd.c         ****                 if (page == 0) dumy_data[pi] = eng_font[val*2][pi];else dumy_data[pi] = eng_font[va
 943:lcd.c         ****              }
 944:lcd.c         ****              out_lcd(dumy_data[pi]);
 945:lcd.c         ****              ty++;
 946:lcd.c         ****          }
 947:lcd.c         ****          ax++;
 948:lcd.c         ****          if (ax >= max_col) {
 949:lcd.c         ****             ax = 0;
 950:lcd.c         ****             ay++;
 951:lcd.c         ****             if (ay >= max_row) {
 952:lcd.c         ****                ay -= 1;
 953:lcd.c         ****             }
 954:lcd.c         ****          }
 955:lcd.c         ****       }
 956:lcd.c         **** }
 3876              		.loc 1 956 1 view .LVU899
 3877 0012 BDE8F88F 		pop	{r3, r4, r5, r6, r7, r8, r9, r10, fp, pc}
 3878              	.LVL466:
 3879              	.L139:
 927:lcd.c         ****          if (cdata == 0x0A) {
 3880              		.loc 1 927 10 is_stmt 1 view .LVU900
 927:lcd.c         ****          if (cdata == 0x0A) {
 3881              		.loc 1 927 13 is_stmt 0 view .LVU901
 3882 0016 0A28     		cmp	r0, #10
 3883 0018 FBD1     		bne	.L137
 928:lcd.c         ****             if (ay >= max_row) {
 3884              		.loc 1 928 13 is_stmt 1 view .LVU902
 928:lcd.c         ****             if (ay >= max_row) {
 3885              		.loc 1 928 15 is_stmt 0 view .LVU903
 3886 001a 2E4A     		ldr	r2, .L150+4
 929:lcd.c         ****                ay -= 1;
 3887              		.loc 1 929 20 view .LVU904
 3888 001c 2E48     		ldr	r0, .L150+8
 3889              	.LVL467:
 928:lcd.c         ****             if (ay >= max_row) {
 3890              		.loc 1 928 15 view .LVU905
 3891 001e 1188     		ldrh	r1, [r2]
 929:lcd.c         ****                ay -= 1;
 3892              		.loc 1 929 16 view .LVU906
 3893 0020 0088     		ldrh	r0, [r0]
 928:lcd.c         ****             if (ay >= max_row) {
 3894              		.loc 1 928 15 view .LVU907
 3895 0022 4B1C     		adds	r3, r1, #1
 3896 0024 9BB2     		uxth	r3, r3
 929:lcd.c         ****                ay -= 1;
 3897              		.loc 1 929 16 view .LVU908
 3898 0026 9842     		cmp	r0, r3
 928:lcd.c         ****             if (ay >= max_row) {
 3899              		.loc 1 928 15 view .LVU909
 3900 0028 1380     		strh	r3, [r2]	@ movhi
 929:lcd.c         ****                ay -= 1;
 3901              		.loc 1 929 13 is_stmt 1 view .LVU910
 929:lcd.c         ****                ay -= 1;
 3902              		.loc 1 929 16 is_stmt 0 view .LVU911
 3903 002a F2D8     		bhi	.L137
 930:lcd.c         ****                ax = 0;
 3904              		.loc 1 930 16 is_stmt 1 view .LVU912
 930:lcd.c         ****                ax = 0;
 3905              		.loc 1 930 19 is_stmt 0 view .LVU913
 3906 002c 1180     		strh	r1, [r2]	@ movhi
 3907 002e EDE7     		b	.L149
 3908              	.LVL468:
 3909              	.L138:
 3910              	.LBB102:
 3911              	.LBI102:
 922:lcd.c         **** {
 3912              		.loc 1 922 6 is_stmt 1 view .LVU914
 3913              	.LBB103:
 935:lcd.c         ****          ty = ay * 16;
 3914              		.loc 1 935 3 view .LVU915
 936:lcd.c         ****          for (pi=0;pi<16;pi++) {
 3915              		.loc 1 936 10 view .LVU916
 936:lcd.c         ****          for (pi=0;pi<16;pi++) {
 3916              		.loc 1 936 13 is_stmt 0 view .LVU917
 3917 0030 284F     		ldr	r7, .L150+4
 3918 0032 2A49     		ldr	r1, .L150+12
 3919 0034 3B88     		ldrh	r3, [r7]
 3920 0036 6FF00F0A 		mvn	r10, #15
 3921 003a 1B01     		lsls	r3, r3, #4
 3922 003c 0B80     		strh	r3, [r1]	@ movhi
 937:lcd.c         ****              tx = ax * 8;
 3923              		.loc 1 937 10 is_stmt 1 view .LVU918
 3924              	.LVL469:
 937:lcd.c         ****              tx = ax * 8;
 3925              		.loc 1 937 20 view .LVU919
 938:lcd.c         ****              if (eng_mode == 0) {
 3926              		.loc 1 938 17 is_stmt 0 view .LVU920
 3927 003e 244B     		ldr	r3, .L150
 3928 0040 0AFB00FA 		mul	r10, r10, r0
 3929 0044 9946     		mov	r9, r3
 3930 0046 264E     		ldr	r6, .L150+16
 3931 0048 8846     		mov	r8, r1
 942:lcd.c         ****              }
 3932              		.loc 1 942 103 view .LVU921
 3933 004a 4FEA401B 		lsl	fp, r0, #5
 3934 004e 254D     		ldr	r5, .L150+20
 938:lcd.c         ****              if (eng_mode == 0) {
 3935              		.loc 1 938 17 view .LVU922
 3936 0050 2549     		ldr	r1, .L150+24
 3937 0052 06EB0016 		add	r6, r6, r0, lsl #4
 3938 0056 0BF1100B 		add	fp, fp, #16
 3939 005a 4401     		lsls	r4, r0, #5
 3940              	.LVL470:
 3941              	.L146:
 938:lcd.c         ****              if (eng_mode == 0) {
 3942              		.loc 1 938 14 is_stmt 1 view .LVU923
 938:lcd.c         ****              if (eng_mode == 0) {
 3943              		.loc 1 938 17 is_stmt 0 view .LVU924
 3944 005c 1888     		ldrh	r0, [r3]
 3945 005e C000     		lsls	r0, r0, #3
 3946 0060 0880     		strh	r0, [r1]	@ movhi
 939:lcd.c         ****                 dumy_data[pi] = eng_font[val][pi];
 3947              		.loc 1 939 14 is_stmt 1 view .LVU925
 939:lcd.c         ****                 dumy_data[pi] = eng_font[val][pi];
 3948              		.loc 1 939 27 is_stmt 0 view .LVU926
 3949 0062 2248     		ldr	r0, .L150+28
 939:lcd.c         ****                 dumy_data[pi] = eng_font[val][pi];
 3950              		.loc 1 939 17 view .LVU927
 3951 0064 0088     		ldrh	r0, [r0]
 3952 0066 40BB     		cbnz	r0, .L143
 940:lcd.c         ****              } else {
 3953              		.loc 1 940 17 is_stmt 1 view .LVU928
 940:lcd.c         ****              } else {
 3954              		.loc 1 940 31 is_stmt 0 view .LVU929
 3955 0068 3078     		ldrb	r0, [r6]	@ zero_extendqisi2
 3956              	.L148:
 944:lcd.c         ****              ty++;
 3957              		.loc 1 944 14 is_stmt 1 view .LVU930
 942:lcd.c         ****              }
 3958              		.loc 1 942 87 is_stmt 0 view .LVU931
 3959 006a 2870     		strb	r0, [r5]
 944:lcd.c         ****              ty++;
 3960              		.loc 1 944 14 view .LVU932
 3961 006c 15F8010B 		ldrb	r0, [r5], #1	@ zero_extendqisi2
 3962              	.LVL471:
 944:lcd.c         ****              ty++;
 3963              		.loc 1 944 14 view .LVU933
 3964 0070 FFF7FEFF 		bl	out_lcd
 3965              	.LVL472:
 945:lcd.c         ****          }
 3966              		.loc 1 945 14 is_stmt 1 view .LVU934
 945:lcd.c         ****          }
 3967              		.loc 1 945 16 is_stmt 0 view .LVU935
 3968 0074 B8F80000 		ldrh	r0, [r8]
 937:lcd.c         ****              tx = ax * 8;
 3969              		.loc 1 937 10 view .LVU936
 3970 0078 1D4B     		ldr	r3, .L150+32
 945:lcd.c         ****          }
 3971              		.loc 1 945 16 view .LVU937
 3972 007a 0130     		adds	r0, r0, #1
 937:lcd.c         ****              tx = ax * 8;
 3973              		.loc 1 937 10 view .LVU938
 3974 007c 9D42     		cmp	r5, r3
 3975 007e 1A49     		ldr	r1, .L150+24
 3976 0080 134B     		ldr	r3, .L150
 945:lcd.c         ****          }
 3977              		.loc 1 945 16 view .LVU939
 3978 0082 A8F80000 		strh	r0, [r8]	@ movhi
 937:lcd.c         ****              tx = ax * 8;
 3979              		.loc 1 937 26 is_stmt 1 view .LVU940
 3980              	.LVL473:
 937:lcd.c         ****              tx = ax * 8;
 3981              		.loc 1 937 20 view .LVU941
 3982 0086 06F10106 		add	r6, r6, #1
 937:lcd.c         ****              tx = ax * 8;
 3983              		.loc 1 937 10 is_stmt 0 view .LVU942
 3984 008a E7D1     		bne	.L146
 947:lcd.c         ****          if (ax >= max_col) {
 3985              		.loc 1 947 10 is_stmt 1 view .LVU943
 947:lcd.c         ****          if (ax >= max_col) {
 3986              		.loc 1 947 12 is_stmt 0 view .LVU944
 3987 008c B9F80030 		ldrh	r3, [r9]
 948:lcd.c         ****             ax = 0;
 3988              		.loc 1 948 17 view .LVU945
 3989 0090 184A     		ldr	r2, .L150+36
 947:lcd.c         ****          if (ax >= max_col) {
 3990              		.loc 1 947 12 view .LVU946
 3991 0092 0133     		adds	r3, r3, #1
 948:lcd.c         ****             ax = 0;
 3992              		.loc 1 948 13 view .LVU947
 3993 0094 1288     		ldrh	r2, [r2]
 947:lcd.c         ****          if (ax >= max_col) {
 3994              		.loc 1 947 12 view .LVU948
 3995 0096 9BB2     		uxth	r3, r3
 948:lcd.c         ****             ax = 0;
 3996              		.loc 1 948 13 view .LVU949
 3997 0098 9A42     		cmp	r2, r3
 947:lcd.c         ****          if (ax >= max_col) {
 3998              		.loc 1 947 12 view .LVU950
 3999 009a A9F80030 		strh	r3, [r9]	@ movhi
 948:lcd.c         ****             ax = 0;
 4000              		.loc 1 948 10 is_stmt 1 view .LVU951
 948:lcd.c         ****             ax = 0;
 4001              		.loc 1 948 13 is_stmt 0 view .LVU952
 4002 009e B8D8     		bhi	.L137
 949:lcd.c         ****             ay++;
 4003              		.loc 1 949 13 is_stmt 1 view .LVU953
 949:lcd.c         ****             ay++;
 4004              		.loc 1 949 16 is_stmt 0 view .LVU954
 4005 00a0 0023     		movs	r3, #0
 950:lcd.c         ****             if (ay >= max_row) {
 4006              		.loc 1 950 15 view .LVU955
 4007 00a2 3A88     		ldrh	r2, [r7]
 951:lcd.c         ****                ay -= 1;
 4008              		.loc 1 951 20 view .LVU956
 4009 00a4 0C49     		ldr	r1, .L150+8
 949:lcd.c         ****             ay++;
 4010              		.loc 1 949 16 view .LVU957
 4011 00a6 A9F80030 		strh	r3, [r9]	@ movhi
 950:lcd.c         ****             if (ay >= max_row) {
 4012              		.loc 1 950 13 is_stmt 1 view .LVU958
 951:lcd.c         ****                ay -= 1;
 4013              		.loc 1 951 16 is_stmt 0 view .LVU959
 4014 00aa 0988     		ldrh	r1, [r1]
 950:lcd.c         ****             if (ay >= max_row) {
 4015              		.loc 1 950 15 view .LVU960
 4016 00ac 531C     		adds	r3, r2, #1
 4017 00ae 9BB2     		uxth	r3, r3
 951:lcd.c         ****                ay -= 1;
 4018              		.loc 1 951 13 is_stmt 1 view .LVU961
 952:lcd.c         ****             }
 4019              		.loc 1 952 19 is_stmt 0 view .LVU962
 4020 00b0 9942     		cmp	r1, r3
 4021 00b2 98BF     		it	ls
 4022 00b4 1346     		movls	r3, r2
 4023 00b6 3B80     		strh	r3, [r7]	@ movhi
 4024 00b8 ABE7     		b	.L137
 4025              	.L143:
 942:lcd.c         ****              }
 4026              		.loc 1 942 17 is_stmt 1 view .LVU963
 942:lcd.c         ****              }
 4027              		.loc 1 942 26 is_stmt 0 view .LVU964
 4028 00ba 0F48     		ldr	r0, .L150+40
 942:lcd.c         ****              }
 4029              		.loc 1 942 20 view .LVU965
 4030 00bc 0288     		ldrh	r2, [r0]
 4031 00be 06EB0A00 		add	r0, r6, r10
 4032 00c2 0AB9     		cbnz	r2, .L145
 942:lcd.c         ****              }
 4033              		.loc 1 942 32 is_stmt 1 view .LVU966
 942:lcd.c         ****              }
 4034              		.loc 1 942 46 is_stmt 0 view .LVU967
 4035 00c4 005D     		ldrb	r0, [r0, r4]	@ zero_extendqisi2
 4036 00c6 D0E7     		b	.L148
 4037              	.L145:
 942:lcd.c         ****              }
 4038              		.loc 1 942 73 is_stmt 1 view .LVU968
 942:lcd.c         ****              }
 4039              		.loc 1 942 87 is_stmt 0 view .LVU969
 4040 00c8 10F80B00 		ldrb	r0, [r0, fp]	@ zero_extendqisi2
 4041 00cc CDE7     		b	.L148
 4042              	.L151:
 4043 00ce 00BF     		.align	2
 4044              	.L150:
 4045 00d0 00000000 		.word	ax
 4046 00d4 00000000 		.word	ay
 4047 00d8 00000000 		.word	max_row
 4048 00dc 00000000 		.word	ty
 4049 00e0 00000000 		.word	.LANCHOR4
 4050 00e4 00000000 		.word	dumy_data
 4051 00e8 00000000 		.word	tx
 4052 00ec 00000000 		.word	eng_mode
 4053 00f0 10000000 		.word	dumy_data+16
 4054 00f4 00000000 		.word	max_col
 4055 00f8 00000000 		.word	page
 4056              	.LBE103:
 4057              	.LBE102:
 4058              		.cfi_endproc
 4059              	.LFE72:
 4061              		.section	.text.put_han,"ax",%progbits
 4062              		.align	1
 4063              		.global	put_han
 4064              		.syntax unified
 4065              		.thumb
 4066              		.thumb_func
 4067              		.fpu softvfp
 4069              	put_han:
 4070              	.LVL474:
 4071              	.LFB73:
 957:lcd.c         **** 
 958:lcd.c         **** 
 959:lcd.c         **** void put_han (unsigned short c)
 960:lcd.c         **** {
 4072              		.loc 1 960 1 is_stmt 1 view -0
 4073              		.cfi_startproc
 4074              		@ args = 0, pretend = 0, frame = 0
 4075              		@ frame_needed = 0, uses_anonymous_args = 0
 961:lcd.c         ****       unsigned char i,first,mid,last,b1,b2,b3;
 4076              		.loc 1 961 7 view .LVU971
 962:lcd.c         ****       unsigned short cc,hlx1,hlx2,hlx3;
 4077              		.loc 1 962 7 view .LVU972
 963:lcd.c         ****       if (hangul_mode == 0) cc = ks5601_to_kssm(c);else cc = uni_to_kssm(c);
 4078              		.loc 1 963 7 view .LVU973
 960:lcd.c         ****       unsigned char i,first,mid,last,b1,b2,b3;
 4079              		.loc 1 960 1 is_stmt 0 view .LVU974
 4080 0000 2DE9F84F 		push	{r3, r4, r5, r6, r7, r8, r9, r10, fp, lr}
 4081              		.cfi_def_cfa_offset 40
 4082              		.cfi_offset 3, -40
 4083              		.cfi_offset 4, -36
 4084              		.cfi_offset 5, -32
 4085              		.cfi_offset 6, -28
 4086              		.cfi_offset 7, -24
 4087              		.cfi_offset 8, -20
 4088              		.cfi_offset 9, -16
 4089              		.cfi_offset 10, -12
 4090              		.cfi_offset 11, -8
 4091              		.cfi_offset 14, -4
 4092              		.loc 1 963 23 view .LVU975
 4093 0004 994B     		ldr	r3, .L219
 4094 0006 1B78     		ldrb	r3, [r3]	@ zero_extendqisi2
 4095              		.loc 1 963 10 view .LVU976
 4096 0008 F3B9     		cbnz	r3, .L153
 4097              		.loc 1 963 29 is_stmt 1 discriminator 1 view .LVU977
 4098              		.loc 1 963 34 is_stmt 0 discriminator 1 view .LVU978
 4099 000a FFF7FEFF 		bl	ks5601_to_kssm
 4100              	.LVL475:
 4101              	.L154:
 964:lcd.c         ****       first = ((cc & 0x7C00) >> 10);
 4102              		.loc 1 964 7 is_stmt 1 view .LVU979
 965:lcd.c         ****       mid = ((cc & 0x03E0) >> 5);
 4103              		.loc 1 965 7 view .LVU980
 966:lcd.c         ****       last = (cc & 0x001F);
 4104              		.loc 1 966 7 view .LVU981
 967:lcd.c         ****       first = han_tbl[0][first];
 4105              		.loc 1 967 7 view .LVU982
 4106              		.loc 1 967 13 is_stmt 0 view .LVU983
 4107 000e 984B     		ldr	r3, .L219+4
 4108              		.loc 1 967 25 view .LVU984
 4109 0010 C0F38422 		ubfx	r2, r0, #10, #5
 4110              		.loc 1 967 13 view .LVU985
 4111 0014 9E5C     		ldrb	r6, [r3, r2]	@ zero_extendqisi2
 4112              	.LVL476:
 968:lcd.c         ****       mid = han_tbl[1][mid];
 4113              		.loc 1 968 7 is_stmt 1 view .LVU986
 4114              		.loc 1 968 23 is_stmt 0 view .LVU987
 4115 0016 C0F34412 		ubfx	r2, r0, #5, #5
 4116              		.loc 1 968 11 view .LVU988
 4117 001a 1A44     		add	r2, r2, r3
 4118 001c 92F82070 		ldrb	r7, [r2, #32]	@ zero_extendqisi2
 4119              	.LVL477:
 969:lcd.c         ****       last = han_tbl[2][last];
 4120              		.loc 1 969 7 is_stmt 1 view .LVU989
 4121              		.loc 1 969 24 is_stmt 0 view .LVU990
 4122 0020 00F01F00 		and	r0, r0, #31
 4123              	.LVL478:
 4124              		.loc 1 969 12 view .LVU991
 4125 0024 1844     		add	r0, r0, r3
 4126 0026 BB1E     		subs	r3, r7, #2
 4127 0028 90F84000 		ldrb	r0, [r0, #64]	@ zero_extendqisi2
 4128              	.LVL479:
 970:lcd.c         ****       b1 = 0;
 4129              		.loc 1 970 7 is_stmt 1 view .LVU992
 971:lcd.c         ****       b2 = 0;
 4130              		.loc 1 971 7 view .LVU993
 972:lcd.c         ****       b3 = 0;
 4131              		.loc 1 972 7 view .LVU994
 973:lcd.c         ****       switch (mid) {
 4132              		.loc 1 973 7 view .LVU995
 4133 002c 132B     		cmp	r3, #19
 4134 002e 38D8     		bhi	.L185
 4135 0030 DFE803F0 		tbb	[pc, r3]
 4136              	.L157:
 4137 0034 33       		.byte	(.L159-.L157)/2
 4138 0035 37       		.byte	(.L185-.L157)/2
 4139 0036 33       		.byte	(.L159-.L157)/2
 4140 0037 0D       		.byte	(.L156-.L157)/2
 4141 0038 33       		.byte	(.L159-.L157)/2
 4142 0039 0D       		.byte	(.L156-.L157)/2
 4143 003a 33       		.byte	(.L159-.L157)/2
 4144 003b 35       		.byte	(.L158-.L157)/2
 4145 003c 37       		.byte	(.L185-.L157)/2
 4146 003d 33       		.byte	(.L159-.L157)/2
 4147 003e 0D       		.byte	(.L156-.L157)/2
 4148 003f 35       		.byte	(.L158-.L157)/2
 4149 0040 35       		.byte	(.L158-.L157)/2
 4150 0041 0D       		.byte	(.L156-.L157)/2
 4151 0042 33       		.byte	(.L159-.L157)/2
 4152 0043 0D       		.byte	(.L156-.L157)/2
 4153 0044 35       		.byte	(.L158-.L157)/2
 4154 0045 35       		.byte	(.L158-.L157)/2
 4155 0046 0D       		.byte	(.L156-.L157)/2
 4156 0047 0D       		.byte	(.L156-.L157)/2
 4157              	.LVL480:
 4158              		.p2align 1
 4159              	.L153:
 963:lcd.c         ****       first = ((cc & 0x7C00) >> 10);
 4160              		.loc 1 963 57 discriminator 2 view .LVU996
 963:lcd.c         ****       first = ((cc & 0x7C00) >> 10);
 4161              		.loc 1 963 62 is_stmt 0 discriminator 2 view .LVU997
 4162 0048 FFF7FEFF 		bl	uni_to_kssm
 4163              	.LVL481:
 963:lcd.c         ****       first = ((cc & 0x7C00) >> 10);
 4164              		.loc 1 963 62 discriminator 2 view .LVU998
 4165 004c DFE7     		b	.L154
 4166              	.LVL482:
 4167              	.L156:
 974:lcd.c         ****       	 case 1:
 975:lcd.c         ****       	 case 3:
 976:lcd.c         ****       	 case 10:
 977:lcd.c         ****            b3 = 0;
 978:lcd.c         ****            break;
 979:lcd.c         ****          case 5:
 980:lcd.c         ****          case 7:
 981:lcd.c         ****          case 12:
 982:lcd.c         ****          case 15:
 983:lcd.c         ****          case 17:
 984:lcd.c         ****          case 20:
 985:lcd.c         ****          case 21:
 986:lcd.c         ****            b3 = 1;
 4168              		.loc 1 986 15 view .LVU999
 4169 004e 0125     		movs	r5, #1
 4170              	.LVL483:
 4171              	.L155:
 987:lcd.c         ****            break;
 988:lcd.c         ****          case 2:
 989:lcd.c         ****          case 4:
 990:lcd.c         ****          case 6:
 991:lcd.c         ****          case 8:
 992:lcd.c         ****          case 11:
 993:lcd.c         ****          case 16:
 994:lcd.c         ****            b3 = 2;
 995:lcd.c         ****            break;
 996:lcd.c         ****          case 9:
 997:lcd.c         ****          case 13:
 998:lcd.c         ****          case 14:
 999:lcd.c         ****          case 18:
1000:lcd.c         ****          case 19:
1001:lcd.c         ****            b3 = 3;
1002:lcd.c         ****            break;
1003:lcd.c         ****       }
1004:lcd.c         ****       switch (first) {
 4172              		.loc 1 1004 7 is_stmt 1 view .LVU1000
 4173 0050 012E     		cmp	r6, #1
 4174 0052 07F1FF33 		add	r3, r7, #-1
 4175 0056 01D0     		beq	.L160
 4176 0058 102E     		cmp	r6, #16
 4177 005a 24D1     		bne	.L161
 4178              	.L160:
1005:lcd.c         ****          case 1:
1006:lcd.c         ****          case 16:
1007:lcd.c         ****            if (last == 0) b2 = 0;else b2 = 2;
 4179              		.loc 1 1007 12 view .LVU1001
 4180              		.loc 1 1007 15 is_stmt 0 view .LVU1002
 4181 005c 0028     		cmp	r0, #0
 4182 005e 00F0CF80 		beq	.L186
 4183              		.loc 1 1007 42 view .LVU1003
 4184 0062 4FF0020C 		mov	ip, #2
 4185              	.L163:
 4186              	.LVL484:
1008:lcd.c         ****            break;
1009:lcd.c         ****          default:
1010:lcd.c         ****            if (last == 0) b2 = 1;else b2 = 3;
1011:lcd.c         ****       }
1012:lcd.c         ****       switch (mid) {
 4187              		.loc 1 1012 7 is_stmt 1 view .LVU1004
 4188 0066 142B     		cmp	r3, #20
 4189 0068 00F2C280 		bhi	.L180
 4190 006c DFE813F0 		tbh	[pc, r3, lsl #1]
 4191              	.L184:
 4192 0070 FB00     		.2byte	(.L183-.L184)/2
 4193 0072 FB00     		.2byte	(.L183-.L184)/2
 4194 0074 FB00     		.2byte	(.L183-.L184)/2
 4195 0076 FB00     		.2byte	(.L183-.L184)/2
 4196 0078 FB00     		.2byte	(.L183-.L184)/2
 4197 007a FB00     		.2byte	(.L183-.L184)/2
 4198 007c FB00     		.2byte	(.L183-.L184)/2
 4199 007e FB00     		.2byte	(.L183-.L184)/2
 4200 0080 2400     		.2byte	(.L193-.L184)/2
 4201 0082 2600     		.2byte	(.L169-.L184)/2
 4202 0084 2600     		.2byte	(.L169-.L184)/2
 4203 0086 2600     		.2byte	(.L169-.L184)/2
 4204 0088 2400     		.2byte	(.L193-.L184)/2
 4205 008a 2100     		.2byte	(.L166-.L184)/2
 4206 008c BB00     		.2byte	(.L170-.L184)/2
 4207 008e BB00     		.2byte	(.L170-.L184)/2
 4208 0090 BB00     		.2byte	(.L170-.L184)/2
 4209 0092 2100     		.2byte	(.L166-.L184)/2
 4210 0094 2400     		.2byte	(.L193-.L184)/2
 4211 0096 2600     		.2byte	(.L169-.L184)/2
 4212 0098 FB00     		.2byte	(.L183-.L184)/2
 4213              	.LVL485:
 4214              		.p2align 1
 4215              	.L159:
 994:lcd.c         ****            break;
 4216              		.loc 1 994 12 view .LVU1005
 995:lcd.c         ****          case 9:
 4217              		.loc 1 995 12 view .LVU1006
 994:lcd.c         ****            break;
 4218              		.loc 1 994 15 is_stmt 0 view .LVU1007
 4219 009a 0225     		movs	r5, #2
 995:lcd.c         ****          case 9:
 4220              		.loc 1 995 12 view .LVU1008
 4221 009c D8E7     		b	.L155
 4222              	.LVL486:
 4223              	.L158:
1001:lcd.c         ****            break;
 4224              		.loc 1 1001 12 is_stmt 1 view .LVU1009
1002:lcd.c         ****       }
 4225              		.loc 1 1002 12 view .LVU1010
1001:lcd.c         ****            break;
 4226              		.loc 1 1001 15 is_stmt 0 view .LVU1011
 4227 009e 0325     		movs	r5, #3
1002:lcd.c         ****       }
 4228              		.loc 1 1002 12 view .LVU1012
 4229 00a0 D6E7     		b	.L155
 4230              	.LVL487:
 4231              	.L185:
 969:lcd.c         ****       b1 = 0;
 4232              		.loc 1 969 12 view .LVU1013
 4233 00a2 0025     		movs	r5, #0
 4234 00a4 D4E7     		b	.L155
 4235              	.LVL488:
 4236              	.L161:
1010:lcd.c         ****       }
 4237              		.loc 1 1010 12 is_stmt 1 view .LVU1014
1010:lcd.c         ****       }
 4238              		.loc 1 1010 15 is_stmt 0 view .LVU1015
 4239 00a6 0028     		cmp	r0, #0
 4240 00a8 00F0DA80 		beq	.L187
1010:lcd.c         ****       }
 4241              		.loc 1 1010 42 view .LVU1016
 4242 00ac 4FF0030C 		mov	ip, #3
 4243 00b0 D9E7     		b	.L163
 4244              	.LVL489:
 4245              	.L166:
1013:lcd.c         ****          case 1:
1014:lcd.c         ****          case 2:
1015:lcd.c         ****          case 3:
1016:lcd.c         ****          case 4:
1017:lcd.c         ****          case 5:
1018:lcd.c         ****          case 6:
1019:lcd.c         ****          case 7:
1020:lcd.c         ****          case 8:
1021:lcd.c         ****          case 21:
1022:lcd.c         ****            if (last == 0) b1 = 0; else b1 = 5;
1023:lcd.c         ****            break;
1024:lcd.c         ****          case 9:
1025:lcd.c         ****          case 13:
1026:lcd.c         ****          case 19:
1027:lcd.c         ****            if (last == 0) b1 = 1;else b1 = 6;
1028:lcd.c         ****            break;
1029:lcd.c         ****          case 14: case 18:
1030:lcd.c         ****            if (last == 0) b1 = 2;else b1 = 6;
 4246              		.loc 1 1030 12 is_stmt 1 view .LVU1017
 4247              		.loc 1 1030 15 is_stmt 0 view .LVU1018
 4248 00b2 0028     		cmp	r0, #0
 4249 00b4 00F09E80 		beq	.L188
 4250              	.L193:
1027:lcd.c         ****            break;
 4251              		.loc 1 1027 42 view .LVU1019
 4252 00b8 0622     		movs	r2, #6
 4253              	.LVL490:
1031:lcd.c         ****            break;
1032:lcd.c         ****          case 10:
1033:lcd.c         ****          case 11:
1034:lcd.c         ****          case 12:
1035:lcd.c         ****          case 20:
1036:lcd.c         ****            if (last == 0) b1 = 3;else b1 = 7;
1037:lcd.c         ****            break;
1038:lcd.c         ****          case 15:
1039:lcd.c         ****          case 16:
1040:lcd.c         ****          case 17:
1041:lcd.c         ****            if (last == 0) b1 = 4;else b1 = 7;
1042:lcd.c         ****            break;
1043:lcd.c         ****       }
1044:lcd.c         ****       if ((mid == 0) && (last == 0)) b1 = 0;
 4254              		.loc 1 1044 7 is_stmt 1 view .LVU1020
 4255 00ba 03E0     		b	.L165
 4256              	.LVL491:
 4257              	.L169:
1036:lcd.c         ****            break;
 4258              		.loc 1 1036 12 view .LVU1021
1036:lcd.c         ****            break;
 4259              		.loc 1 1036 15 is_stmt 0 view .LVU1022
 4260 00bc 0028     		cmp	r0, #0
 4261 00be 00F09B80 		beq	.L189
 4262              	.L218:
1041:lcd.c         ****            break;
 4263              		.loc 1 1041 42 view .LVU1023
 4264 00c2 0722     		movs	r2, #7
 4265              	.LVL492:
 4266              	.L165:
1045:lcd.c         ****       for (i=0;i<16;i++) {
 4267              		.loc 1 1045 7 is_stmt 1 view .LVU1024
 4268              		.loc 1 1045 16 view .LVU1025
 4269 00c4 6B4B     		ldr	r3, .L219+8
1044:lcd.c         ****       for (i=0;i<16;i++) {
 4270              		.loc 1 1044 41 is_stmt 0 view .LVU1026
 4271 00c6 0021     		movs	r1, #0
 4272 00c8 9A46     		mov	r10, r3
1046:lcd.c         ****           if (first != 0) {
1047:lcd.c         ****              hlx1 = first + loc1[b1];
1048:lcd.c         ****              dumy_data[i*2] = kor_font[hlx1][i*2];
 4273              		.loc 1 1048 45 view .LVU1027
 4274 00ca DFF8C8E1 		ldr	lr, .L219+40
1049:lcd.c         ****              dumy_data[i*2+1] = kor_font[hlx1][i*2+1];
1050:lcd.c         ****           }
1051:lcd.c         ****           if (mid != 0) {
1052:lcd.c         ****              hlx2 = mid + loc2[b2];
 4275              		.loc 1 1052 31 view .LVU1028
 4276 00ce DFF8C891 		ldr	r9, .L219+44
 4277              	.LVL493:
 4278              	.L174:
1046:lcd.c         ****           if (first != 0) {
 4279              		.loc 1 1046 11 is_stmt 1 view .LVU1029
1046:lcd.c         ****           if (first != 0) {
 4280              		.loc 1 1046 14 is_stmt 0 view .LVU1030
 4281 00d2 6EB1     		cbz	r6, .L171
1047:lcd.c         ****              dumy_data[i*2] = kor_font[hlx1][i*2];
 4282              		.loc 1 1047 14 is_stmt 1 view .LVU1031
 4283              	.LVL494:
1048:lcd.c         ****              dumy_data[i*2+1] = kor_font[hlx1][i*2+1];
 4284              		.loc 1 1048 14 view .LVU1032
1047:lcd.c         ****              dumy_data[i*2] = kor_font[hlx1][i*2];
 4285              		.loc 1 1047 19 is_stmt 0 view .LVU1033
 4286 00d4 684C     		ldr	r4, .L219+12
 4287 00d6 34F81240 		ldrh	r4, [r4, r2, lsl #1]
 4288 00da 3444     		add	r4, r4, r6
1048:lcd.c         ****              dumy_data[i*2+1] = kor_font[hlx1][i*2+1];
 4289              		.loc 1 1048 45 view .LVU1034
 4290 00dc A4B2     		uxth	r4, r4
 4291 00de 0EEB4414 		add	r4, lr, r4, lsl #5
 4292 00e2 04EB0108 		add	r8, r4, r1
1048:lcd.c         ****              dumy_data[i*2+1] = kor_font[hlx1][i*2+1];
 4293              		.loc 1 1048 29 view .LVU1035
 4294 00e6 645C     		ldrb	r4, [r4, r1]	@ zero_extendqisi2
