Archive member included to satisfy reference by file (symbol)

/project/stm32fx_lib/stm32f1x_iolib/stm32f1x_iolib_hd_st32_8MHz.a(startup.o)
                              (Reset_Handler)
/project/stm32fx_lib/stm32f1x_iolib/stm32f1x_iolib_hd_st32_8MHz.a(system.o)
                              /project/stm32fx_lib/stm32f1x_iolib/stm32f1x_iolib_hd_st32_8MHz.a(startup.o) (SystemInit)
/project/stm32fx_lib/stm32f1x_iolib/stm32f1x_iolib_hd_st32_8MHz.a(irq.o)
                              FLASH_RUN/main.o (NVIC_PriorityGroupConfig)
/project/stm32fx_lib/stm32f1x_iolib/stm32f1x_iolib_hd_st32_8MHz.a(rcc.o)
                              FLASH_RUN/main.o (RCC_ADCCLKConfig)
/project/stm32fx_lib/stm32f1x_iolib/stm32f1x_iolib_hd_st32_8MHz.a(adc.o)
                              FLASH_RUN/main.o (ADC_DeInit)
/project/stm32fx_lib/stm32f1x_iolib/stm32f1x_iolib_hd_st32_8MHz.a(bkp.o)
                              FLASH_RUN/time.o (BKP_DeInit)
/project/stm32fx_lib/stm32f1x_iolib/stm32f1x_iolib_hd_st32_8MHz.a(exti.o)
                              FLASH_RUN/ads7843.o (EXTI_Init)
/project/stm32fx_lib/stm32f1x_iolib/stm32f1x_iolib_hd_st32_8MHz.a(flash.o)
                              FLASH_RUN/main.o (FLASH_Unlock)
/project/stm32fx_lib/stm32f1x_iolib/stm32f1x_iolib_hd_st32_8MHz.a(gpio.o)
                              FLASH_RUN/main.o (GPIO_Init_Pin)
/project/stm32fx_lib/stm32f1x_iolib/stm32f1x_iolib_hd_st32_8MHz.a(iwdg.o)
                              FLASH_RUN/time.o (IWDG_ReloadCounter)
/project/stm32fx_lib/stm32f1x_iolib/stm32f1x_iolib_hd_st32_8MHz.a(pwr.o)
                              FLASH_RUN/time.o (PWR_BackupAccessCmd)
/project/stm32fx_lib/stm32f1x_iolib/stm32f1x_iolib_hd_st32_8MHz.a(rtc.o)
                              FLASH_RUN/time.o (RTC_ITConfig)
/project/stm32fx_lib/stm32f1x_iolib/stm32f1x_iolib_hd_st32_8MHz.a(spi.o)
                              FLASH_RUN/sd_driver.o (SPI_Init)
/project/stm32fx_lib/stm32f1x_iolib/stm32f1x_iolib_hd_st32_8MHz.a(timer.o)
                              FLASH_RUN/main.o (TIM_TimeBaseInit)
/project/stm32fx_lib/stm32f1x_iolib/stm32f1x_iolib_hd_st32_8MHz.a(usart.o)
                              FLASH_RUN/serial.o (USART_Init)
c:/program files (x86)/gnu tools arm embedded/9 2019-q4-major/bin/../lib/gcc/arm-none-eabi/9.2.1/../../../../arm-none-eabi/lib/thumb/v7-m/nofp\libc.a(lib_a-abort.o)
                              FLASH_RUN/core.o (abort)
c:/program files (x86)/gnu tools arm embedded/9 2019-q4-major/bin/../lib/gcc/arm-none-eabi/9.2.1/../../../../arm-none-eabi/lib/thumb/v7-m/nofp\libc.a(lib_a-errno.o)
                              FLASH_RUN/core.o (__errno)
c:/program files (x86)/gnu tools arm embedded/9 2019-q4-major/bin/../lib/gcc/arm-none-eabi/9.2.1/../../../../arm-none-eabi/lib/thumb/v7-m/nofp\libc.a(lib_a-impure.o)
                              c:/program files (x86)/gnu tools arm embedded/9 2019-q4-major/bin/../lib/gcc/arm-none-eabi/9.2.1/../../../../arm-none-eabi/lib/thumb/v7-m/nofp\libc.a(lib_a-errno.o) (_impure_ptr)
c:/program files (x86)/gnu tools arm embedded/9 2019-q4-major/bin/../lib/gcc/arm-none-eabi/9.2.1/../../../../arm-none-eabi/lib/thumb/v7-m/nofp\libc.a(lib_a-malloc.o)
                              FLASH_RUN/mp3.o (malloc)
c:/program files (x86)/gnu tools arm embedded/9 2019-q4-major/bin/../lib/gcc/arm-none-eabi/9.2.1/../../../../arm-none-eabi/lib/thumb/v7-m/nofp\libc.a(lib_a-mallocr.o)
                              c:/program files (x86)/gnu tools arm embedded/9 2019-q4-major/bin/../lib/gcc/arm-none-eabi/9.2.1/../../../../arm-none-eabi/lib/thumb/v7-m/nofp\libc.a(lib_a-malloc.o) (_malloc_r)
c:/program files (x86)/gnu tools arm embedded/9 2019-q4-major/bin/../lib/gcc/arm-none-eabi/9.2.1/../../../../arm-none-eabi/lib/thumb/v7-m/nofp\libc.a(lib_a-memcpy.o)
                              FLASH_RUN/serial.o (memcpy)
c:/program files (x86)/gnu tools arm embedded/9 2019-q4-major/bin/../lib/gcc/arm-none-eabi/9.2.1/../../../../arm-none-eabi/lib/thumb/v7-m/nofp\libc.a(lib_a-memset.o)
                              FLASH_RUN/serial.o (memset)
c:/program files (x86)/gnu tools arm embedded/9 2019-q4-major/bin/../lib/gcc/arm-none-eabi/9.2.1/../../../../arm-none-eabi/lib/thumb/v7-m/nofp\libc.a(lib_a-mlock.o)
                              c:/program files (x86)/gnu tools arm embedded/9 2019-q4-major/bin/../lib/gcc/arm-none-eabi/9.2.1/../../../../arm-none-eabi/lib/thumb/v7-m/nofp\libc.a(lib_a-mallocr.o) (__malloc_lock)
c:/program files (x86)/gnu tools arm embedded/9 2019-q4-major/bin/../lib/gcc/arm-none-eabi/9.2.1/../../../../arm-none-eabi/lib/thumb/v7-m/nofp\libc.a(lib_a-sbrkr.o)
                              c:/program files (x86)/gnu tools arm embedded/9 2019-q4-major/bin/../lib/gcc/arm-none-eabi/9.2.1/../../../../arm-none-eabi/lib/thumb/v7-m/nofp\libc.a(lib_a-mallocr.o) (_sbrk_r)
c:/program files (x86)/gnu tools arm embedded/9 2019-q4-major/bin/../lib/gcc/arm-none-eabi/9.2.1/../../../../arm-none-eabi/lib/thumb/v7-m/nofp\libc.a(lib_a-signal.o)
                              c:/program files (x86)/gnu tools arm embedded/9 2019-q4-major/bin/../lib/gcc/arm-none-eabi/9.2.1/../../../../arm-none-eabi/lib/thumb/v7-m/nofp\libc.a(lib_a-abort.o) (raise)
c:/program files (x86)/gnu tools arm embedded/9 2019-q4-major/bin/../lib/gcc/arm-none-eabi/9.2.1/../../../../arm-none-eabi/lib/thumb/v7-m/nofp\libc.a(lib_a-signalr.o)
                              c:/program files (x86)/gnu tools arm embedded/9 2019-q4-major/bin/../lib/gcc/arm-none-eabi/9.2.1/../../../../arm-none-eabi/lib/thumb/v7-m/nofp\libc.a(lib_a-signal.o) (_kill_r)
c:/program files (x86)/gnu tools arm embedded/9 2019-q4-major/bin/../lib/gcc/arm-none-eabi/9.2.1/../../../../arm-none-eabi/lib/thumb/v7-m/nofp\libc.a(lib_a-strcasecmp.o)
                              FLASH_RUN/mp3.o (strcasecmp)
c:/program files (x86)/gnu tools arm embedded/9 2019-q4-major/bin/../lib/gcc/arm-none-eabi/9.2.1/../../../../arm-none-eabi/lib/thumb/v7-m/nofp\libc.a(lib_a-strcpy.o)
                              FLASH_RUN/mp3.o (strcpy)
c:/program files (x86)/gnu tools arm embedded/9 2019-q4-major/bin/../lib/gcc/arm-none-eabi/9.2.1/../../../../arm-none-eabi/lib/thumb/v7-m/nofp\libc.a(lib_a-strlen-stub.o)
                              FLASH_RUN/serial.o (strlen)
c:/program files (x86)/gnu tools arm embedded/9 2019-q4-major/bin/../lib/gcc/arm-none-eabi/9.2.1/../../../../arm-none-eabi/lib/thumb/v7-m/nofp\libc.a(lib_a-vsprintf.o)
                              FLASH_RUN/serial.o (vsprintf)
c:/program files (x86)/gnu tools arm embedded/9 2019-q4-major/bin/../lib/gcc/arm-none-eabi/9.2.1/../../../../arm-none-eabi/lib/thumb/v7-m/nofp\libc.a(lib_a-ctype_.o)
                              c:/program files (x86)/gnu tools arm embedded/9 2019-q4-major/bin/../lib/gcc/arm-none-eabi/9.2.1/../../../../arm-none-eabi/lib/thumb/v7-m/nofp\libc.a(lib_a-strcasecmp.o) (_ctype_)
c:/program files (x86)/gnu tools arm embedded/9 2019-q4-major/bin/../lib/gcc/arm-none-eabi/9.2.1/../../../../arm-none-eabi/lib/thumb/v7-m/nofp\libc.a(lib_a-freer.o)
                              c:/program files (x86)/gnu tools arm embedded/9 2019-q4-major/bin/../lib/gcc/arm-none-eabi/9.2.1/../../../../arm-none-eabi/lib/thumb/v7-m/nofp\libc.a(lib_a-malloc.o) (_free_r)
c:/program files (x86)/gnu tools arm embedded/9 2019-q4-major/bin/../lib/gcc/arm-none-eabi/9.2.1/../../../../arm-none-eabi/lib/thumb/v7-m/nofp\libc.a(lib_a-lock.o)
                              c:/program files (x86)/gnu tools arm embedded/9 2019-q4-major/bin/../lib/gcc/arm-none-eabi/9.2.1/../../../../arm-none-eabi/lib/thumb/v7-m/nofp\libc.a(lib_a-mlock.o) (__retarget_lock_acquire_recursive)
c:/program files (x86)/gnu tools arm embedded/9 2019-q4-major/bin/../lib/gcc/arm-none-eabi/9.2.1/../../../../arm-none-eabi/lib/thumb/v7-m/nofp\libc.a(lib_a-reent.o)
                              c:/program files (x86)/gnu tools arm embedded/9 2019-q4-major/bin/../lib/gcc/arm-none-eabi/9.2.1/../../../../arm-none-eabi/lib/thumb/v7-m/nofp\libc.a(lib_a-sbrkr.o) (errno)
c:/program files (x86)/gnu tools arm embedded/9 2019-q4-major/bin/../lib/gcc/arm-none-eabi/9.2.1/../../../../arm-none-eabi/lib/thumb/v7-m/nofp\libc.a(lib_a-svfprintf.o)
                              c:/program files (x86)/gnu tools arm embedded/9 2019-q4-major/bin/../lib/gcc/arm-none-eabi/9.2.1/../../../../arm-none-eabi/lib/thumb/v7-m/nofp\libc.a(lib_a-vsprintf.o) (_svfprintf_r)
c:/program files (x86)/gnu tools arm embedded/9 2019-q4-major/bin/../lib/gcc/arm-none-eabi/9.2.1/../../../../arm-none-eabi/lib/thumb/v7-m/nofp\libc.a(lib_a-dtoa.o)
                              c:/program files (x86)/gnu tools arm embedded/9 2019-q4-major/bin/../lib/gcc/arm-none-eabi/9.2.1/../../../../arm-none-eabi/lib/thumb/v7-m/nofp\libc.a(lib_a-svfprintf.o) (_dtoa_r)
c:/program files (x86)/gnu tools arm embedded/9 2019-q4-major/bin/../lib/gcc/arm-none-eabi/9.2.1/../../../../arm-none-eabi/lib/thumb/v7-m/nofp\libc.a(lib_a-localeconv.o)
                              c:/program files (x86)/gnu tools arm embedded/9 2019-q4-major/bin/../lib/gcc/arm-none-eabi/9.2.1/../../../../arm-none-eabi/lib/thumb/v7-m/nofp\libc.a(lib_a-svfprintf.o) (_localeconv_r)
c:/program files (x86)/gnu tools arm embedded/9 2019-q4-major/bin/../lib/gcc/arm-none-eabi/9.2.1/../../../../arm-none-eabi/lib/thumb/v7-m/nofp\libc.a(lib_a-memchr-stub.o)
                              c:/program files (x86)/gnu tools arm embedded/9 2019-q4-major/bin/../lib/gcc/arm-none-eabi/9.2.1/../../../../arm-none-eabi/lib/thumb/v7-m/nofp\libc.a(lib_a-svfprintf.o) (memchr)
c:/program files (x86)/gnu tools arm embedded/9 2019-q4-major/bin/../lib/gcc/arm-none-eabi/9.2.1/../../../../arm-none-eabi/lib/thumb/v7-m/nofp\libc.a(lib_a-mprec.o)
                              c:/program files (x86)/gnu tools arm embedded/9 2019-q4-major/bin/../lib/gcc/arm-none-eabi/9.2.1/../../../../arm-none-eabi/lib/thumb/v7-m/nofp\libc.a(lib_a-dtoa.o) (_Balloc)
c:/program files (x86)/gnu tools arm embedded/9 2019-q4-major/bin/../lib/gcc/arm-none-eabi/9.2.1/../../../../arm-none-eabi/lib/thumb/v7-m/nofp\libc.a(lib_a-s_frexp.o)
                              c:/program files (x86)/gnu tools arm embedded/9 2019-q4-major/bin/../lib/gcc/arm-none-eabi/9.2.1/../../../../arm-none-eabi/lib/thumb/v7-m/nofp\libc.a(lib_a-svfprintf.o) (frexp)
c:/program files (x86)/gnu tools arm embedded/9 2019-q4-major/bin/../lib/gcc/arm-none-eabi/9.2.1/../../../../arm-none-eabi/lib/thumb/v7-m/nofp\libc.a(lib_a-strncpy.o)
                              c:/program files (x86)/gnu tools arm embedded/9 2019-q4-major/bin/../lib/gcc/arm-none-eabi/9.2.1/../../../../arm-none-eabi/lib/thumb/v7-m/nofp\libc.a(lib_a-svfprintf.o) (strncpy)
c:/program files (x86)/gnu tools arm embedded/9 2019-q4-major/bin/../lib/gcc/arm-none-eabi/9.2.1/../../../../arm-none-eabi/lib/thumb/v7-m/nofp\libc.a(lib_a-svfiprintf.o)
                              c:/program files (x86)/gnu tools arm embedded/9 2019-q4-major/bin/../lib/gcc/arm-none-eabi/9.2.1/../../../../arm-none-eabi/lib/thumb/v7-m/nofp\libc.a(lib_a-svfprintf.o) (__ssprint_r)
c:/program files (x86)/gnu tools arm embedded/9 2019-q4-major/bin/../lib/gcc/arm-none-eabi/9.2.1/../../../../arm-none-eabi/lib/thumb/v7-m/nofp\libc.a(lib_a-callocr.o)
                              c:/program files (x86)/gnu tools arm embedded/9 2019-q4-major/bin/../lib/gcc/arm-none-eabi/9.2.1/../../../../arm-none-eabi/lib/thumb/v7-m/nofp\libc.a(lib_a-mprec.o) (_calloc_r)
c:/program files (x86)/gnu tools arm embedded/9 2019-q4-major/bin/../lib/gcc/arm-none-eabi/9.2.1/../../../../arm-none-eabi/lib/thumb/v7-m/nofp\libc.a(lib_a-locale.o)
                              c:/program files (x86)/gnu tools arm embedded/9 2019-q4-major/bin/../lib/gcc/arm-none-eabi/9.2.1/../../../../arm-none-eabi/lib/thumb/v7-m/nofp\libc.a(lib_a-localeconv.o) (__global_locale)
c:/program files (x86)/gnu tools arm embedded/9 2019-q4-major/bin/../lib/gcc/arm-none-eabi/9.2.1/../../../../arm-none-eabi/lib/thumb/v7-m/nofp\libc.a(lib_a-mbtowc_r.o)
                              c:/program files (x86)/gnu tools arm embedded/9 2019-q4-major/bin/../lib/gcc/arm-none-eabi/9.2.1/../../../../arm-none-eabi/lib/thumb/v7-m/nofp\libc.a(lib_a-locale.o) (__ascii_mbtowc)
c:/program files (x86)/gnu tools arm embedded/9 2019-q4-major/bin/../lib/gcc/arm-none-eabi/9.2.1/../../../../arm-none-eabi/lib/thumb/v7-m/nofp\libc.a(lib_a-memmove.o)
                              c:/program files (x86)/gnu tools arm embedded/9 2019-q4-major/bin/../lib/gcc/arm-none-eabi/9.2.1/../../../../arm-none-eabi/lib/thumb/v7-m/nofp\libc.a(lib_a-svfiprintf.o) (memmove)
c:/program files (x86)/gnu tools arm embedded/9 2019-q4-major/bin/../lib/gcc/arm-none-eabi/9.2.1/../../../../arm-none-eabi/lib/thumb/v7-m/nofp\libc.a(lib_a-reallocr.o)
                              c:/program files (x86)/gnu tools arm embedded/9 2019-q4-major/bin/../lib/gcc/arm-none-eabi/9.2.1/../../../../arm-none-eabi/lib/thumb/v7-m/nofp\libc.a(lib_a-svfiprintf.o) (_realloc_r)
c:/program files (x86)/gnu tools arm embedded/9 2019-q4-major/bin/../lib/gcc/arm-none-eabi/9.2.1/../../../../arm-none-eabi/lib/thumb/v7-m/nofp\libc.a(lib_a-strcmp.o)
                              c:/program files (x86)/gnu tools arm embedded/9 2019-q4-major/bin/../lib/gcc/arm-none-eabi/9.2.1/../../../../arm-none-eabi/lib/thumb/v7-m/nofp\libc.a(lib_a-locale.o) (strcmp)
c:/program files (x86)/gnu tools arm embedded/9 2019-q4-major/bin/../lib/gcc/arm-none-eabi/9.2.1/../../../../arm-none-eabi/lib/thumb/v7-m/nofp\libc.a(lib_a-wctomb_r.o)
                              c:/program files (x86)/gnu tools arm embedded/9 2019-q4-major/bin/../lib/gcc/arm-none-eabi/9.2.1/../../../../arm-none-eabi/lib/thumb/v7-m/nofp\libc.a(lib_a-locale.o) (__ascii_wctomb)
c:/program files (x86)/gnu tools arm embedded/9 2019-q4-major/bin/../lib/gcc/arm-none-eabi/9.2.1/../../../../arm-none-eabi/lib/thumb/v7-m/nofp\libm.a(lib_a-w_sqrt.o)
                              FLASH_RUN/ads7843.o (sqrt)
c:/program files (x86)/gnu tools arm embedded/9 2019-q4-major/bin/../lib/gcc/arm-none-eabi/9.2.1/../../../../arm-none-eabi/lib/thumb/v7-m/nofp\libm.a(lib_a-e_sqrt.o)
                              c:/program files (x86)/gnu tools arm embedded/9 2019-q4-major/bin/../lib/gcc/arm-none-eabi/9.2.1/../../../../arm-none-eabi/lib/thumb/v7-m/nofp\libm.a(lib_a-w_sqrt.o) (__ieee754_sqrt)
c:/program files (x86)/gnu tools arm embedded/9 2019-q4-major/bin/../lib/gcc/arm-none-eabi/9.2.1/../../../../arm-none-eabi/lib/thumb/v7-m/nofp\libm.a(lib_a-s_lib_ver.o)
                              c:/program files (x86)/gnu tools arm embedded/9 2019-q4-major/bin/../lib/gcc/arm-none-eabi/9.2.1/../../../../arm-none-eabi/lib/thumb/v7-m/nofp\libm.a(lib_a-w_sqrt.o) (__fdlib_version)
c:/program files (x86)/gnu tools arm embedded/9 2019-q4-major/bin/../lib/gcc/arm-none-eabi/9.2.1/../../../../arm-none-eabi/lib/thumb/v7-m/nofp\libm.a(lib_a-s_matherr.o)
                              c:/program files (x86)/gnu tools arm embedded/9 2019-q4-major/bin/../lib/gcc/arm-none-eabi/9.2.1/../../../../arm-none-eabi/lib/thumb/v7-m/nofp\libm.a(lib_a-w_sqrt.o) (matherr)
c:/program files (x86)/gnu tools arm embedded/9 2019-q4-major/bin/../lib/gcc/arm-none-eabi/9.2.1/thumb/v7-m/nofp\libgcc.a(_arm_muldf3.o)
                              c:/program files (x86)/gnu tools arm embedded/9 2019-q4-major/bin/../lib/gcc/arm-none-eabi/9.2.1/../../../../arm-none-eabi/lib/thumb/v7-m/nofp\libc.a(lib_a-svfprintf.o) (__aeabi_dmul)
c:/program files (x86)/gnu tools arm embedded/9 2019-q4-major/bin/../lib/gcc/arm-none-eabi/9.2.1/thumb/v7-m/nofp\libgcc.a(_arm_mulsf3.o)
                              FLASH_RUN/mp3.o (__aeabi_fmul)
c:/program files (x86)/gnu tools arm embedded/9 2019-q4-major/bin/../lib/gcc/arm-none-eabi/9.2.1/thumb/v7-m/nofp\libgcc.a(_arm_addsubdf3.o)
                              c:/program files (x86)/gnu tools arm embedded/9 2019-q4-major/bin/../lib/gcc/arm-none-eabi/9.2.1/../../../../arm-none-eabi/lib/thumb/v7-m/nofp\libc.a(lib_a-svfprintf.o) (__aeabi_dsub)
c:/program files (x86)/gnu tools arm embedded/9 2019-q4-major/bin/../lib/gcc/arm-none-eabi/9.2.1/thumb/v7-m/nofp\libgcc.a(_arm_muldivdf3.o)
                              c:/program files (x86)/gnu tools arm embedded/9 2019-q4-major/bin/../lib/gcc/arm-none-eabi/9.2.1/../../../../arm-none-eabi/lib/thumb/v7-m/nofp\libc.a(lib_a-dtoa.o) (__aeabi_ddiv)
c:/program files (x86)/gnu tools arm embedded/9 2019-q4-major/bin/../lib/gcc/arm-none-eabi/9.2.1/thumb/v7-m/nofp\libgcc.a(_arm_cmpdf2.o)
                              c:/program files (x86)/gnu tools arm embedded/9 2019-q4-major/bin/../lib/gcc/arm-none-eabi/9.2.1/../../../../arm-none-eabi/lib/thumb/v7-m/nofp\libc.a(lib_a-svfprintf.o) (__aeabi_dcmpeq)
c:/program files (x86)/gnu tools arm embedded/9 2019-q4-major/bin/../lib/gcc/arm-none-eabi/9.2.1/thumb/v7-m/nofp\libgcc.a(_arm_unorddf2.o)
                              c:/program files (x86)/gnu tools arm embedded/9 2019-q4-major/bin/../lib/gcc/arm-none-eabi/9.2.1/../../../../arm-none-eabi/lib/thumb/v7-m/nofp\libc.a(lib_a-svfprintf.o) (__aeabi_dcmpun)
c:/program files (x86)/gnu tools arm embedded/9 2019-q4-major/bin/../lib/gcc/arm-none-eabi/9.2.1/thumb/v7-m/nofp\libgcc.a(_arm_fixdfsi.o)
                              c:/program files (x86)/gnu tools arm embedded/9 2019-q4-major/bin/../lib/gcc/arm-none-eabi/9.2.1/../../../../arm-none-eabi/lib/thumb/v7-m/nofp\libc.a(lib_a-svfprintf.o) (__aeabi_d2iz)
c:/program files (x86)/gnu tools arm embedded/9 2019-q4-major/bin/../lib/gcc/arm-none-eabi/9.2.1/thumb/v7-m/nofp\libgcc.a(_arm_fixunsdfsi.o)
                              FLASH_RUN/ads7843.o (__aeabi_d2uiz)
c:/program files (x86)/gnu tools arm embedded/9 2019-q4-major/bin/../lib/gcc/arm-none-eabi/9.2.1/thumb/v7-m/nofp\libgcc.a(_arm_addsubsf3.o)
                              FLASH_RUN/mp3.o (__aeabi_ui2f)
c:/program files (x86)/gnu tools arm embedded/9 2019-q4-major/bin/../lib/gcc/arm-none-eabi/9.2.1/thumb/v7-m/nofp\libgcc.a(_arm_muldivsf3.o)
                              FLASH_RUN/mp3.o (__aeabi_fdiv)
c:/program files (x86)/gnu tools arm embedded/9 2019-q4-major/bin/../lib/gcc/arm-none-eabi/9.2.1/thumb/v7-m/nofp\libgcc.a(_arm_cmpsf2.o)
                              FLASH_RUN/mp3.o (__aeabi_fcmpgt)
c:/program files (x86)/gnu tools arm embedded/9 2019-q4-major/bin/../lib/gcc/arm-none-eabi/9.2.1/thumb/v7-m/nofp\libgcc.a(_arm_fixunssfsi.o)
                              FLASH_RUN/mp3.o (__aeabi_f2uiz)
c:/program files (x86)/gnu tools arm embedded/9 2019-q4-major/bin/../lib/gcc/arm-none-eabi/9.2.1/thumb/v7-m/nofp\libgcc.a(_aeabi_uldivmod.o)
                              c:/program files (x86)/gnu tools arm embedded/9 2019-q4-major/bin/../lib/gcc/arm-none-eabi/9.2.1/../../../../arm-none-eabi/lib/thumb/v7-m/nofp\libc.a(lib_a-svfprintf.o) (__aeabi_uldivmod)
c:/program files (x86)/gnu tools arm embedded/9 2019-q4-major/bin/../lib/gcc/arm-none-eabi/9.2.1/thumb/v7-m/nofp\libgcc.a(_udivmoddi4.o)
                              c:/program files (x86)/gnu tools arm embedded/9 2019-q4-major/bin/../lib/gcc/arm-none-eabi/9.2.1/thumb/v7-m/nofp\libgcc.a(_aeabi_uldivmod.o) (__udivmoddi4)
c:/program files (x86)/gnu tools arm embedded/9 2019-q4-major/bin/../lib/gcc/arm-none-eabi/9.2.1/thumb/v7-m/nofp\libgcc.a(_dvmd_tls.o)
                              c:/program files (x86)/gnu tools arm embedded/9 2019-q4-major/bin/../lib/gcc/arm-none-eabi/9.2.1/thumb/v7-m/nofp\libgcc.a(_aeabi_uldivmod.o) (__aeabi_ldiv0)

Allocating common symbols
Common symbol       size              file

__lock___atexit_recursive_mutex
                    0x1               c:/program files (x86)/gnu tools arm embedded/9 2019-q4-major/bin/../lib/gcc/arm-none-eabi/9.2.1/../../../../arm-none-eabi/lib/thumb/v7-m/nofp\libc.a(lib_a-lock.o)
yLoc                0x2               FLASH_RUN/main.o
hangul_mode         0x1               FLASH_RUN/lcd.o
__lock___arc4random_mutex
                    0x1               c:/program files (x86)/gnu tools arm embedded/9 2019-q4-major/bin/../lib/gcc/arm-none-eabi/9.2.1/../../../../arm-none-eabi/lib/thumb/v7-m/nofp\libc.a(lib_a-lock.o)
sw_cnt3             0x1               FLASH_RUN/main.o
mp3                 0x69              FLASH_RUN/mp3.o
seek_value          0x4               FLASH_RUN/mp3.o
dirs                0x1c              FLASH_RUN/mp3.o
flash_para          0x100             FLASH_RUN/serial.o
errno               0x4               c:/program files (x86)/gnu tools arm embedded/9 2019-q4-major/bin/../lib/gcc/arm-none-eabi/9.2.1/../../../../arm-none-eabi/lib/thumb/v7-m/nofp\libc.a(lib_a-reent.o)
ftemp               0x1               FLASH_RUN/mp3.o
fno                 0x18              FLASH_RUN/mp3.o
fs                  0x234             FLASH_RUN/mp3.o
background_color    0x2               FLASH_RUN/lcd.o
rxck2               0x1               FLASH_RUN/serial.o
sw_cnt2             0x1               FLASH_RUN/main.o
mp3_flag            0x1               FLASH_RUN/mp3.o
txled               0x1               FLASH_RUN/serial.o
volume              0x2               FLASH_RUN/main.o
buff                0x100             FLASH_RUN/lcd.o
now_time            0x4               FLASH_RUN/time.o
txbuff2             0x100             FLASH_RUN/serial.o
br                  0x4               FLASH_RUN/mp3.o
second              0x2               FLASH_RUN/main.o
__lock___env_recursive_mutex
                    0x1               c:/program files (x86)/gnu tools arm embedded/9 2019-q4-major/bin/../lib/gcc/arm-none-eabi/9.2.1/../../../../arm-none-eabi/lib/thumb/v7-m/nofp\libc.a(lib_a-lock.o)
__lock___sinit_recursive_mutex
                    0x1               c:/program files (x86)/gnu tools arm embedded/9 2019-q4-major/bin/../lib/gcc/arm-none-eabi/9.2.1/../../../../arm-none-eabi/lib/thumb/v7-m/nofp\libc.a(lib_a-lock.o)
max_col             0x2               FLASH_RUN/lcd.o
txcnt1              0x2               FLASH_RUN/serial.o
rxled               0x1               FLASH_RUN/serial.o
volume_flag         0x1               FLASH_RUN/main.o
maxx                0x2               FLASH_RUN/lcd.o
sw_cnt4             0x1               FLASH_RUN/main.o
txbuff1             0x100             FLASH_RUN/serial.o
USART1_PORT         0x1               FLASH_RUN/serial.o
ID3V1_Buf           0x80              FLASH_RUN/mp3.o
__lock___malloc_recursive_mutex
                    0x1               c:/program files (x86)/gnu tools arm embedded/9 2019-q4-major/bin/../lib/gcc/arm-none-eabi/9.2.1/../../../../arm-none-eabi/lib/thumb/v7-m/nofp\libc.a(lib_a-lock.o)
dumy_data           0x20              FLASH_RUN/lcd.o
sw_cnt1             0x1               FLASH_RUN/main.o
lyric               0xa               FLASH_RUN/mp3.o
ax                  0x2               FLASH_RUN/lcd.o
lrc                 0x50              FLASH_RUN/mp3.o
fdx                 0x1               FLASH_RUN/mp3.o
head                0x4               FLASH_RUN/mp3.o
fsrc                0x224             FLASH_RUN/mp3.o
tx                  0x2               FLASH_RUN/lcd.o
rxcnt2              0x2               FLASH_RUN/serial.o
maxtx1              0x2               FLASH_RUN/serial.o
buffer              0x400             FLASH_RUN/mp3.o
time_rtc_flag       0x1               FLASH_RUN/time.o
sw_value            0x1               FLASH_RUN/main.o
pen_enable          0x1               FLASH_RUN/ads7843.o
play_mp3            0x1               FLASH_RUN/main.o
tx_flag1            0x1               FLASH_RUN/serial.o
tick                0x2               FLASH_RUN/main.o
xLoc                0x2               FLASH_RUN/main.o
device_code         0x2               FLASH_RUN/lcd.o
eng_mode            0x2               FLASH_RUN/lcd.o
lrc_data            0x200             FLASH_RUN/mp3.o
fap                 0x224             FLASH_RUN/mp3.o
bw                  0x4               FLASH_RUN/mp3.o
buffer_read         0x1               FLASH_RUN/mp3.o
option_value        0x4               FLASH_RUN/main.o
pen_point           0x10              FLASH_RUN/ads7843.o
sw_cnt5             0x1               FLASH_RUN/main.o
sbuff               0x100             FLASH_RUN/serial.o
maxtx2              0x2               FLASH_RUN/serial.o
rxbuff1             0x100             FLASH_RUN/serial.o
page                0x2               FLASH_RUN/lcd.o
jiffes              0x2               FLASH_RUN/main.o
music_number        0x2               FLASH_RUN/mp3.o
lrc_buffer          0x1b58            FLASH_RUN/mp3.o
max_row             0x2               FLASH_RUN/lcd.o
tag_table           0x200             FLASH_RUN/mp3.o
ty                  0x2               FLASH_RUN/lcd.o
pen_status          0x1               FLASH_RUN/ads7843.o
txcnt2              0x2               FLASH_RUN/serial.o
__lock___at_quick_exit_mutex
                    0x1               c:/program files (x86)/gnu tools arm embedded/9 2019-q4-major/bin/../lib/gcc/arm-none-eabi/9.2.1/../../../../arm-none-eabi/lib/thumb/v7-m/nofp\libc.a(lib_a-lock.o)
rxcnt1              0x2               FLASH_RUN/serial.o
new_play            0x1               FLASH_RUN/mp3.o
res                 0x1               FLASH_RUN/mp3.o
sec_tick            0x2               FLASH_RUN/main.o
foreground_color    0x2               FLASH_RUN/lcd.o
__lock___dd_hash_mutex
                    0x1               c:/program files (x86)/gnu tools arm embedded/9 2019-q4-major/bin/../lib/gcc/arm-none-eabi/9.2.1/../../../../arm-none-eabi/lib/thumb/v7-m/nofp\libc.a(lib_a-lock.o)
__lock___tz_mutex   0x1               c:/program files (x86)/gnu tools arm embedded/9 2019-q4-major/bin/../lib/gcc/arm-none-eabi/9.2.1/../../../../arm-none-eabi/lib/thumb/v7-m/nofp\libc.a(lib_a-lock.o)
ay                  0x2               FLASH_RUN/lcd.o
rxbuff2             0x100             FLASH_RUN/serial.o
fileBuff            0x200             FLASH_RUN/main.o
pen_count           0x1               FLASH_RUN/ads7843.o
fii                 0x224             FLASH_RUN/mp3.o
tx_flag2            0x1               FLASH_RUN/serial.o
this_id             0x1               FLASH_RUN/serial.o
maxy                0x2               FLASH_RUN/lcd.o
rxck1               0x1               FLASH_RUN/serial.o
__lock___sfp_recursive_mutex
                    0x1               c:/program files (x86)/gnu tools arm embedded/9 2019-q4-major/bin/../lib/gcc/arm-none-eabi/9.2.1/../../../../arm-none-eabi/lib/thumb/v7-m/nofp\libc.a(lib_a-lock.o)

Discarded input sections

 .text          0x00000000        0x0 FLASH_RUN/main.o
 .data          0x00000000        0x0 FLASH_RUN/main.o
 .bss           0x00000000        0x0 FLASH_RUN/main.o
 .text.timer4_init
                0x00000000       0x54 FLASH_RUN/main.o
 .text          0x00000000        0x0 FLASH_RUN/serial.o
 .data          0x00000000        0x0 FLASH_RUN/serial.o
 .bss           0x00000000        0x0 FLASH_RUN/serial.o
 .text.uasrt_read
                0x00000000       0x70 FLASH_RUN/serial.o
 .text.usart_check
                0x00000000       0x2c FLASH_RUN/serial.o
 .text          0x00000000        0x0 FLASH_RUN/lcd.o
 .data          0x00000000        0x0 FLASH_RUN/lcd.o
 .bss           0x00000000        0x0 FLASH_RUN/lcd.o
 .text.lcd_data_write
                0x00000000        0xc FLASH_RUN/lcd.o
 .text.lcd_data_read
                0x00000000        0xc FLASH_RUN/lcd.o
 .text.lcd_read_data
                0x00000000       0x2c FLASH_RUN/lcd.o
 .text.lcd_write_ram
                0x00000000        0x4 FLASH_RUN/lcd.o
 .text.lcd_bgr_to_rgb
                0x00000000       0x10 FLASH_RUN/lcd.o
 .text.lcd_get_pixel
                0x00000000       0x44 FLASH_RUN/lcd.o
 .text.lcd_display_on
                0x00000000        0xa FLASH_RUN/lcd.o
 .text.lcd_display_off
                0x00000000        0x8 FLASH_RUN/lcd.o
 .text.lcd_delay
                0x00000000        0x4 FLASH_RUN/lcd.o
 .text.lcd_window_max
                0x00000000       0x60 FLASH_RUN/lcd.o
 .text.lcd_fill
                0x00000000       0x7a FLASH_RUN/lcd.o
 .text.lcd_draw_line
                0x00000000       0x9e FLASH_RUN/lcd.o
 .text.lcd_draw_rectangle
                0x00000000       0x3a FLASH_RUN/lcd.o
 .text.lcd_draw_circle
                0x00000000       0xe8 FLASH_RUN/lcd.o
 .text.set_color
                0x00000000        0xc FLASH_RUN/lcd.o
 .text.set_background_color
                0x00000000        0xc FLASH_RUN/lcd.o
 .text.uni_to_kssm2
                0x00000000       0x50 FLASH_RUN/lcd.o
 .text.put_engxy
                0x00000000       0x18 FLASH_RUN/lcd.o
 .text.put_hanxy
                0x00000000       0x38 FLASH_RUN/lcd.o
 .rodata.hangul_chosung_tbl
                0x00000000       0x26 FLASH_RUN/lcd.o
 .rodata.hangul_jongsung_tbl
                0x00000000       0x38 FLASH_RUN/lcd.o
 .rodata.hangul_jungsung_tbl
                0x00000000       0x2a FLASH_RUN/lcd.o
 .text          0x00000000        0x0 FLASH_RUN/ads7843.o
 .data          0x00000000        0x0 FLASH_RUN/ads7843.o
 .bss           0x00000000        0x0 FLASH_RUN/ads7843.o
 .text.read_tp_once
                0x00000000       0x60 FLASH_RUN/ads7843.o
 .text.drow_touch_point
                0x00000000       0x6e FLASH_RUN/ads7843.o
 .rodata.touch_adjust.str1.1
                0x00000000       0xaa FLASH_RUN/ads7843.o
 .text.touch_adjust
                0x00000000      0x464 FLASH_RUN/ads7843.o
 .text.draw_point
                0x00000000       0x30 FLASH_RUN/ads7843.o
 .text          0x00000000        0x0 FLASH_RUN/diskio.o
 .data          0x00000000        0x0 FLASH_RUN/diskio.o
 .bss           0x00000000        0x0 FLASH_RUN/diskio.o
 .text.disk_ioctl
                0x00000000       0x4c FLASH_RUN/diskio.o
 .text          0x00000000        0x0 FLASH_RUN/ff.o
 .data          0x00000000        0x0 FLASH_RUN/ff.o
 .bss           0x00000000        0x0 FLASH_RUN/ff.o
 .text.dir_remove
                0x00000000       0x24 FLASH_RUN/ff.o
 .text.sync     0x00000000       0x78 FLASH_RUN/ff.o
 .text.f_write  0x00000000      0x1aa FLASH_RUN/ff.o
 .text.f_sync   0x00000000       0xa0 FLASH_RUN/ff.o
 .text.f_close  0x00000000        0xe FLASH_RUN/ff.o
 .text.f_chdrive
                0x00000000       0x10 FLASH_RUN/ff.o
 .text.f_stat   0x00000000       0x3c FLASH_RUN/ff.o
 .text.f_getfree
                0x00000000       0xce FLASH_RUN/ff.o
 .text.f_truncate
                0x00000000       0x8a FLASH_RUN/ff.o
 .text.f_unlink
                0x00000000       0xb8 FLASH_RUN/ff.o
 .text.f_mkdir  0x00000000      0x1c6 FLASH_RUN/ff.o
 .text.f_chmod  0x00000000       0x50 FLASH_RUN/ff.o
 .text.f_utime  0x00000000       0x54 FLASH_RUN/ff.o
 .text.f_rename
                0x00000000      0x10a FLASH_RUN/ff.o
 .text.f_gets   0x00000000       0x40 FLASH_RUN/ff.o
 .text.f_putc   0x00000000       0x28 FLASH_RUN/ff.o
 .text.f_puts   0x00000000       0x1e FLASH_RUN/ff.o
 .text.f_printf
                0x00000000      0x13e FLASH_RUN/ff.o
 .text          0x00000000        0x0 FLASH_RUN/ccsbcs.o
 .data          0x00000000        0x0 FLASH_RUN/ccsbcs.o
 .bss           0x00000000        0x0 FLASH_RUN/ccsbcs.o
 .debug_info    0x00000000       0x7c FLASH_RUN/ccsbcs.o
 .debug_abbrev  0x00000000       0x40 FLASH_RUN/ccsbcs.o
 .debug_aranges
                0x00000000       0x18 FLASH_RUN/ccsbcs.o
 .debug_line    0x00000000       0x96 FLASH_RUN/ccsbcs.o
 .debug_str     0x00000000      0x16b FLASH_RUN/ccsbcs.o
 .comment       0x00000000       0x7a FLASH_RUN/ccsbcs.o
 .text          0x00000000        0x0 FLASH_RUN/sd_driver.o
 .data          0x00000000        0x0 FLASH_RUN/sd_driver.o
 .bss           0x00000000        0x0 FLASH_RUN/sd_driver.o
 .text.SD_get_cid
                0x00000000       0x20 FLASH_RUN/sd_driver.o
 .text.SD_get_csd
                0x00000000       0x20 FLASH_RUN/sd_driver.o
 .text.SD_get_capacity
                0x00000000       0x82 FLASH_RUN/sd_driver.o
 .text          0x00000000        0x0 FLASH_RUN/vs1003.o
 .data          0x00000000        0x0 FLASH_RUN/vs1003.o
 .bss           0x00000000        0x0 FLASH_RUN/vs1003.o
 .text.vs1003_ram_test
                0x00000000       0x74 FLASH_RUN/vs1003.o
 .text.get_spec
                0x00000000       0x26 FLASH_RUN/vs1003.o
 .bss.regvalue  0x00000000        0x2 FLASH_RUN/vs1003.o
 .text          0x00000000        0x0 FLASH_RUN/mp3.o
 .data          0x00000000        0x0 FLASH_RUN/mp3.o
 .bss           0x00000000        0x0 FLASH_RUN/mp3.o
 .text.hex2dec  0x00000000       0x26 FLASH_RUN/mp3.o
 .rodata.resume_music.str1.1
                0x00000000        0xa FLASH_RUN/mp3.o
 .text.resume_music
                0x00000000      0x2b4 FLASH_RUN/mp3.o
 .text.filtrate_music
                0x00000000      0x1b0 FLASH_RUN/mp3.o
 .rodata.mp3_name.str1.1
                0x00000000        0x5 FLASH_RUN/mp3.o
 .text.mp3_name
                0x00000000      0x1a8 FLASH_RUN/mp3.o
 .text.read_byte_lrcbuf
                0x00000000       0x14 FLASH_RUN/mp3.o
 .text.write_byte_lrcbuf
                0x00000000       0x18 FLASH_RUN/mp3.o
 .text.lrc_read_init
                0x00000000       0x18 FLASH_RUN/mp3.o
 .text.read_lrc_file_data
                0x00000000      0x170 FLASH_RUN/mp3.o
 .text.lyric_display_ctrl
                0x00000000       0x8c FLASH_RUN/mp3.o
 .text.lrc_synchron
                0x00000000      0x10c FLASH_RUN/mp3.o
 .text.get_byte
                0x00000000       0x78 FLASH_RUN/mp3.o
 .text.get_num  0x00000000       0x4e FLASH_RUN/mp3.o
 .text.get_tag  0x00000000       0xd0 FLASH_RUN/mp3.o
 .rodata.find_lrc.str1.1
                0x00000000        0xf FLASH_RUN/mp3.o
 .text.find_lrc
                0x00000000       0xd4 FLASH_RUN/mp3.o
 .text.init_tag
                0x00000000       0xc4 FLASH_RUN/mp3.o
 .text.copy_lyric
                0x00000000      0x1d4 FLASH_RUN/mp3.o
 .text.copy_lrc_to_ram
                0x00000000       0x84 FLASH_RUN/mp3.o
 .bss.bt30ms    0x00000000        0x1 FLASH_RUN/mp3.o
 .bss.bytepos.8799
                0x00000000        0x2 FLASH_RUN/mp3.o
 .bss.count.8718
                0x00000000        0x1 FLASH_RUN/mp3.o
 .bss.flag.8716
                0x00000000        0x1 FLASH_RUN/mp3.o
 .bss.j.8717    0x00000000        0x1 FLASH_RUN/mp3.o
 .bss.lrc_tag_cnt
                0x00000000        0x2 FLASH_RUN/mp3.o
 .bss.lrc_tag_type
                0x00000000        0x1 FLASH_RUN/mp3.o
 .bss.lrcbufpos.8842
                0x00000000        0x2 FLASH_RUN/mp3.o
 .bss.ms.8768   0x00000000        0x1 FLASH_RUN/mp3.o
 .bss.spedate   0x00000000        0xe FLASH_RUN/mp3.o
 .bss.tagpos.8841
                0x00000000        0x2 FLASH_RUN/mp3.o
 .bss.time.8767
                0x00000000        0x4 FLASH_RUN/mp3.o
 .bss.timetemp  0x00000000        0x2 FLASH_RUN/mp3.o
 .text          0x00000000        0x0 FLASH_RUN/core.o
 .data          0x00000000        0x0 FLASH_RUN/core.o
 .bss           0x00000000        0x0 FLASH_RUN/core.o
 .text.get_heap_end
                0x00000000        0xc FLASH_RUN/core.o
 .text.get_stack_top
                0x00000000        0x4 FLASH_RUN/core.o
 .text._close   0x00000000        0x6 FLASH_RUN/core.o
 .text._fstat   0x00000000        0xa FLASH_RUN/core.o
 .text._isatty  0x00000000        0x4 FLASH_RUN/core.o
 .text._lseek   0x00000000        0x4 FLASH_RUN/core.o
 .text._read    0x00000000        0x4 FLASH_RUN/core.o
 .rodata._write.str1.1
                0x00000000        0x3 FLASH_RUN/core.o
 .text._write   0x00000000       0x24 FLASH_RUN/core.o
 .text          0x00000000        0x0 FLASH_RUN/time.o
 .data          0x00000000        0x0 FLASH_RUN/time.o
 .bss           0x00000000        0x0 FLASH_RUN/time.o
 .text          0x00000000        0x0 /project/stm32fx_lib/stm32f1x_iolib/stm32f1x_iolib_hd_st32_8MHz.a(startup.o)
 .data          0x00000000        0x0 /project/stm32fx_lib/stm32f1x_iolib/stm32f1x_iolib_hd_st32_8MHz.a(startup.o)
 .bss           0x00000000        0x0 /project/stm32fx_lib/stm32f1x_iolib/stm32f1x_iolib_hd_st32_8MHz.a(startup.o)
 .text          0x00000000        0x0 /project/stm32fx_lib/stm32f1x_iolib/stm32f1x_iolib_hd_st32_8MHz.a(system.o)
 .data          0x00000000        0x0 /project/stm32fx_lib/stm32f1x_iolib/stm32f1x_iolib_hd_st32_8MHz.a(system.o)
 .bss           0x00000000        0x0 /project/stm32fx_lib/stm32f1x_iolib/stm32f1x_iolib_hd_st32_8MHz.a(system.o)
 .text.SystemCoreClockUpdate
                0x00000000       0x70 /project/stm32fx_lib/stm32f1x_iolib/stm32f1x_iolib_hd_st32_8MHz.a(system.o)
 .data.AHBPrescTable
                0x00000000       0x10 /project/stm32fx_lib/stm32f1x_iolib/stm32f1x_iolib_hd_st32_8MHz.a(system.o)
 .text          0x00000000        0x0 /project/stm32fx_lib/stm32f1x_iolib/stm32f1x_iolib_hd_st32_8MHz.a(irq.o)
 .data          0x00000000        0x0 /project/stm32fx_lib/stm32f1x_iolib/stm32f1x_iolib_hd_st32_8MHz.a(irq.o)
 .bss           0x00000000        0x0 /project/stm32fx_lib/stm32f1x_iolib/stm32f1x_iolib_hd_st32_8MHz.a(irq.o)
 .text.NVIC_SystemLPConfig
                0x00000000       0x18 /project/stm32fx_lib/stm32f1x_iolib/stm32f1x_iolib_hd_st32_8MHz.a(irq.o)
 .text.SysTick_CLKSourceConfig
                0x00000000       0x18 /project/stm32fx_lib/stm32f1x_iolib/stm32f1x_iolib_hd_st32_8MHz.a(irq.o)
 .text          0x00000000        0x0 /project/stm32fx_lib/stm32f1x_iolib/stm32f1x_iolib_hd_st32_8MHz.a(rcc.o)
 .data          0x00000000        0x0 /project/stm32fx_lib/stm32f1x_iolib/stm32f1x_iolib_hd_st32_8MHz.a(rcc.o)
 .bss           0x00000000        0x0 /project/stm32fx_lib/stm32f1x_iolib/stm32f1x_iolib_hd_st32_8MHz.a(rcc.o)
 .text.RCC_DeInit
                0x00000000       0x40 /project/stm32fx_lib/stm32f1x_iolib/stm32f1x_iolib_hd_st32_8MHz.a(rcc.o)
 .text.RCC_HSEConfig
                0x00000000       0x38 /project/stm32fx_lib/stm32f1x_iolib/stm32f1x_iolib_hd_st32_8MHz.a(rcc.o)
 .text.RCC_AdjustHSICalibrationValue
                0x00000000       0x14 /project/stm32fx_lib/stm32f1x_iolib/stm32f1x_iolib_hd_st32_8MHz.a(rcc.o)
 .text.RCC_HSICmd
                0x00000000        0xc /project/stm32fx_lib/stm32f1x_iolib/stm32f1x_iolib_hd_st32_8MHz.a(rcc.o)
 .text.RCC_PLLConfig
                0x00000000       0x14 /project/stm32fx_lib/stm32f1x_iolib/stm32f1x_iolib_hd_st32_8MHz.a(rcc.o)
 .text.RCC_PLLCmd
                0x00000000        0xc /project/stm32fx_lib/stm32f1x_iolib/stm32f1x_iolib_hd_st32_8MHz.a(rcc.o)
 .text.RCC_SYSCLKConfig
                0x00000000       0x14 /project/stm32fx_lib/stm32f1x_iolib/stm32f1x_iolib_hd_st32_8MHz.a(rcc.o)
 .text.RCC_GetSYSCLKSource
                0x00000000       0x10 /project/stm32fx_lib/stm32f1x_iolib/stm32f1x_iolib_hd_st32_8MHz.a(rcc.o)
 .text.RCC_HCLKConfig
                0x00000000       0x14 /project/stm32fx_lib/stm32f1x_iolib/stm32f1x_iolib_hd_st32_8MHz.a(rcc.o)
 .text.RCC_PCLK1Config
                0x00000000       0x14 /project/stm32fx_lib/stm32f1x_iolib/stm32f1x_iolib_hd_st32_8MHz.a(rcc.o)
 .text.RCC_PCLK2Config
                0x00000000       0x14 /project/stm32fx_lib/stm32f1x_iolib/stm32f1x_iolib_hd_st32_8MHz.a(rcc.o)
 .text.RCC_ITConfig
                0x00000000       0x18 /project/stm32fx_lib/stm32f1x_iolib/stm32f1x_iolib_hd_st32_8MHz.a(rcc.o)
 .text.RCC_USBCLKConfig
                0x00000000        0xc /project/stm32fx_lib/stm32f1x_iolib/stm32f1x_iolib_hd_st32_8MHz.a(rcc.o)
 .text.RCC_LSICmd
                0x00000000        0xc /project/stm32fx_lib/stm32f1x_iolib/stm32f1x_iolib_hd_st32_8MHz.a(rcc.o)
 .text.RCC_AHBPeriphClockCmd
                0x00000000       0x18 /project/stm32fx_lib/stm32f1x_iolib/stm32f1x_iolib_hd_st32_8MHz.a(rcc.o)
 .text.RCC_APB1PeriphResetCmd
                0x00000000       0x18 /project/stm32fx_lib/stm32f1x_iolib/stm32f1x_iolib_hd_st32_8MHz.a(rcc.o)
 .text.RCC_ClockSecuritySystemCmd
                0x00000000        0xc /project/stm32fx_lib/stm32f1x_iolib/stm32f1x_iolib_hd_st32_8MHz.a(rcc.o)
 .text.RCC_MCOConfig
                0x00000000        0xc /project/stm32fx_lib/stm32f1x_iolib/stm32f1x_iolib_hd_st32_8MHz.a(rcc.o)
 .text.RCC_WaitForHSEStartUp
                0x00000000       0x32 /project/stm32fx_lib/stm32f1x_iolib/stm32f1x_iolib_hd_st32_8MHz.a(rcc.o)
 .text.RCC_ClearFlag
                0x00000000       0x10 /project/stm32fx_lib/stm32f1x_iolib/stm32f1x_iolib_hd_st32_8MHz.a(rcc.o)
 .text.RCC_GetITStatus
                0x00000000       0x14 /project/stm32fx_lib/stm32f1x_iolib/stm32f1x_iolib_hd_st32_8MHz.a(rcc.o)
 .text.RCC_ClearITPendingBit
                0x00000000        0xc /project/stm32fx_lib/stm32f1x_iolib/stm32f1x_iolib_hd_st32_8MHz.a(rcc.o)
 .text          0x00000000        0x0 /project/stm32fx_lib/stm32f1x_iolib/stm32f1x_iolib_hd_st32_8MHz.a(adc.o)
 .data          0x00000000        0x0 /project/stm32fx_lib/stm32f1x_iolib/stm32f1x_iolib_hd_st32_8MHz.a(adc.o)
 .bss           0x00000000        0x0 /project/stm32fx_lib/stm32f1x_iolib/stm32f1x_iolib_hd_st32_8MHz.a(adc.o)
 .text.ADC_DMACmd
                0x00000000       0x12 /project/stm32fx_lib/stm32f1x_iolib/stm32f1x_iolib_hd_st32_8MHz.a(adc.o)
 .text.ADC_ITConfig
                0x00000000       0x12 /project/stm32fx_lib/stm32f1x_iolib/stm32f1x_iolib_hd_st32_8MHz.a(adc.o)
 .text.ADC_ResetCalibration
                0x00000000        0xa /project/stm32fx_lib/stm32f1x_iolib/stm32f1x_iolib_hd_st32_8MHz.a(adc.o)
 .text.ADC_GetResetCalibrationStatus
                0x00000000        0x8 /project/stm32fx_lib/stm32f1x_iolib/stm32f1x_iolib_hd_st32_8MHz.a(adc.o)
 .text.ADC_SoftwareStartConvCmd
                0x00000000       0x12 /project/stm32fx_lib/stm32f1x_iolib/stm32f1x_iolib_hd_st32_8MHz.a(adc.o)
 .text.ADC_GetSoftwareStartConvStatus
                0x00000000        0x8 /project/stm32fx_lib/stm32f1x_iolib/stm32f1x_iolib_hd_st32_8MHz.a(adc.o)
 .text.ADC_DiscModeChannelCountConfig
                0x00000000       0x10 /project/stm32fx_lib/stm32f1x_iolib/stm32f1x_iolib_hd_st32_8MHz.a(adc.o)
 .text.ADC_DiscModeCmd
                0x00000000       0x12 /project/stm32fx_lib/stm32f1x_iolib/stm32f1x_iolib_hd_st32_8MHz.a(adc.o)
 .text.ADC_RegularChannelConfig
                0x00000000       0x90 /project/stm32fx_lib/stm32f1x_iolib/stm32f1x_iolib_hd_st32_8MHz.a(adc.o)
 .text.ADC_ExternalTrigConvCmd
                0x00000000       0x12 /project/stm32fx_lib/stm32f1x_iolib/stm32f1x_iolib_hd_st32_8MHz.a(adc.o)
 .text.ADC_GetConversionValue
                0x00000000        0x6 /project/stm32fx_lib/stm32f1x_iolib/stm32f1x_iolib_hd_st32_8MHz.a(adc.o)
 .text.ADC_GetDualModeConversionValue
                0x00000000        0xc /project/stm32fx_lib/stm32f1x_iolib/stm32f1x_iolib_hd_st32_8MHz.a(adc.o)
 .text.ADC_AutoInjectedConvCmd
                0x00000000       0x12 /project/stm32fx_lib/stm32f1x_iolib/stm32f1x_iolib_hd_st32_8MHz.a(adc.o)
 .text.ADC_InjectedDiscModeCmd
                0x00000000       0x12 /project/stm32fx_lib/stm32f1x_iolib/stm32f1x_iolib_hd_st32_8MHz.a(adc.o)
 .text.ADC_GetSoftwareStartInjectedConvCmdStatus
                0x00000000        0x8 /project/stm32fx_lib/stm32f1x_iolib/stm32f1x_iolib_hd_st32_8MHz.a(adc.o)
 .text.ADC_SetInjectedOffset
                0x00000000       0x16 /project/stm32fx_lib/stm32f1x_iolib/stm32f1x_iolib_hd_st32_8MHz.a(adc.o)
 .text.ADC_AnalogWatchdogCmd
                0x00000000       0x10 /project/stm32fx_lib/stm32f1x_iolib/stm32f1x_iolib_hd_st32_8MHz.a(adc.o)
 .text.ADC_AnalogWatchdogThresholdsConfig
                0x00000000        0x6 /project/stm32fx_lib/stm32f1x_iolib/stm32f1x_iolib_hd_st32_8MHz.a(adc.o)
 .text.ADC_AnalogWatchdogSingleChannelConfig
                0x00000000        0xc /project/stm32fx_lib/stm32f1x_iolib/stm32f1x_iolib_hd_st32_8MHz.a(adc.o)
 .text.ADC_TempSensorVrefintCmd
                0x00000000       0x18 /project/stm32fx_lib/stm32f1x_iolib/stm32f1x_iolib_hd_st32_8MHz.a(adc.o)
 .text.ADC_GetITStatus
                0x00000000       0x16 /project/stm32fx_lib/stm32f1x_iolib/stm32f1x_iolib_hd_st32_8MHz.a(adc.o)
 .text.ADC_ClearITPendingBit
                0x00000000        0x8 /project/stm32fx_lib/stm32f1x_iolib/stm32f1x_iolib_hd_st32_8MHz.a(adc.o)
 .text          0x00000000        0x0 /project/stm32fx_lib/stm32f1x_iolib/stm32f1x_iolib_hd_st32_8MHz.a(bkp.o)
 .data          0x00000000        0x0 /project/stm32fx_lib/stm32f1x_iolib/stm32f1x_iolib_hd_st32_8MHz.a(bkp.o)
 .bss           0x00000000        0x0 /project/stm32fx_lib/stm32f1x_iolib/stm32f1x_iolib_hd_st32_8MHz.a(bkp.o)
 .text.BKP_TamperPinLevelConfig
                0x00000000        0xc /project/stm32fx_lib/stm32f1x_iolib/stm32f1x_iolib_hd_st32_8MHz.a(bkp.o)
 .text.BKP_RTCOutputConfig
                0x00000000       0x18 /project/stm32fx_lib/stm32f1x_iolib/stm32f1x_iolib_hd_st32_8MHz.a(bkp.o)
 .text.BKP_SetRTCCalibrationValue
                0x00000000       0x18 /project/stm32fx_lib/stm32f1x_iolib/stm32f1x_iolib_hd_st32_8MHz.a(bkp.o)
 .text.BKP_GetFlagStatus
                0x00000000        0xc /project/stm32fx_lib/stm32f1x_iolib/stm32f1x_iolib_hd_st32_8MHz.a(bkp.o)
 .text.BKP_GetITStatus
                0x00000000        0xc /project/stm32fx_lib/stm32f1x_iolib/stm32f1x_iolib_hd_st32_8MHz.a(bkp.o)
 .text.BKP_ClearITPendingBit
                0x00000000       0x14 /project/stm32fx_lib/stm32f1x_iolib/stm32f1x_iolib_hd_st32_8MHz.a(bkp.o)
 .text          0x00000000        0x0 /project/stm32fx_lib/stm32f1x_iolib/stm32f1x_iolib_hd_st32_8MHz.a(exti.o)
 .data          0x00000000        0x0 /project/stm32fx_lib/stm32f1x_iolib/stm32f1x_iolib_hd_st32_8MHz.a(exti.o)
 .bss           0x00000000        0x0 /project/stm32fx_lib/stm32f1x_iolib/stm32f1x_iolib_hd_st32_8MHz.a(exti.o)
 .text.EXTI_DeInit
                0x00000000       0x1c /project/stm32fx_lib/stm32f1x_iolib/stm32f1x_iolib_hd_st32_8MHz.a(exti.o)
 .text.EXTI_StructInit
                0x00000000        0xe /project/stm32fx_lib/stm32f1x_iolib/stm32f1x_iolib_hd_st32_8MHz.a(exti.o)
 .text.EXTI_GenerateSWInterrupt
                0x00000000       0x10 /project/stm32fx_lib/stm32f1x_iolib/stm32f1x_iolib_hd_st32_8MHz.a(exti.o)
 .text.EXTI_GetFlagStatus
                0x00000000       0x14 /project/stm32fx_lib/stm32f1x_iolib/stm32f1x_iolib_hd_st32_8MHz.a(exti.o)
 .text          0x00000000        0x0 /project/stm32fx_lib/stm32f1x_iolib/stm32f1x_iolib_hd_st32_8MHz.a(flash.o)
 .data          0x00000000        0x0 /project/stm32fx_lib/stm32f1x_iolib/stm32f1x_iolib_hd_st32_8MHz.a(flash.o)
 .bss           0x00000000        0x0 /project/stm32fx_lib/stm32f1x_iolib/stm32f1x_iolib_hd_st32_8MHz.a(flash.o)
 .text.FLASH_SetLatency
                0x00000000       0x14 /project/stm32fx_lib/stm32f1x_iolib/stm32f1x_iolib_hd_st32_8MHz.a(flash.o)
 .text.FLASH_HalfCycleAccessCmd
                0x00000000       0x18 /project/stm32fx_lib/stm32f1x_iolib/stm32f1x_iolib_hd_st32_8MHz.a(flash.o)
 .text.FLASH_PrefetchBufferCmd
                0x00000000       0x18 /project/stm32fx_lib/stm32f1x_iolib/stm32f1x_iolib_hd_st32_8MHz.a(flash.o)
 .text.FLASH_UnlockBank1
                0x00000000       0x18 /project/stm32fx_lib/stm32f1x_iolib/stm32f1x_iolib_hd_st32_8MHz.a(flash.o)
 .text.FLASH_LockBank1
                0x00000000       0x10 /project/stm32fx_lib/stm32f1x_iolib/stm32f1x_iolib_hd_st32_8MHz.a(flash.o)
 .text.FLASH_GetUserOptionByte
                0x00000000        0xc /project/stm32fx_lib/stm32f1x_iolib/stm32f1x_iolib_hd_st32_8MHz.a(flash.o)
 .text.FLASH_GetWriteProtectionOptionByte
                0x00000000        0xc /project/stm32fx_lib/stm32f1x_iolib/stm32f1x_iolib_hd_st32_8MHz.a(flash.o)
 .text.FLASH_GetPrefetchBufferStatus
                0x00000000       0x10 /project/stm32fx_lib/stm32f1x_iolib/stm32f1x_iolib_hd_st32_8MHz.a(flash.o)
 .text.FLASH_ITConfig
                0x00000000       0x18 /project/stm32fx_lib/stm32f1x_iolib/stm32f1x_iolib_hd_st32_8MHz.a(flash.o)
 .text.FLASH_GetFlagStatus
                0x00000000       0x20 /project/stm32fx_lib/stm32f1x_iolib/stm32f1x_iolib_hd_st32_8MHz.a(flash.o)
 .text.FLASH_ClearFlag
                0x00000000        0xc /project/stm32fx_lib/stm32f1x_iolib/stm32f1x_iolib_hd_st32_8MHz.a(flash.o)
 .text.FLASH_GetStatus
                0x00000000       0x28 /project/stm32fx_lib/stm32f1x_iolib/stm32f1x_iolib_hd_st32_8MHz.a(flash.o)
 .text.FLASH_ErasePage
                0x00000000       0x3c /project/stm32fx_lib/stm32f1x_iolib/stm32f1x_iolib_hd_st32_8MHz.a(flash.o)
 .text.FLASH_EraseAllPages
                0x00000000       0x38 /project/stm32fx_lib/stm32f1x_iolib/stm32f1x_iolib_hd_st32_8MHz.a(flash.o)
 .text.FLASH_ProgramWord
                0x00000000       0x54 /project/stm32fx_lib/stm32f1x_iolib/stm32f1x_iolib_hd_st32_8MHz.a(flash.o)
 .text.FLASH_ProgramHalfWord
                0x00000000       0x38 /project/stm32fx_lib/stm32f1x_iolib/stm32f1x_iolib_hd_st32_8MHz.a(flash.o)
 .text.FLASH_ProgramOptionByteData
                0x00000000       0x48 /project/stm32fx_lib/stm32f1x_iolib/stm32f1x_iolib_hd_st32_8MHz.a(flash.o)
 .text.FLASH_EnableWriteProtection
                0x00000000       0xa4 /project/stm32fx_lib/stm32f1x_iolib/stm32f1x_iolib_hd_st32_8MHz.a(flash.o)
 .text.FLASH_UserOptionByteConfig
                0x00000000       0x58 /project/stm32fx_lib/stm32f1x_iolib/stm32f1x_iolib_hd_st32_8MHz.a(flash.o)
 .text.FLASH_WaitForLastBank1Operation
                0x00000000       0x22 /project/stm32fx_lib/stm32f1x_iolib/stm32f1x_iolib_hd_st32_8MHz.a(flash.o)
 .text.FLASH_EraseAllBank1Pages
                0x00000000       0x38 /project/stm32fx_lib/stm32f1x_iolib/stm32f1x_iolib_hd_st32_8MHz.a(flash.o)
 .text          0x00000000        0x0 /project/stm32fx_lib/stm32f1x_iolib/stm32f1x_iolib_hd_st32_8MHz.a(gpio.o)
 .data          0x00000000        0x0 /project/stm32fx_lib/stm32f1x_iolib/stm32f1x_iolib_hd_st32_8MHz.a(gpio.o)
 .bss           0x00000000        0x0 /project/stm32fx_lib/stm32f1x_iolib/stm32f1x_iolib_hd_st32_8MHz.a(gpio.o)
 .text.GPIO_DeInit
                0x00000000       0xac /project/stm32fx_lib/stm32f1x_iolib/stm32f1x_iolib_hd_st32_8MHz.a(gpio.o)
 .text.GPIO_AFIODeInit
                0x00000000       0x16 /project/stm32fx_lib/stm32f1x_iolib/stm32f1x_iolib_hd_st32_8MHz.a(gpio.o)
 .text.GPIO_Init
                0x00000000       0xa8 /project/stm32fx_lib/stm32f1x_iolib/stm32f1x_iolib_hd_st32_8MHz.a(gpio.o)
 .text.GPIO_StructInit
                0x00000000       0x10 /project/stm32fx_lib/stm32f1x_iolib/stm32f1x_iolib_hd_st32_8MHz.a(gpio.o)
 .text.GPIO_ReadInputDataBit
                0x00000000        0xc /project/stm32fx_lib/stm32f1x_iolib/stm32f1x_iolib_hd_st32_8MHz.a(gpio.o)
 .text.GPIO_ReadInputData
                0x00000000        0x6 /project/stm32fx_lib/stm32f1x_iolib/stm32f1x_iolib_hd_st32_8MHz.a(gpio.o)
 .text.GPIO_ReadOutputDataBit
                0x00000000        0xc /project/stm32fx_lib/stm32f1x_iolib/stm32f1x_iolib_hd_st32_8MHz.a(gpio.o)
 .text.GPIO_ReadOutputData
                0x00000000        0x6 /project/stm32fx_lib/stm32f1x_iolib/stm32f1x_iolib_hd_st32_8MHz.a(gpio.o)
 .text.GPIO_WriteBit
                0x00000000        0xa /project/stm32fx_lib/stm32f1x_iolib/stm32f1x_iolib_hd_st32_8MHz.a(gpio.o)
 .text.GPIO_Write
                0x00000000        0x4 /project/stm32fx_lib/stm32f1x_iolib/stm32f1x_iolib_hd_st32_8MHz.a(gpio.o)
 .text.GPIO_PinLockConfig
                0x00000000       0x10 /project/stm32fx_lib/stm32f1x_iolib/stm32f1x_iolib_hd_st32_8MHz.a(gpio.o)
 .text.GPIO_EventOutputConfig
                0x00000000       0x1c /project/stm32fx_lib/stm32f1x_iolib/stm32f1x_iolib_hd_st32_8MHz.a(gpio.o)
 .text.GPIO_EventOutputCmd
                0x00000000        0xc /project/stm32fx_lib/stm32f1x_iolib/stm32f1x_iolib_hd_st32_8MHz.a(gpio.o)
 .text.GPIO_ETH_MediaInterfaceConfig
                0x00000000        0xc /project/stm32fx_lib/stm32f1x_iolib/stm32f1x_iolib_hd_st32_8MHz.a(gpio.o)
 .text          0x00000000        0x0 /project/stm32fx_lib/stm32f1x_iolib/stm32f1x_iolib_hd_st32_8MHz.a(iwdg.o)
 .data          0x00000000        0x0 /project/stm32fx_lib/stm32f1x_iolib/stm32f1x_iolib_hd_st32_8MHz.a(iwdg.o)
 .bss           0x00000000        0x0 /project/stm32fx_lib/stm32f1x_iolib/stm32f1x_iolib_hd_st32_8MHz.a(iwdg.o)
 .text.IWDG_WriteAccessCmd
                0x00000000        0xc /project/stm32fx_lib/stm32f1x_iolib/stm32f1x_iolib_hd_st32_8MHz.a(iwdg.o)
 .text.IWDG_SetPrescaler
                0x00000000        0xc /project/stm32fx_lib/stm32f1x_iolib/stm32f1x_iolib_hd_st32_8MHz.a(iwdg.o)
 .text.IWDG_SetReload
                0x00000000        0xc /project/stm32fx_lib/stm32f1x_iolib/stm32f1x_iolib_hd_st32_8MHz.a(iwdg.o)
 .text.IWDG_Enable
                0x00000000       0x10 /project/stm32fx_lib/stm32f1x_iolib/stm32f1x_iolib_hd_st32_8MHz.a(iwdg.o)
 .text.IWDG_GetFlagStatus
                0x00000000       0x14 /project/stm32fx_lib/stm32f1x_iolib/stm32f1x_iolib_hd_st32_8MHz.a(iwdg.o)
 .text          0x00000000        0x0 /project/stm32fx_lib/stm32f1x_iolib/stm32f1x_iolib_hd_st32_8MHz.a(pwr.o)
 .data          0x00000000        0x0 /project/stm32fx_lib/stm32f1x_iolib/stm32f1x_iolib_hd_st32_8MHz.a(pwr.o)
 .bss           0x00000000        0x0 /project/stm32fx_lib/stm32f1x_iolib/stm32f1x_iolib_hd_st32_8MHz.a(pwr.o)
 .text.PWR_DeInit
                0x00000000       0x1a /project/stm32fx_lib/stm32f1x_iolib/stm32f1x_iolib_hd_st32_8MHz.a(pwr.o)
 .text.PWR_PVDCmd
                0x00000000        0xc /project/stm32fx_lib/stm32f1x_iolib/stm32f1x_iolib_hd_st32_8MHz.a(pwr.o)
 .text.PWR_PVDLevelConfig
                0x00000000       0x14 /project/stm32fx_lib/stm32f1x_iolib/stm32f1x_iolib_hd_st32_8MHz.a(pwr.o)
 .text.PWR_WakeUpPinCmd
                0x00000000        0xc /project/stm32fx_lib/stm32f1x_iolib/stm32f1x_iolib_hd_st32_8MHz.a(pwr.o)
 .text.PWR_EnterSTOPMode
                0x00000000       0x34 /project/stm32fx_lib/stm32f1x_iolib/stm32f1x_iolib_hd_st32_8MHz.a(pwr.o)
 .text.PWR_EnterSTANDBYMode
                0x00000000       0x28 /project/stm32fx_lib/stm32f1x_iolib/stm32f1x_iolib_hd_st32_8MHz.a(pwr.o)
 .text.PWR_GetFlagStatus
                0x00000000       0x14 /project/stm32fx_lib/stm32f1x_iolib/stm32f1x_iolib_hd_st32_8MHz.a(pwr.o)
 .text.PWR_ClearFlag
                0x00000000       0x10 /project/stm32fx_lib/stm32f1x_iolib/stm32f1x_iolib_hd_st32_8MHz.a(pwr.o)
 .text          0x00000000        0x0 /project/stm32fx_lib/stm32f1x_iolib/stm32f1x_iolib_hd_st32_8MHz.a(rtc.o)
 .data          0x00000000        0x0 /project/stm32fx_lib/stm32f1x_iolib/stm32f1x_iolib_hd_st32_8MHz.a(rtc.o)
 .bss           0x00000000        0x0 /project/stm32fx_lib/stm32f1x_iolib/stm32f1x_iolib_hd_st32_8MHz.a(rtc.o)
 .text.RTC_SetAlarm
                0x00000000       0x1c /project/stm32fx_lib/stm32f1x_iolib/stm32f1x_iolib_hd_st32_8MHz.a(rtc.o)
 .text.RTC_GetDivider
                0x00000000       0x18 /project/stm32fx_lib/stm32f1x_iolib/stm32f1x_iolib_hd_st32_8MHz.a(rtc.o)
 .text.RTC_GetFlagStatus
                0x00000000       0x14 /project/stm32fx_lib/stm32f1x_iolib/stm32f1x_iolib_hd_st32_8MHz.a(rtc.o)
 .text.RTC_ClearFlag
                0x00000000       0x14 /project/stm32fx_lib/stm32f1x_iolib/stm32f1x_iolib_hd_st32_8MHz.a(rtc.o)
 .text          0x00000000        0x0 /project/stm32fx_lib/stm32f1x_iolib/stm32f1x_iolib_hd_st32_8MHz.a(spi.o)
 .data          0x00000000        0x0 /project/stm32fx_lib/stm32f1x_iolib/stm32f1x_iolib_hd_st32_8MHz.a(spi.o)
 .bss           0x00000000        0x0 /project/stm32fx_lib/stm32f1x_iolib/stm32f1x_iolib_hd_st32_8MHz.a(spi.o)
 .text.SPI_I2S_DeInit
                0x00000000       0x64 /project/stm32fx_lib/stm32f1x_iolib/stm32f1x_iolib_hd_st32_8MHz.a(spi.o)
 .text.I2S_Init
                0x00000000       0xa4 /project/stm32fx_lib/stm32f1x_iolib/stm32f1x_iolib_hd_st32_8MHz.a(spi.o)
 .text.SPI_StructInit
                0x00000000       0x18 /project/stm32fx_lib/stm32f1x_iolib/stm32f1x_iolib_hd_st32_8MHz.a(spi.o)
 .text.I2S_StructInit
                0x00000000       0x12 /project/stm32fx_lib/stm32f1x_iolib/stm32f1x_iolib_hd_st32_8MHz.a(spi.o)
 .text.I2S_Cmd  0x00000000       0x18 /project/stm32fx_lib/stm32f1x_iolib/stm32f1x_iolib_hd_st32_8MHz.a(spi.o)
 .text.SPI_I2S_ITConfig
                0x00000000       0x1e /project/stm32fx_lib/stm32f1x_iolib/stm32f1x_iolib_hd_st32_8MHz.a(spi.o)
 .text.SPI_I2S_DMACmd
                0x00000000       0x12 /project/stm32fx_lib/stm32f1x_iolib/stm32f1x_iolib_hd_st32_8MHz.a(spi.o)
 .text.SPI_NSSInternalSoftwareConfig
                0x00000000       0x1e /project/stm32fx_lib/stm32f1x_iolib/stm32f1x_iolib_hd_st32_8MHz.a(spi.o)
 .text.SPI_SSOutputCmd
                0x00000000       0x18 /project/stm32fx_lib/stm32f1x_iolib/stm32f1x_iolib_hd_st32_8MHz.a(spi.o)
 .text.SPI_DataSizeConfig
                0x00000000       0x16 /project/stm32fx_lib/stm32f1x_iolib/stm32f1x_iolib_hd_st32_8MHz.a(spi.o)
 .text.SPI_TransmitCRC
                0x00000000        0xc /project/stm32fx_lib/stm32f1x_iolib/stm32f1x_iolib_hd_st32_8MHz.a(spi.o)
 .text.SPI_CalculateCRC
                0x00000000       0x18 /project/stm32fx_lib/stm32f1x_iolib/stm32f1x_iolib_hd_st32_8MHz.a(spi.o)
 .text.SPI_GetCRC
                0x00000000        0xc /project/stm32fx_lib/stm32f1x_iolib/stm32f1x_iolib_hd_st32_8MHz.a(spi.o)
 .text.SPI_GetCRCPolynomial
                0x00000000        0x6 /project/stm32fx_lib/stm32f1x_iolib/stm32f1x_iolib_hd_st32_8MHz.a(spi.o)
 .text.SPI_BiDirectionalLineConfig
                0x00000000       0x1c /project/stm32fx_lib/stm32f1x_iolib/stm32f1x_iolib_hd_st32_8MHz.a(spi.o)
 .text.SPI_I2S_ClearFlag
                0x00000000        0x8 /project/stm32fx_lib/stm32f1x_iolib/stm32f1x_iolib_hd_st32_8MHz.a(spi.o)
 .text.SPI_I2S_GetITStatus
                0x00000000       0x26 /project/stm32fx_lib/stm32f1x_iolib/stm32f1x_iolib_hd_st32_8MHz.a(spi.o)
 .text.SPI_I2S_ClearITPendingBit
                0x00000000       0x10 /project/stm32fx_lib/stm32f1x_iolib/stm32f1x_iolib_hd_st32_8MHz.a(spi.o)
 .text          0x00000000        0x0 /project/stm32fx_lib/stm32f1x_iolib/stm32f1x_iolib_hd_st32_8MHz.a(timer.o)
 .data          0x00000000        0x0 /project/stm32fx_lib/stm32f1x_iolib/stm32f1x_iolib_hd_st32_8MHz.a(timer.o)
 .bss           0x00000000        0x0 /project/stm32fx_lib/stm32f1x_iolib/stm32f1x_iolib_hd_st32_8MHz.a(timer.o)
 .text.TI1_Config
                0x00000000       0x68 /project/stm32fx_lib/stm32f1x_iolib/stm32f1x_iolib_hd_st32_8MHz.a(timer.o)
 .text.TI2_Config
                0x00000000       0x78 /project/stm32fx_lib/stm32f1x_iolib/stm32f1x_iolib_hd_st32_8MHz.a(timer.o)
 .text.TIM_DeInit
                0x00000000      0x1ac /project/stm32fx_lib/stm32f1x_iolib/stm32f1x_iolib_hd_st32_8MHz.a(timer.o)
 .text.TIM_TimeBaseInit
                0x00000000       0x94 /project/stm32fx_lib/stm32f1x_iolib/stm32f1x_iolib_hd_st32_8MHz.a(timer.o)
 .text.TIM_OC1Init
                0x00000000       0x88 /project/stm32fx_lib/stm32f1x_iolib/stm32f1x_iolib_hd_st32_8MHz.a(timer.o)
 .text.TIM_OC2Init
                0x00000000       0x88 /project/stm32fx_lib/stm32f1x_iolib/stm32f1x_iolib_hd_st32_8MHz.a(timer.o)
 .text.TIM_OC3Init
                0x00000000       0x84 /project/stm32fx_lib/stm32f1x_iolib/stm32f1x_iolib_hd_st32_8MHz.a(timer.o)
 .text.TIM_OC4Init
                0x00000000       0x68 /project/stm32fx_lib/stm32f1x_iolib/stm32f1x_iolib_hd_st32_8MHz.a(timer.o)
 .text.TIM_BDTRConfig
                0x00000000       0x22 /project/stm32fx_lib/stm32f1x_iolib/stm32f1x_iolib_hd_st32_8MHz.a(timer.o)
 .text.TIM_TimeBaseStructInit
                0x00000000       0x12 /project/stm32fx_lib/stm32f1x_iolib/stm32f1x_iolib_hd_st32_8MHz.a(timer.o)
 .text.TIM_OCStructInit
                0x00000000       0x14 /project/stm32fx_lib/stm32f1x_iolib/stm32f1x_iolib_hd_st32_8MHz.a(timer.o)
 .text.TIM_ICStructInit
                0x00000000       0x10 /project/stm32fx_lib/stm32f1x_iolib/stm32f1x_iolib_hd_st32_8MHz.a(timer.o)
 .text.TIM_BDTRStructInit
                0x00000000       0x12 /project/stm32fx_lib/stm32f1x_iolib/stm32f1x_iolib_hd_st32_8MHz.a(timer.o)
 .text.TIM_Cmd  0x00000000       0x18 /project/stm32fx_lib/stm32f1x_iolib/stm32f1x_iolib_hd_st32_8MHz.a(timer.o)
 .text.TIM_CtrlPWMOutputs
                0x00000000       0x1c /project/stm32fx_lib/stm32f1x_iolib/stm32f1x_iolib_hd_st32_8MHz.a(timer.o)
 .text.TIM_ITConfig
                0x00000000       0x12 /project/stm32fx_lib/stm32f1x_iolib/stm32f1x_iolib_hd_st32_8MHz.a(timer.o)
 .text.TIM_GenerateEvent
                0x00000000        0x4 /project/stm32fx_lib/stm32f1x_iolib/stm32f1x_iolib_hd_st32_8MHz.a(timer.o)
 .text.TIM_DMAConfig
                0x00000000        0x8 /project/stm32fx_lib/stm32f1x_iolib/stm32f1x_iolib_hd_st32_8MHz.a(timer.o)
 .text.TIM_DMACmd
                0x00000000       0x12 /project/stm32fx_lib/stm32f1x_iolib/stm32f1x_iolib_hd_st32_8MHz.a(timer.o)
 .text.TIM_InternalClockConfig
                0x00000000        0xe /project/stm32fx_lib/stm32f1x_iolib/stm32f1x_iolib_hd_st32_8MHz.a(timer.o)
 .text.TIM_ITRxExternalClockConfig
                0x00000000       0x1a /project/stm32fx_lib/stm32f1x_iolib/stm32f1x_iolib_hd_st32_8MHz.a(timer.o)
 .text.TIM_TIxExternalClockConfig
                0x00000000       0x34 /project/stm32fx_lib/stm32f1x_iolib/stm32f1x_iolib_hd_st32_8MHz.a(timer.o)
 .text.TIM_ETRConfig
                0x00000000       0x14 /project/stm32fx_lib/stm32f1x_iolib/stm32f1x_iolib_hd_st32_8MHz.a(timer.o)
 .text.TIM_ETRClockMode1Config
                0x00000000       0x1a /project/stm32fx_lib/stm32f1x_iolib/stm32f1x_iolib_hd_st32_8MHz.a(timer.o)
 .text.TIM_ETRClockMode2Config
                0x00000000       0x14 /project/stm32fx_lib/stm32f1x_iolib/stm32f1x_iolib_hd_st32_8MHz.a(timer.o)
 .text.TIM_PrescalerConfig
                0x00000000        0x6 /project/stm32fx_lib/stm32f1x_iolib/stm32f1x_iolib_hd_st32_8MHz.a(timer.o)
 .text.TIM_CounterModeConfig
                0x00000000       0x10 /project/stm32fx_lib/stm32f1x_iolib/stm32f1x_iolib_hd_st32_8MHz.a(timer.o)
 .text.TIM_SelectInputTrigger
                0x00000000       0x10 /project/stm32fx_lib/stm32f1x_iolib/stm32f1x_iolib_hd_st32_8MHz.a(timer.o)
 .text.TIM_EncoderInterfaceConfig
                0x00000000       0x3c /project/stm32fx_lib/stm32f1x_iolib/stm32f1x_iolib_hd_st32_8MHz.a(timer.o)
 .text.TIM_ForcedOC1Config
                0x00000000       0x10 /project/stm32fx_lib/stm32f1x_iolib/stm32f1x_iolib_hd_st32_8MHz.a(timer.o)
 .text.TIM_ForcedOC2Config
                0x00000000       0x14 /project/stm32fx_lib/stm32f1x_iolib/stm32f1x_iolib_hd_st32_8MHz.a(timer.o)
 .text.TIM_ForcedOC3Config
                0x00000000       0x10 /project/stm32fx_lib/stm32f1x_iolib/stm32f1x_iolib_hd_st32_8MHz.a(timer.o)
 .text.TIM_ForcedOC4Config
                0x00000000       0x14 /project/stm32fx_lib/stm32f1x_iolib/stm32f1x_iolib_hd_st32_8MHz.a(timer.o)
 .text.TIM_ARRPreloadConfig
                0x00000000       0x18 /project/stm32fx_lib/stm32f1x_iolib/stm32f1x_iolib_hd_st32_8MHz.a(timer.o)
 .text.TIM_SelectCOM
                0x00000000       0x18 /project/stm32fx_lib/stm32f1x_iolib/stm32f1x_iolib_hd_st32_8MHz.a(timer.o)
 .text.TIM_SelectCCDMA
                0x00000000       0x18 /project/stm32fx_lib/stm32f1x_iolib/stm32f1x_iolib_hd_st32_8MHz.a(timer.o)
 .text.TIM_CCPreloadControl
                0x00000000       0x18 /project/stm32fx_lib/stm32f1x_iolib/stm32f1x_iolib_hd_st32_8MHz.a(timer.o)
 .text.TIM_OC1PreloadConfig
                0x00000000       0x10 /project/stm32fx_lib/stm32f1x_iolib/stm32f1x_iolib_hd_st32_8MHz.a(timer.o)
 .text.TIM_OC2PreloadConfig
                0x00000000       0x14 /project/stm32fx_lib/stm32f1x_iolib/stm32f1x_iolib_hd_st32_8MHz.a(timer.o)
 .text.TIM_OC3PreloadConfig
                0x00000000       0x10 /project/stm32fx_lib/stm32f1x_iolib/stm32f1x_iolib_hd_st32_8MHz.a(timer.o)
 .text.TIM_OC4PreloadConfig
                0x00000000       0x14 /project/stm32fx_lib/stm32f1x_iolib/stm32f1x_iolib_hd_st32_8MHz.a(timer.o)
 .text.TIM_OC1FastConfig
                0x00000000       0x10 /project/stm32fx_lib/stm32f1x_iolib/stm32f1x_iolib_hd_st32_8MHz.a(timer.o)
 .text.TIM_OC2FastConfig
                0x00000000       0x14 /project/stm32fx_lib/stm32f1x_iolib/stm32f1x_iolib_hd_st32_8MHz.a(timer.o)
 .text.TIM_OC3FastConfig
                0x00000000       0x10 /project/stm32fx_lib/stm32f1x_iolib/stm32f1x_iolib_hd_st32_8MHz.a(timer.o)
 .text.TIM_OC4FastConfig
                0x00000000       0x14 /project/stm32fx_lib/stm32f1x_iolib/stm32f1x_iolib_hd_st32_8MHz.a(timer.o)
 .text.TIM_ClearOC1Ref
                0x00000000       0x10 /project/stm32fx_lib/stm32f1x_iolib/stm32f1x_iolib_hd_st32_8MHz.a(timer.o)
 .text.TIM_ClearOC2Ref
                0x00000000       0x10 /project/stm32fx_lib/stm32f1x_iolib/stm32f1x_iolib_hd_st32_8MHz.a(timer.o)
 .text.TIM_ClearOC3Ref
                0x00000000       0x10 /project/stm32fx_lib/stm32f1x_iolib/stm32f1x_iolib_hd_st32_8MHz.a(timer.o)
 .text.TIM_ClearOC4Ref
                0x00000000       0x10 /project/stm32fx_lib/stm32f1x_iolib/stm32f1x_iolib_hd_st32_8MHz.a(timer.o)
 .text.TIM_OC1PolarityConfig
                0x00000000       0x10 /project/stm32fx_lib/stm32f1x_iolib/stm32f1x_iolib_hd_st32_8MHz.a(timer.o)
 .text.TIM_OC1NPolarityConfig
                0x00000000       0x10 /project/stm32fx_lib/stm32f1x_iolib/stm32f1x_iolib_hd_st32_8MHz.a(timer.o)
 .text.TIM_OC2PolarityConfig
                0x00000000       0x14 /project/stm32fx_lib/stm32f1x_iolib/stm32f1x_iolib_hd_st32_8MHz.a(timer.o)
 .text.TIM_OC2NPolarityConfig
                0x00000000       0x14 /project/stm32fx_lib/stm32f1x_iolib/stm32f1x_iolib_hd_st32_8MHz.a(timer.o)
 .text.TIM_OC3PolarityConfig
                0x00000000       0x14 /project/stm32fx_lib/stm32f1x_iolib/stm32f1x_iolib_hd_st32_8MHz.a(timer.o)
 .text.TIM_OC3NPolarityConfig
                0x00000000       0x14 /project/stm32fx_lib/stm32f1x_iolib/stm32f1x_iolib_hd_st32_8MHz.a(timer.o)
 .text.TIM_OC4PolarityConfig
                0x00000000       0x14 /project/stm32fx_lib/stm32f1x_iolib/stm32f1x_iolib_hd_st32_8MHz.a(timer.o)
 .text.TIM_CCxCmd
                0x00000000       0x1c /project/stm32fx_lib/stm32f1x_iolib/stm32f1x_iolib_hd_st32_8MHz.a(timer.o)
 .text.TIM_CCxNCmd
                0x00000000       0x1c /project/stm32fx_lib/stm32f1x_iolib/stm32f1x_iolib_hd_st32_8MHz.a(timer.o)
 .text.TIM_SelectOCxM
                0x00000000       0x42 /project/stm32fx_lib/stm32f1x_iolib/stm32f1x_iolib_hd_st32_8MHz.a(timer.o)
 .text.TIM_UpdateDisableConfig
                0x00000000       0x18 /project/stm32fx_lib/stm32f1x_iolib/stm32f1x_iolib_hd_st32_8MHz.a(timer.o)
 .text.TIM_UpdateRequestConfig
                0x00000000       0x18 /project/stm32fx_lib/stm32f1x_iolib/stm32f1x_iolib_hd_st32_8MHz.a(timer.o)
 .text.TIM_SelectHallSensor
                0x00000000       0x18 /project/stm32fx_lib/stm32f1x_iolib/stm32f1x_iolib_hd_st32_8MHz.a(timer.o)
 .text.TIM_SelectOnePulseMode
                0x00000000       0x16 /project/stm32fx_lib/stm32f1x_iolib/stm32f1x_iolib_hd_st32_8MHz.a(timer.o)
 .text.TIM_SelectOutputTrigger
                0x00000000       0x16 /project/stm32fx_lib/stm32f1x_iolib/stm32f1x_iolib_hd_st32_8MHz.a(timer.o)
 .text.TIM_SelectSlaveMode
                0x00000000       0x16 /project/stm32fx_lib/stm32f1x_iolib/stm32f1x_iolib_hd_st32_8MHz.a(timer.o)
 .text.TIM_SelectMasterSlaveMode
                0x00000000       0x16 /project/stm32fx_lib/stm32f1x_iolib/stm32f1x_iolib_hd_st32_8MHz.a(timer.o)
 .text.TIM_SetCounter
                0x00000000        0x4 /project/stm32fx_lib/stm32f1x_iolib/stm32f1x_iolib_hd_st32_8MHz.a(timer.o)
 .text.TIM_SetAutoreload
                0x00000000        0x4 /project/stm32fx_lib/stm32f1x_iolib/stm32f1x_iolib_hd_st32_8MHz.a(timer.o)
 .text.TIM_SetCompare1
                0x00000000        0x4 /project/stm32fx_lib/stm32f1x_iolib/stm32f1x_iolib_hd_st32_8MHz.a(timer.o)
 .text.TIM_SetCompare2
                0x00000000        0x4 /project/stm32fx_lib/stm32f1x_iolib/stm32f1x_iolib_hd_st32_8MHz.a(timer.o)
 .text.TIM_SetCompare3
                0x00000000        0x4 /project/stm32fx_lib/stm32f1x_iolib/stm32f1x_iolib_hd_st32_8MHz.a(timer.o)
 .text.TIM_SetCompare4
                0x00000000        0x6 /project/stm32fx_lib/stm32f1x_iolib/stm32f1x_iolib_hd_st32_8MHz.a(timer.o)
 .text.TIM_SetIC1Prescaler
                0x00000000       0x16 /project/stm32fx_lib/stm32f1x_iolib/stm32f1x_iolib_hd_st32_8MHz.a(timer.o)
 .text.TIM_SetIC2Prescaler
                0x00000000       0x1a /project/stm32fx_lib/stm32f1x_iolib/stm32f1x_iolib_hd_st32_8MHz.a(timer.o)
 .text.TIM_PWMIConfig
                0x00000000       0x6e /project/stm32fx_lib/stm32f1x_iolib/stm32f1x_iolib_hd_st32_8MHz.a(timer.o)
 .text.TIM_SetIC3Prescaler
                0x00000000       0x16 /project/stm32fx_lib/stm32f1x_iolib/stm32f1x_iolib_hd_st32_8MHz.a(timer.o)
 .text.TIM_SetIC4Prescaler
                0x00000000       0x1a /project/stm32fx_lib/stm32f1x_iolib/stm32f1x_iolib_hd_st32_8MHz.a(timer.o)
 .text.TIM_ICInit
                0x00000000      0x130 /project/stm32fx_lib/stm32f1x_iolib/stm32f1x_iolib_hd_st32_8MHz.a(timer.o)
 .text.TIM_SetClockDivision
                0x00000000       0x16 /project/stm32fx_lib/stm32f1x_iolib/stm32f1x_iolib_hd_st32_8MHz.a(timer.o)
 .text.TIM_GetCapture1
                0x00000000        0x6 /project/stm32fx_lib/stm32f1x_iolib/stm32f1x_iolib_hd_st32_8MHz.a(timer.o)
 .text.TIM_GetCapture2
                0x00000000        0x6 /project/stm32fx_lib/stm32f1x_iolib/stm32f1x_iolib_hd_st32_8MHz.a(timer.o)
 .text.TIM_GetCapture3
                0x00000000        0x6 /project/stm32fx_lib/stm32f1x_iolib/stm32f1x_iolib_hd_st32_8MHz.a(timer.o)
 .text.TIM_GetCapture4
                0x00000000        0x8 /project/stm32fx_lib/stm32f1x_iolib/stm32f1x_iolib_hd_st32_8MHz.a(timer.o)
 .text.TIM_GetCounter
                0x00000000        0x6 /project/stm32fx_lib/stm32f1x_iolib/stm32f1x_iolib_hd_st32_8MHz.a(timer.o)
 .text.TIM_GetPrescaler
                0x00000000        0x6 /project/stm32fx_lib/stm32f1x_iolib/stm32f1x_iolib_hd_st32_8MHz.a(timer.o)
 .text.TIM_GetFlagStatus
                0x00000000        0xc /project/stm32fx_lib/stm32f1x_iolib/stm32f1x_iolib_hd_st32_8MHz.a(timer.o)
 .text.TIM_ClearFlag
                0x00000000        0x8 /project/stm32fx_lib/stm32f1x_iolib/stm32f1x_iolib_hd_st32_8MHz.a(timer.o)
 .text.TIM_GetITStatus
                0x00000000       0x16 /project/stm32fx_lib/stm32f1x_iolib/stm32f1x_iolib_hd_st32_8MHz.a(timer.o)
 .text          0x00000000        0x0 /project/stm32fx_lib/stm32f1x_iolib/stm32f1x_iolib_hd_st32_8MHz.a(usart.o)
 .data          0x00000000        0x0 /project/stm32fx_lib/stm32f1x_iolib/stm32f1x_iolib_hd_st32_8MHz.a(usart.o)
 .bss           0x00000000        0x0 /project/stm32fx_lib/stm32f1x_iolib/stm32f1x_iolib_hd_st32_8MHz.a(usart.o)
 .text.USART_DeInit
                0x00000000       0x98 /project/stm32fx_lib/stm32f1x_iolib/stm32f1x_iolib_hd_st32_8MHz.a(usart.o)
 .text.USART_StructInit
                0x00000000       0x16 /project/stm32fx_lib/stm32f1x_iolib/stm32f1x_iolib_hd_st32_8MHz.a(usart.o)
 .text.USART_ClockInit
                0x00000000       0x20 /project/stm32fx_lib/stm32f1x_iolib/stm32f1x_iolib_hd_st32_8MHz.a(usart.o)
 .text.USART_ClockStructInit
                0x00000000        0xc /project/stm32fx_lib/stm32f1x_iolib/stm32f1x_iolib_hd_st32_8MHz.a(usart.o)
 .text.USART_DMACmd
                0x00000000       0x12 /project/stm32fx_lib/stm32f1x_iolib/stm32f1x_iolib_hd_st32_8MHz.a(usart.o)
 .text.USART_SetAddress
                0x00000000       0x16 /project/stm32fx_lib/stm32f1x_iolib/stm32f1x_iolib_hd_st32_8MHz.a(usart.o)
 .text.USART_WakeUpConfig
                0x00000000       0x16 /project/stm32fx_lib/stm32f1x_iolib/stm32f1x_iolib_hd_st32_8MHz.a(usart.o)
 .text.USART_ReceiverWakeUpCmd
                0x00000000       0x18 /project/stm32fx_lib/stm32f1x_iolib/stm32f1x_iolib_hd_st32_8MHz.a(usart.o)
 .text.USART_LINBreakDetectLengthConfig
                0x00000000       0x16 /project/stm32fx_lib/stm32f1x_iolib/stm32f1x_iolib_hd_st32_8MHz.a(usart.o)
 .text.USART_LINCmd
                0x00000000       0x18 /project/stm32fx_lib/stm32f1x_iolib/stm32f1x_iolib_hd_st32_8MHz.a(usart.o)
 .text.USART_SendBreak
                0x00000000        0xc /project/stm32fx_lib/stm32f1x_iolib/stm32f1x_iolib_hd_st32_8MHz.a(usart.o)
 .text.USART_SetGuardTime
                0x00000000       0x12 /project/stm32fx_lib/stm32f1x_iolib/stm32f1x_iolib_hd_st32_8MHz.a(usart.o)
 .text.USART_SetPrescaler
                0x00000000       0x12 /project/stm32fx_lib/stm32f1x_iolib/stm32f1x_iolib_hd_st32_8MHz.a(usart.o)
 .text.USART_SmartCardCmd
                0x00000000       0x18 /project/stm32fx_lib/stm32f1x_iolib/stm32f1x_iolib_hd_st32_8MHz.a(usart.o)
 .text.USART_SmartCardNACKCmd
                0x00000000       0x18 /project/stm32fx_lib/stm32f1x_iolib/stm32f1x_iolib_hd_st32_8MHz.a(usart.o)
 .text.USART_HalfDuplexCmd
                0x00000000       0x18 /project/stm32fx_lib/stm32f1x_iolib/stm32f1x_iolib_hd_st32_8MHz.a(usart.o)
 .text.USART_OverSampling8Cmd
                0x00000000       0x18 /project/stm32fx_lib/stm32f1x_iolib/stm32f1x_iolib_hd_st32_8MHz.a(usart.o)
 .text.USART_OneBitMethodCmd
                0x00000000       0x18 /project/stm32fx_lib/stm32f1x_iolib/stm32f1x_iolib_hd_st32_8MHz.a(usart.o)
 .text.USART_IrDAConfig
                0x00000000       0x16 /project/stm32fx_lib/stm32f1x_iolib/stm32f1x_iolib_hd_st32_8MHz.a(usart.o)
 .text.USART_IrDACmd
                0x00000000       0x18 /project/stm32fx_lib/stm32f1x_iolib/stm32f1x_iolib_hd_st32_8MHz.a(usart.o)
 .text.USART_GetFlagStatus
                0x00000000        0xc /project/stm32fx_lib/stm32f1x_iolib/stm32f1x_iolib_hd_st32_8MHz.a(usart.o)
 .text.USART_ClearFlag
                0x00000000        0x8 /project/stm32fx_lib/stm32f1x_iolib/stm32f1x_iolib_hd_st32_8MHz.a(usart.o)
 .text          0x00000000        0x0 c:/program files (x86)/gnu tools arm embedded/9 2019-q4-major/bin/../lib/gcc/arm-none-eabi/9.2.1/../../../../arm-none-eabi/lib/thumb/v7-m/nofp\libc.a(lib_a-abort.o)
 .data          0x00000000        0x0 c:/program files (x86)/gnu tools arm embedded/9 2019-q4-major/bin/../lib/gcc/arm-none-eabi/9.2.1/../../../../arm-none-eabi/lib/thumb/v7-m/nofp\libc.a(lib_a-abort.o)
 .bss           0x00000000        0x0 c:/program files (x86)/gnu tools arm embedded/9 2019-q4-major/bin/../lib/gcc/arm-none-eabi/9.2.1/../../../../arm-none-eabi/lib/thumb/v7-m/nofp\libc.a(lib_a-abort.o)
 .text          0x00000000        0x0 c:/program files (x86)/gnu tools arm embedded/9 2019-q4-major/bin/../lib/gcc/arm-none-eabi/9.2.1/../../../../arm-none-eabi/lib/thumb/v7-m/nofp\libc.a(lib_a-errno.o)
 .data          0x00000000        0x0 c:/program files (x86)/gnu tools arm embedded/9 2019-q4-major/bin/../lib/gcc/arm-none-eabi/9.2.1/../../../../arm-none-eabi/lib/thumb/v7-m/nofp\libc.a(lib_a-errno.o)
 .bss           0x00000000        0x0 c:/program files (x86)/gnu tools arm embedded/9 2019-q4-major/bin/../lib/gcc/arm-none-eabi/9.2.1/../../../../arm-none-eabi/lib/thumb/v7-m/nofp\libc.a(lib_a-errno.o)
 .text          0x00000000        0x0 c:/program files (x86)/gnu tools arm embedded/9 2019-q4-major/bin/../lib/gcc/arm-none-eabi/9.2.1/../../../../arm-none-eabi/lib/thumb/v7-m/nofp\libc.a(lib_a-impure.o)
 .data          0x00000000        0x0 c:/program files (x86)/gnu tools arm embedded/9 2019-q4-major/bin/../lib/gcc/arm-none-eabi/9.2.1/../../../../arm-none-eabi/lib/thumb/v7-m/nofp\libc.a(lib_a-impure.o)
 .bss           0x00000000        0x0 c:/program files (x86)/gnu tools arm embedded/9 2019-q4-major/bin/../lib/gcc/arm-none-eabi/9.2.1/../../../../arm-none-eabi/lib/thumb/v7-m/nofp\libc.a(lib_a-impure.o)
 .rodata._global_impure_ptr
                0x00000000        0x4 c:/program files (x86)/gnu tools arm embedded/9 2019-q4-major/bin/../lib/gcc/arm-none-eabi/9.2.1/../../../../arm-none-eabi/lib/thumb/v7-m/nofp\libc.a(lib_a-impure.o)
 .text          0x00000000        0x0 c:/program files (x86)/gnu tools arm embedded/9 2019-q4-major/bin/../lib/gcc/arm-none-eabi/9.2.1/../../../../arm-none-eabi/lib/thumb/v7-m/nofp\libc.a(lib_a-malloc.o)
 .data          0x00000000        0x0 c:/program files (x86)/gnu tools arm embedded/9 2019-q4-major/bin/../lib/gcc/arm-none-eabi/9.2.1/../../../../arm-none-eabi/lib/thumb/v7-m/nofp\libc.a(lib_a-malloc.o)
 .bss           0x00000000        0x0 c:/program files (x86)/gnu tools arm embedded/9 2019-q4-major/bin/../lib/gcc/arm-none-eabi/9.2.1/../../../../arm-none-eabi/lib/thumb/v7-m/nofp\libc.a(lib_a-malloc.o)
 .text.free     0x00000000       0x10 c:/program files (x86)/gnu tools arm embedded/9 2019-q4-major/bin/../lib/gcc/arm-none-eabi/9.2.1/../../../../arm-none-eabi/lib/thumb/v7-m/nofp\libc.a(lib_a-malloc.o)
 .text          0x00000000        0x0 c:/program files (x86)/gnu tools arm embedded/9 2019-q4-major/bin/../lib/gcc/arm-none-eabi/9.2.1/../../../../arm-none-eabi/lib/thumb/v7-m/nofp\libc.a(lib_a-mallocr.o)
 .data          0x00000000        0x0 c:/program files (x86)/gnu tools arm embedded/9 2019-q4-major/bin/../lib/gcc/arm-none-eabi/9.2.1/../../../../arm-none-eabi/lib/thumb/v7-m/nofp\libc.a(lib_a-mallocr.o)
 .bss           0x00000000        0x0 c:/program files (x86)/gnu tools arm embedded/9 2019-q4-major/bin/../lib/gcc/arm-none-eabi/9.2.1/../../../../arm-none-eabi/lib/thumb/v7-m/nofp\libc.a(lib_a-mallocr.o)
 .data          0x00000000        0x0 c:/program files (x86)/gnu tools arm embedded/9 2019-q4-major/bin/../lib/gcc/arm-none-eabi/9.2.1/../../../../arm-none-eabi/lib/thumb/v7-m/nofp\libc.a(lib_a-memcpy.o)
 .bss           0x00000000        0x0 c:/program files (x86)/gnu tools arm embedded/9 2019-q4-major/bin/../lib/gcc/arm-none-eabi/9.2.1/../../../../arm-none-eabi/lib/thumb/v7-m/nofp\libc.a(lib_a-memcpy.o)
 .text          0x00000000        0x0 c:/program files (x86)/gnu tools arm embedded/9 2019-q4-major/bin/../lib/gcc/arm-none-eabi/9.2.1/../../../../arm-none-eabi/lib/thumb/v7-m/nofp\libc.a(lib_a-memset.o)
 .data          0x00000000        0x0 c:/program files (x86)/gnu tools arm embedded/9 2019-q4-major/bin/../lib/gcc/arm-none-eabi/9.2.1/../../../../arm-none-eabi/lib/thumb/v7-m/nofp\libc.a(lib_a-memset.o)
 .bss           0x00000000        0x0 c:/program files (x86)/gnu tools arm embedded/9 2019-q4-major/bin/../lib/gcc/arm-none-eabi/9.2.1/../../../../arm-none-eabi/lib/thumb/v7-m/nofp\libc.a(lib_a-memset.o)
 .text          0x00000000        0x0 c:/program files (x86)/gnu tools arm embedded/9 2019-q4-major/bin/../lib/gcc/arm-none-eabi/9.2.1/../../../../arm-none-eabi/lib/thumb/v7-m/nofp\libc.a(lib_a-mlock.o)
 .data          0x00000000        0x0 c:/program files (x86)/gnu tools arm embedded/9 2019-q4-major/bin/../lib/gcc/arm-none-eabi/9.2.1/../../../../arm-none-eabi/lib/thumb/v7-m/nofp\libc.a(lib_a-mlock.o)
 .bss           0x00000000        0x0 c:/program files (x86)/gnu tools arm embedded/9 2019-q4-major/bin/../lib/gcc/arm-none-eabi/9.2.1/../../../../arm-none-eabi/lib/thumb/v7-m/nofp\libc.a(lib_a-mlock.o)
 .text          0x00000000        0x0 c:/program files (x86)/gnu tools arm embedded/9 2019-q4-major/bin/../lib/gcc/arm-none-eabi/9.2.1/../../../../arm-none-eabi/lib/thumb/v7-m/nofp\libc.a(lib_a-sbrkr.o)
 .data          0x00000000        0x0 c:/program files (x86)/gnu tools arm embedded/9 2019-q4-major/bin/../lib/gcc/arm-none-eabi/9.2.1/../../../../arm-none-eabi/lib/thumb/v7-m/nofp\libc.a(lib_a-sbrkr.o)
 .bss           0x00000000        0x0 c:/program files (x86)/gnu tools arm embedded/9 2019-q4-major/bin/../lib/gcc/arm-none-eabi/9.2.1/../../../../arm-none-eabi/lib/thumb/v7-m/nofp\libc.a(lib_a-sbrkr.o)
 .text          0x00000000        0x0 c:/program files (x86)/gnu tools arm embedded/9 2019-q4-major/bin/../lib/gcc/arm-none-eabi/9.2.1/../../../../arm-none-eabi/lib/thumb/v7-m/nofp\libc.a(lib_a-signal.o)
 .data          0x00000000        0x0 c:/program files (x86)/gnu tools arm embedded/9 2019-q4-major/bin/../lib/gcc/arm-none-eabi/9.2.1/../../../../arm-none-eabi/lib/thumb/v7-m/nofp\libc.a(lib_a-signal.o)
 .bss           0x00000000        0x0 c:/program files (x86)/gnu tools arm embedded/9 2019-q4-major/bin/../lib/gcc/arm-none-eabi/9.2.1/../../../../arm-none-eabi/lib/thumb/v7-m/nofp\libc.a(lib_a-signal.o)
 .text._init_signal_r.part.0
                0x00000000       0x2c c:/program files (x86)/gnu tools arm embedded/9 2019-q4-major/bin/../lib/gcc/arm-none-eabi/9.2.1/../../../../arm-none-eabi/lib/thumb/v7-m/nofp\libc.a(lib_a-signal.o)
 .text._init_signal_r
                0x00000000       0x10 c:/program files (x86)/gnu tools arm embedded/9 2019-q4-major/bin/../lib/gcc/arm-none-eabi/9.2.1/../../../../arm-none-eabi/lib/thumb/v7-m/nofp\libc.a(lib_a-signal.o)
 .text._signal_r
                0x00000000       0x38 c:/program files (x86)/gnu tools arm embedded/9 2019-q4-major/bin/../lib/gcc/arm-none-eabi/9.2.1/../../../../arm-none-eabi/lib/thumb/v7-m/nofp\libc.a(lib_a-signal.o)
 .text.__sigtramp_r
                0x00000000       0x54 c:/program files (x86)/gnu tools arm embedded/9 2019-q4-major/bin/../lib/gcc/arm-none-eabi/9.2.1/../../../../arm-none-eabi/lib/thumb/v7-m/nofp\libc.a(lib_a-signal.o)
 .text.signal   0x00000000       0x10 c:/program files (x86)/gnu tools arm embedded/9 2019-q4-major/bin/../lib/gcc/arm-none-eabi/9.2.1/../../../../arm-none-eabi/lib/thumb/v7-m/nofp\libc.a(lib_a-signal.o)
 .text._init_signal
                0x00000000       0x18 c:/program files (x86)/gnu tools arm embedded/9 2019-q4-major/bin/../lib/gcc/arm-none-eabi/9.2.1/../../../../arm-none-eabi/lib/thumb/v7-m/nofp\libc.a(lib_a-signal.o)
 .text.__sigtramp
                0x00000000       0x10 c:/program files (x86)/gnu tools arm embedded/9 2019-q4-major/bin/../lib/gcc/arm-none-eabi/9.2.1/../../../../arm-none-eabi/lib/thumb/v7-m/nofp\libc.a(lib_a-signal.o)
 .text          0x00000000        0x0 c:/program files (x86)/gnu tools arm embedded/9 2019-q4-major/bin/../lib/gcc/arm-none-eabi/9.2.1/../../../../arm-none-eabi/lib/thumb/v7-m/nofp\libc.a(lib_a-signalr.o)
 .data          0x00000000        0x0 c:/program files (x86)/gnu tools arm embedded/9 2019-q4-major/bin/../lib/gcc/arm-none-eabi/9.2.1/../../../../arm-none-eabi/lib/thumb/v7-m/nofp\libc.a(lib_a-signalr.o)
 .bss           0x00000000        0x0 c:/program files (x86)/gnu tools arm embedded/9 2019-q4-major/bin/../lib/gcc/arm-none-eabi/9.2.1/../../../../arm-none-eabi/lib/thumb/v7-m/nofp\libc.a(lib_a-signalr.o)
 .text          0x00000000        0x0 c:/program files (x86)/gnu tools arm embedded/9 2019-q4-major/bin/../lib/gcc/arm-none-eabi/9.2.1/../../../../arm-none-eabi/lib/thumb/v7-m/nofp\libc.a(lib_a-strcasecmp.o)
 .data          0x00000000        0x0 c:/program files (x86)/gnu tools arm embedded/9 2019-q4-major/bin/../lib/gcc/arm-none-eabi/9.2.1/../../../../arm-none-eabi/lib/thumb/v7-m/nofp\libc.a(lib_a-strcasecmp.o)
 .bss           0x00000000        0x0 c:/program files (x86)/gnu tools arm embedded/9 2019-q4-major/bin/../lib/gcc/arm-none-eabi/9.2.1/../../../../arm-none-eabi/lib/thumb/v7-m/nofp\libc.a(lib_a-strcasecmp.o)
 .text          0x00000000        0x0 c:/program files (x86)/gnu tools arm embedded/9 2019-q4-major/bin/../lib/gcc/arm-none-eabi/9.2.1/../../../../arm-none-eabi/lib/thumb/v7-m/nofp\libc.a(lib_a-strcpy.o)
 .data          0x00000000        0x0 c:/program files (x86)/gnu tools arm embedded/9 2019-q4-major/bin/../lib/gcc/arm-none-eabi/9.2.1/../../../../arm-none-eabi/lib/thumb/v7-m/nofp\libc.a(lib_a-strcpy.o)
 .bss           0x00000000        0x0 c:/program files (x86)/gnu tools arm embedded/9 2019-q4-major/bin/../lib/gcc/arm-none-eabi/9.2.1/../../../../arm-none-eabi/lib/thumb/v7-m/nofp\libc.a(lib_a-strcpy.o)
 .text          0x00000000        0x0 c:/program files (x86)/gnu tools arm embedded/9 2019-q4-major/bin/../lib/gcc/arm-none-eabi/9.2.1/../../../../arm-none-eabi/lib/thumb/v7-m/nofp\libc.a(lib_a-strlen-stub.o)
 .data          0x00000000        0x0 c:/program files (x86)/gnu tools arm embedded/9 2019-q4-major/bin/../lib/gcc/arm-none-eabi/9.2.1/../../../../arm-none-eabi/lib/thumb/v7-m/nofp\libc.a(lib_a-strlen-stub.o)
 .bss           0x00000000        0x0 c:/program files (x86)/gnu tools arm embedded/9 2019-q4-major/bin/../lib/gcc/arm-none-eabi/9.2.1/../../../../arm-none-eabi/lib/thumb/v7-m/nofp\libc.a(lib_a-strlen-stub.o)
 .text          0x00000000        0x0 c:/program files (x86)/gnu tools arm embedded/9 2019-q4-major/bin/../lib/gcc/arm-none-eabi/9.2.1/../../../../arm-none-eabi/lib/thumb/v7-m/nofp\libc.a(lib_a-vsprintf.o)
 .data          0x00000000        0x0 c:/program files (x86)/gnu tools arm embedded/9 2019-q4-major/bin/../lib/gcc/arm-none-eabi/9.2.1/../../../../arm-none-eabi/lib/thumb/v7-m/nofp\libc.a(lib_a-vsprintf.o)
 .bss           0x00000000        0x0 c:/program files (x86)/gnu tools arm embedded/9 2019-q4-major/bin/../lib/gcc/arm-none-eabi/9.2.1/../../../../arm-none-eabi/lib/thumb/v7-m/nofp\libc.a(lib_a-vsprintf.o)
 .text          0x00000000        0x0 c:/program files (x86)/gnu tools arm embedded/9 2019-q4-major/bin/../lib/gcc/arm-none-eabi/9.2.1/../../../../arm-none-eabi/lib/thumb/v7-m/nofp\libc.a(lib_a-ctype_.o)
 .data          0x00000000        0x0 c:/program files (x86)/gnu tools arm embedded/9 2019-q4-major/bin/../lib/gcc/arm-none-eabi/9.2.1/../../../../arm-none-eabi/lib/thumb/v7-m/nofp\libc.a(lib_a-ctype_.o)
 .bss           0x00000000        0x0 c:/program files (x86)/gnu tools arm embedded/9 2019-q4-major/bin/../lib/gcc/arm-none-eabi/9.2.1/../../../../arm-none-eabi/lib/thumb/v7-m/nofp\libc.a(lib_a-ctype_.o)
 .text          0x00000000        0x0 c:/program files (x86)/gnu tools arm embedded/9 2019-q4-major/bin/../lib/gcc/arm-none-eabi/9.2.1/../../../../arm-none-eabi/lib/thumb/v7-m/nofp\libc.a(lib_a-freer.o)
 .data          0x00000000        0x0 c:/program files (x86)/gnu tools arm embedded/9 2019-q4-major/bin/../lib/gcc/arm-none-eabi/9.2.1/../../../../arm-none-eabi/lib/thumb/v7-m/nofp\libc.a(lib_a-freer.o)
 .bss           0x00000000        0x0 c:/program files (x86)/gnu tools arm embedded/9 2019-q4-major/bin/../lib/gcc/arm-none-eabi/9.2.1/../../../../arm-none-eabi/lib/thumb/v7-m/nofp\libc.a(lib_a-freer.o)
 .text          0x00000000        0x0 c:/program files (x86)/gnu tools arm embedded/9 2019-q4-major/bin/../lib/gcc/arm-none-eabi/9.2.1/../../../../arm-none-eabi/lib/thumb/v7-m/nofp\libc.a(lib_a-lock.o)
 .data          0x00000000        0x0 c:/program files (x86)/gnu tools arm embedded/9 2019-q4-major/bin/../lib/gcc/arm-none-eabi/9.2.1/../../../../arm-none-eabi/lib/thumb/v7-m/nofp\libc.a(lib_a-lock.o)
 .bss           0x00000000        0x0 c:/program files (x86)/gnu tools arm embedded/9 2019-q4-major/bin/../lib/gcc/arm-none-eabi/9.2.1/../../../../arm-none-eabi/lib/thumb/v7-m/nofp\libc.a(lib_a-lock.o)
 .text.__retarget_lock_init
                0x00000000        0x4 c:/program files (x86)/gnu tools arm embedded/9 2019-q4-major/bin/../lib/gcc/arm-none-eabi/9.2.1/../../../../arm-none-eabi/lib/thumb/v7-m/nofp\libc.a(lib_a-lock.o)
 .text.__retarget_lock_init_recursive
                0x00000000        0x4 c:/program files (x86)/gnu tools arm embedded/9 2019-q4-major/bin/../lib/gcc/arm-none-eabi/9.2.1/../../../../arm-none-eabi/lib/thumb/v7-m/nofp\libc.a(lib_a-lock.o)
 .text.__retarget_lock_close
                0x00000000        0x4 c:/program files (x86)/gnu tools arm embedded/9 2019-q4-major/bin/../lib/gcc/arm-none-eabi/9.2.1/../../../../arm-none-eabi/lib/thumb/v7-m/nofp\libc.a(lib_a-lock.o)
 .text.__retarget_lock_close_recursive
                0x00000000        0x4 c:/program files (x86)/gnu tools arm embedded/9 2019-q4-major/bin/../lib/gcc/arm-none-eabi/9.2.1/../../../../arm-none-eabi/lib/thumb/v7-m/nofp\libc.a(lib_a-lock.o)
 .text.__retarget_lock_acquire
                0x00000000        0x4 c:/program files (x86)/gnu tools arm embedded/9 2019-q4-major/bin/../lib/gcc/arm-none-eabi/9.2.1/../../../../arm-none-eabi/lib/thumb/v7-m/nofp\libc.a(lib_a-lock.o)
 .text.__retarget_lock_try_acquire
                0x00000000        0x4 c:/program files (x86)/gnu tools arm embedded/9 2019-q4-major/bin/../lib/gcc/arm-none-eabi/9.2.1/../../../../arm-none-eabi/lib/thumb/v7-m/nofp\libc.a(lib_a-lock.o)
 .text.__retarget_lock_try_acquire_recursive
                0x00000000        0x4 c:/program files (x86)/gnu tools arm embedded/9 2019-q4-major/bin/../lib/gcc/arm-none-eabi/9.2.1/../../../../arm-none-eabi/lib/thumb/v7-m/nofp\libc.a(lib_a-lock.o)
 .text.__retarget_lock_release
                0x00000000        0x4 c:/program files (x86)/gnu tools arm embedded/9 2019-q4-major/bin/../lib/gcc/arm-none-eabi/9.2.1/../../../../arm-none-eabi/lib/thumb/v7-m/nofp\libc.a(lib_a-lock.o)
 .text          0x00000000        0x0 c:/program files (x86)/gnu tools arm embedded/9 2019-q4-major/bin/../lib/gcc/arm-none-eabi/9.2.1/../../../../arm-none-eabi/lib/thumb/v7-m/nofp\libc.a(lib_a-reent.o)
 .data          0x00000000        0x0 c:/program files (x86)/gnu tools arm embedded/9 2019-q4-major/bin/../lib/gcc/arm-none-eabi/9.2.1/../../../../arm-none-eabi/lib/thumb/v7-m/nofp\libc.a(lib_a-reent.o)
 .bss           0x00000000        0x0 c:/program files (x86)/gnu tools arm embedded/9 2019-q4-major/bin/../lib/gcc/arm-none-eabi/9.2.1/../../../../arm-none-eabi/lib/thumb/v7-m/nofp\libc.a(lib_a-reent.o)
 .text.cleanup_glue
                0x00000000       0x1c c:/program files (x86)/gnu tools arm embedded/9 2019-q4-major/bin/../lib/gcc/arm-none-eabi/9.2.1/../../../../arm-none-eabi/lib/thumb/v7-m/nofp\libc.a(lib_a-reent.o)
 .text._reclaim_reent
                0x00000000       0x84 c:/program files (x86)/gnu tools arm embedded/9 2019-q4-major/bin/../lib/gcc/arm-none-eabi/9.2.1/../../../../arm-none-eabi/lib/thumb/v7-m/nofp\libc.a(lib_a-reent.o)
 .text          0x00000000        0x0 c:/program files (x86)/gnu tools arm embedded/9 2019-q4-major/bin/../lib/gcc/arm-none-eabi/9.2.1/../../../../arm-none-eabi/lib/thumb/v7-m/nofp\libc.a(lib_a-svfprintf.o)
 .data          0x00000000        0x0 c:/program files (x86)/gnu tools arm embedded/9 2019-q4-major/bin/../lib/gcc/arm-none-eabi/9.2.1/../../../../arm-none-eabi/lib/thumb/v7-m/nofp\libc.a(lib_a-svfprintf.o)
 .bss           0x00000000        0x0 c:/program files (x86)/gnu tools arm embedded/9 2019-q4-major/bin/../lib/gcc/arm-none-eabi/9.2.1/../../../../arm-none-eabi/lib/thumb/v7-m/nofp\libc.a(lib_a-svfprintf.o)
 .text          0x00000000        0x0 c:/program files (x86)/gnu tools arm embedded/9 2019-q4-major/bin/../lib/gcc/arm-none-eabi/9.2.1/../../../../arm-none-eabi/lib/thumb/v7-m/nofp\libc.a(lib_a-dtoa.o)
 .data          0x00000000        0x0 c:/program files (x86)/gnu tools arm embedded/9 2019-q4-major/bin/../lib/gcc/arm-none-eabi/9.2.1/../../../../arm-none-eabi/lib/thumb/v7-m/nofp\libc.a(lib_a-dtoa.o)
 .bss           0x00000000        0x0 c:/program files (x86)/gnu tools arm embedded/9 2019-q4-major/bin/../lib/gcc/arm-none-eabi/9.2.1/../../../../arm-none-eabi/lib/thumb/v7-m/nofp\libc.a(lib_a-dtoa.o)
 .text          0x00000000        0x0 c:/program files (x86)/gnu tools arm embedded/9 2019-q4-major/bin/../lib/gcc/arm-none-eabi/9.2.1/../../../../arm-none-eabi/lib/thumb/v7-m/nofp\libc.a(lib_a-localeconv.o)
 .data          0x00000000        0x0 c:/program files (x86)/gnu tools arm embedded/9 2019-q4-major/bin/../lib/gcc/arm-none-eabi/9.2.1/../../../../arm-none-eabi/lib/thumb/v7-m/nofp\libc.a(lib_a-localeconv.o)
 .bss           0x00000000        0x0 c:/program files (x86)/gnu tools arm embedded/9 2019-q4-major/bin/../lib/gcc/arm-none-eabi/9.2.1/../../../../arm-none-eabi/lib/thumb/v7-m/nofp\libc.a(lib_a-localeconv.o)
 .text.__localeconv_l
                0x00000000        0x4 c:/program files (x86)/gnu tools arm embedded/9 2019-q4-major/bin/../lib/gcc/arm-none-eabi/9.2.1/../../../../arm-none-eabi/lib/thumb/v7-m/nofp\libc.a(lib_a-localeconv.o)
 .text.localeconv
                0x00000000        0x8 c:/program files (x86)/gnu tools arm embedded/9 2019-q4-major/bin/../lib/gcc/arm-none-eabi/9.2.1/../../../../arm-none-eabi/lib/thumb/v7-m/nofp\libc.a(lib_a-localeconv.o)
 .text          0x00000000        0x0 c:/program files (x86)/gnu tools arm embedded/9 2019-q4-major/bin/../lib/gcc/arm-none-eabi/9.2.1/../../../../arm-none-eabi/lib/thumb/v7-m/nofp\libc.a(lib_a-memchr-stub.o)
 .data          0x00000000        0x0 c:/program files (x86)/gnu tools arm embedded/9 2019-q4-major/bin/../lib/gcc/arm-none-eabi/9.2.1/../../../../arm-none-eabi/lib/thumb/v7-m/nofp\libc.a(lib_a-memchr-stub.o)
 .bss           0x00000000        0x0 c:/program files (x86)/gnu tools arm embedded/9 2019-q4-major/bin/../lib/gcc/arm-none-eabi/9.2.1/../../../../arm-none-eabi/lib/thumb/v7-m/nofp\libc.a(lib_a-memchr-stub.o)
 .text          0x00000000        0x0 c:/program files (x86)/gnu tools arm embedded/9 2019-q4-major/bin/../lib/gcc/arm-none-eabi/9.2.1/../../../../arm-none-eabi/lib/thumb/v7-m/nofp\libc.a(lib_a-mprec.o)
 .data          0x00000000        0x0 c:/program files (x86)/gnu tools arm embedded/9 2019-q4-major/bin/../lib/gcc/arm-none-eabi/9.2.1/../../../../arm-none-eabi/lib/thumb/v7-m/nofp\libc.a(lib_a-mprec.o)
 .bss           0x00000000        0x0 c:/program files (x86)/gnu tools arm embedded/9 2019-q4-major/bin/../lib/gcc/arm-none-eabi/9.2.1/../../../../arm-none-eabi/lib/thumb/v7-m/nofp\libc.a(lib_a-mprec.o)
 .text.__s2b    0x00000000       0xa0 c:/program files (x86)/gnu tools arm embedded/9 2019-q4-major/bin/../lib/gcc/arm-none-eabi/9.2.1/../../../../arm-none-eabi/lib/thumb/v7-m/nofp\libc.a(lib_a-mprec.o)
 .text.__ulp    0x00000000       0x44 c:/program files (x86)/gnu tools arm embedded/9 2019-q4-major/bin/../lib/gcc/arm-none-eabi/9.2.1/../../../../arm-none-eabi/lib/thumb/v7-m/nofp\libc.a(lib_a-mprec.o)
 .text.__b2d    0x00000000       0xd4 c:/program files (x86)/gnu tools arm embedded/9 2019-q4-major/bin/../lib/gcc/arm-none-eabi/9.2.1/../../../../arm-none-eabi/lib/thumb/v7-m/nofp\libc.a(lib_a-mprec.o)
 .text.__ratio  0x00000000       0x5c c:/program files (x86)/gnu tools arm embedded/9 2019-q4-major/bin/../lib/gcc/arm-none-eabi/9.2.1/../../../../arm-none-eabi/lib/thumb/v7-m/nofp\libc.a(lib_a-mprec.o)
 .text._mprec_log10
                0x00000000       0x38 c:/program files (x86)/gnu tools arm embedded/9 2019-q4-major/bin/../lib/gcc/arm-none-eabi/9.2.1/../../../../arm-none-eabi/lib/thumb/v7-m/nofp\libc.a(lib_a-mprec.o)
 .text.__copybits
                0x00000000       0x48 c:/program files (x86)/gnu tools arm embedded/9 2019-q4-major/bin/../lib/gcc/arm-none-eabi/9.2.1/../../../../arm-none-eabi/lib/thumb/v7-m/nofp\libc.a(lib_a-mprec.o)
 .text.__any_on
                0x00000000       0x60 c:/program files (x86)/gnu tools arm embedded/9 2019-q4-major/bin/../lib/gcc/arm-none-eabi/9.2.1/../../../../arm-none-eabi/lib/thumb/v7-m/nofp\libc.a(lib_a-mprec.o)
 .rodata.__mprec_tinytens
                0x00000000       0x28 c:/program files (x86)/gnu tools arm embedded/9 2019-q4-major/bin/../lib/gcc/arm-none-eabi/9.2.1/../../../../arm-none-eabi/lib/thumb/v7-m/nofp\libc.a(lib_a-mprec.o)
 .text          0x00000000        0x0 c:/program files (x86)/gnu tools arm embedded/9 2019-q4-major/bin/../lib/gcc/arm-none-eabi/9.2.1/../../../../arm-none-eabi/lib/thumb/v7-m/nofp\libc.a(lib_a-s_frexp.o)
 .data          0x00000000        0x0 c:/program files (x86)/gnu tools arm embedded/9 2019-q4-major/bin/../lib/gcc/arm-none-eabi/9.2.1/../../../../arm-none-eabi/lib/thumb/v7-m/nofp\libc.a(lib_a-s_frexp.o)
 .bss           0x00000000        0x0 c:/program files (x86)/gnu tools arm embedded/9 2019-q4-major/bin/../lib/gcc/arm-none-eabi/9.2.1/../../../../arm-none-eabi/lib/thumb/v7-m/nofp\libc.a(lib_a-s_frexp.o)
 .text          0x00000000        0x0 c:/program files (x86)/gnu tools arm embedded/9 2019-q4-major/bin/../lib/gcc/arm-none-eabi/9.2.1/../../../../arm-none-eabi/lib/thumb/v7-m/nofp\libc.a(lib_a-strncpy.o)
 .data          0x00000000        0x0 c:/program files (x86)/gnu tools arm embedded/9 2019-q4-major/bin/../lib/gcc/arm-none-eabi/9.2.1/../../../../arm-none-eabi/lib/thumb/v7-m/nofp\libc.a(lib_a-strncpy.o)
 .bss           0x00000000        0x0 c:/program files (x86)/gnu tools arm embedded/9 2019-q4-major/bin/../lib/gcc/arm-none-eabi/9.2.1/../../../../arm-none-eabi/lib/thumb/v7-m/nofp\libc.a(lib_a-strncpy.o)
 .text          0x00000000        0x0 c:/program files (x86)/gnu tools arm embedded/9 2019-q4-major/bin/../lib/gcc/arm-none-eabi/9.2.1/../../../../arm-none-eabi/lib/thumb/v7-m/nofp\libc.a(lib_a-svfiprintf.o)
 .data          0x00000000        0x0 c:/program files (x86)/gnu tools arm embedded/9 2019-q4-major/bin/../lib/gcc/arm-none-eabi/9.2.1/../../../../arm-none-eabi/lib/thumb/v7-m/nofp\libc.a(lib_a-svfiprintf.o)
 .bss           0x00000000        0x0 c:/program files (x86)/gnu tools arm embedded/9 2019-q4-major/bin/../lib/gcc/arm-none-eabi/9.2.1/../../../../arm-none-eabi/lib/thumb/v7-m/nofp\libc.a(lib_a-svfiprintf.o)
 .rodata._svfiprintf_r.str1.4
                0x00000000       0x2f c:/program files (x86)/gnu tools arm embedded/9 2019-q4-major/bin/../lib/gcc/arm-none-eabi/9.2.1/../../../../arm-none-eabi/lib/thumb/v7-m/nofp\libc.a(lib_a-svfiprintf.o)
 .text._svfiprintf_r
                0x00000000      0xb24 c:/program files (x86)/gnu tools arm embedded/9 2019-q4-major/bin/../lib/gcc/arm-none-eabi/9.2.1/../../../../arm-none-eabi/lib/thumb/v7-m/nofp\libc.a(lib_a-svfiprintf.o)
 .rodata.blanks.7324
                0x00000000       0x10 c:/program files (x86)/gnu tools arm embedded/9 2019-q4-major/bin/../lib/gcc/arm-none-eabi/9.2.1/../../../../arm-none-eabi/lib/thumb/v7-m/nofp\libc.a(lib_a-svfiprintf.o)
 .rodata.zeroes.7325
                0x00000000       0x10 c:/program files (x86)/gnu tools arm embedded/9 2019-q4-major/bin/../lib/gcc/arm-none-eabi/9.2.1/../../../../arm-none-eabi/lib/thumb/v7-m/nofp\libc.a(lib_a-svfiprintf.o)
 .text          0x00000000        0x0 c:/program files (x86)/gnu tools arm embedded/9 2019-q4-major/bin/../lib/gcc/arm-none-eabi/9.2.1/../../../../arm-none-eabi/lib/thumb/v7-m/nofp\libc.a(lib_a-callocr.o)
 .data          0x00000000        0x0 c:/program files (x86)/gnu tools arm embedded/9 2019-q4-major/bin/../lib/gcc/arm-none-eabi/9.2.1/../../../../arm-none-eabi/lib/thumb/v7-m/nofp\libc.a(lib_a-callocr.o)
 .bss           0x00000000        0x0 c:/program files (x86)/gnu tools arm embedded/9 2019-q4-major/bin/../lib/gcc/arm-none-eabi/9.2.1/../../../../arm-none-eabi/lib/thumb/v7-m/nofp\libc.a(lib_a-callocr.o)
 .text          0x00000000        0x0 c:/program files (x86)/gnu tools arm embedded/9 2019-q4-major/bin/../lib/gcc/arm-none-eabi/9.2.1/../../../../arm-none-eabi/lib/thumb/v7-m/nofp\libc.a(lib_a-locale.o)
 .data          0x00000000        0x0 c:/program files (x86)/gnu tools arm embedded/9 2019-q4-major/bin/../lib/gcc/arm-none-eabi/9.2.1/../../../../arm-none-eabi/lib/thumb/v7-m/nofp\libc.a(lib_a-locale.o)
 .bss           0x00000000        0x0 c:/program files (x86)/gnu tools arm embedded/9 2019-q4-major/bin/../lib/gcc/arm-none-eabi/9.2.1/../../../../arm-none-eabi/lib/thumb/v7-m/nofp\libc.a(lib_a-locale.o)
 .text._setlocale_r
                0x00000000       0x40 c:/program files (x86)/gnu tools arm embedded/9 2019-q4-major/bin/../lib/gcc/arm-none-eabi/9.2.1/../../../../arm-none-eabi/lib/thumb/v7-m/nofp\libc.a(lib_a-locale.o)
 .text.__locale_mb_cur_max
                0x00000000        0xc c:/program files (x86)/gnu tools arm embedded/9 2019-q4-major/bin/../lib/gcc/arm-none-eabi/9.2.1/../../../../arm-none-eabi/lib/thumb/v7-m/nofp\libc.a(lib_a-locale.o)
 .text.setlocale
                0x00000000       0x10 c:/program files (x86)/gnu tools arm embedded/9 2019-q4-major/bin/../lib/gcc/arm-none-eabi/9.2.1/../../../../arm-none-eabi/lib/thumb/v7-m/nofp\libc.a(lib_a-locale.o)
 .bss._PathLocale
                0x00000000        0x4 c:/program files (x86)/gnu tools arm embedded/9 2019-q4-major/bin/../lib/gcc/arm-none-eabi/9.2.1/../../../../arm-none-eabi/lib/thumb/v7-m/nofp\libc.a(lib_a-locale.o)
 .text          0x00000000        0x0 c:/program files (x86)/gnu tools arm embedded/9 2019-q4-major/bin/../lib/gcc/arm-none-eabi/9.2.1/../../../../arm-none-eabi/lib/thumb/v7-m/nofp\libc.a(lib_a-mbtowc_r.o)
 .data          0x00000000        0x0 c:/program files (x86)/gnu tools arm embedded/9 2019-q4-major/bin/../lib/gcc/arm-none-eabi/9.2.1/../../../../arm-none-eabi/lib/thumb/v7-m/nofp\libc.a(lib_a-mbtowc_r.o)
 .bss           0x00000000        0x0 c:/program files (x86)/gnu tools arm embedded/9 2019-q4-major/bin/../lib/gcc/arm-none-eabi/9.2.1/../../../../arm-none-eabi/lib/thumb/v7-m/nofp\libc.a(lib_a-mbtowc_r.o)
 .text._mbtowc_r
                0x00000000       0x14 c:/program files (x86)/gnu tools arm embedded/9 2019-q4-major/bin/../lib/gcc/arm-none-eabi/9.2.1/../../../../arm-none-eabi/lib/thumb/v7-m/nofp\libc.a(lib_a-mbtowc_r.o)
 .text          0x00000000        0x0 c:/program files (x86)/gnu tools arm embedded/9 2019-q4-major/bin/../lib/gcc/arm-none-eabi/9.2.1/../../../../arm-none-eabi/lib/thumb/v7-m/nofp\libc.a(lib_a-memmove.o)
 .data          0x00000000        0x0 c:/program files (x86)/gnu tools arm embedded/9 2019-q4-major/bin/../lib/gcc/arm-none-eabi/9.2.1/../../../../arm-none-eabi/lib/thumb/v7-m/nofp\libc.a(lib_a-memmove.o)
 .bss           0x00000000        0x0 c:/program files (x86)/gnu tools arm embedded/9 2019-q4-major/bin/../lib/gcc/arm-none-eabi/9.2.1/../../../../arm-none-eabi/lib/thumb/v7-m/nofp\libc.a(lib_a-memmove.o)
 .text          0x00000000        0x0 c:/program files (x86)/gnu tools arm embedded/9 2019-q4-major/bin/../lib/gcc/arm-none-eabi/9.2.1/../../../../arm-none-eabi/lib/thumb/v7-m/nofp\libc.a(lib_a-reallocr.o)
 .data          0x00000000        0x0 c:/program files (x86)/gnu tools arm embedded/9 2019-q4-major/bin/../lib/gcc/arm-none-eabi/9.2.1/../../../../arm-none-eabi/lib/thumb/v7-m/nofp\libc.a(lib_a-reallocr.o)
 .bss           0x00000000        0x0 c:/program files (x86)/gnu tools arm embedded/9 2019-q4-major/bin/../lib/gcc/arm-none-eabi/9.2.1/../../../../arm-none-eabi/lib/thumb/v7-m/nofp\libc.a(lib_a-reallocr.o)
 .text          0x00000000      0x1bc c:/program files (x86)/gnu tools arm embedded/9 2019-q4-major/bin/../lib/gcc/arm-none-eabi/9.2.1/../../../../arm-none-eabi/lib/thumb/v7-m/nofp\libc.a(lib_a-strcmp.o)
 .data          0x00000000        0x0 c:/program files (x86)/gnu tools arm embedded/9 2019-q4-major/bin/../lib/gcc/arm-none-eabi/9.2.1/../../../../arm-none-eabi/lib/thumb/v7-m/nofp\libc.a(lib_a-strcmp.o)
 .bss           0x00000000        0x0 c:/program files (x86)/gnu tools arm embedded/9 2019-q4-major/bin/../lib/gcc/arm-none-eabi/9.2.1/../../../../arm-none-eabi/lib/thumb/v7-m/nofp\libc.a(lib_a-strcmp.o)
 .debug_frame   0x00000000       0x34 c:/program files (x86)/gnu tools arm embedded/9 2019-q4-major/bin/../lib/gcc/arm-none-eabi/9.2.1/../../../../arm-none-eabi/lib/thumb/v7-m/nofp\libc.a(lib_a-strcmp.o)
 .text          0x00000000        0x0 c:/program files (x86)/gnu tools arm embedded/9 2019-q4-major/bin/../lib/gcc/arm-none-eabi/9.2.1/../../../../arm-none-eabi/lib/thumb/v7-m/nofp\libc.a(lib_a-wctomb_r.o)
 .data          0x00000000        0x0 c:/program files (x86)/gnu tools arm embedded/9 2019-q4-major/bin/../lib/gcc/arm-none-eabi/9.2.1/../../../../arm-none-eabi/lib/thumb/v7-m/nofp\libc.a(lib_a-wctomb_r.o)
 .bss           0x00000000        0x0 c:/program files (x86)/gnu tools arm embedded/9 2019-q4-major/bin/../lib/gcc/arm-none-eabi/9.2.1/../../../../arm-none-eabi/lib/thumb/v7-m/nofp\libc.a(lib_a-wctomb_r.o)
 .text._wctomb_r
                0x00000000       0x14 c:/program files (x86)/gnu tools arm embedded/9 2019-q4-major/bin/../lib/gcc/arm-none-eabi/9.2.1/../../../../arm-none-eabi/lib/thumb/v7-m/nofp\libc.a(lib_a-wctomb_r.o)
 .text          0x00000000        0x0 c:/program files (x86)/gnu tools arm embedded/9 2019-q4-major/bin/../lib/gcc/arm-none-eabi/9.2.1/../../../../arm-none-eabi/lib/thumb/v7-m/nofp\libm.a(lib_a-w_sqrt.o)
 .data          0x00000000        0x0 c:/program files (x86)/gnu tools arm embedded/9 2019-q4-major/bin/../lib/gcc/arm-none-eabi/9.2.1/../../../../arm-none-eabi/lib/thumb/v7-m/nofp\libm.a(lib_a-w_sqrt.o)
 .bss           0x00000000        0x0 c:/program files (x86)/gnu tools arm embedded/9 2019-q4-major/bin/../lib/gcc/arm-none-eabi/9.2.1/../../../../arm-none-eabi/lib/thumb/v7-m/nofp\libm.a(lib_a-w_sqrt.o)
 .rodata.sqrt.str1.4
                0x00000000        0x5 c:/program files (x86)/gnu tools arm embedded/9 2019-q4-major/bin/../lib/gcc/arm-none-eabi/9.2.1/../../../../arm-none-eabi/lib/thumb/v7-m/nofp\libm.a(lib_a-w_sqrt.o)
 .text.sqrt     0x00000000       0xc0 c:/program files (x86)/gnu tools arm embedded/9 2019-q4-major/bin/../lib/gcc/arm-none-eabi/9.2.1/../../../../arm-none-eabi/lib/thumb/v7-m/nofp\libm.a(lib_a-w_sqrt.o)
 .debug_frame   0x00000000       0x44 c:/program files (x86)/gnu tools arm embedded/9 2019-q4-major/bin/../lib/gcc/arm-none-eabi/9.2.1/../../../../arm-none-eabi/lib/thumb/v7-m/nofp\libm.a(lib_a-w_sqrt.o)
 .text          0x00000000        0x0 c:/program files (x86)/gnu tools arm embedded/9 2019-q4-major/bin/../lib/gcc/arm-none-eabi/9.2.1/../../../../arm-none-eabi/lib/thumb/v7-m/nofp\libm.a(lib_a-e_sqrt.o)
 .data          0x00000000        0x0 c:/program files (x86)/gnu tools arm embedded/9 2019-q4-major/bin/../lib/gcc/arm-none-eabi/9.2.1/../../../../arm-none-eabi/lib/thumb/v7-m/nofp\libm.a(lib_a-e_sqrt.o)
 .bss           0x00000000        0x0 c:/program files (x86)/gnu tools arm embedded/9 2019-q4-major/bin/../lib/gcc/arm-none-eabi/9.2.1/../../../../arm-none-eabi/lib/thumb/v7-m/nofp\libm.a(lib_a-e_sqrt.o)
 .text.__ieee754_sqrt
                0x00000000      0x188 c:/program files (x86)/gnu tools arm embedded/9 2019-q4-major/bin/../lib/gcc/arm-none-eabi/9.2.1/../../../../arm-none-eabi/lib/thumb/v7-m/nofp\libm.a(lib_a-e_sqrt.o)
 .debug_frame   0x00000000       0x30 c:/program files (x86)/gnu tools arm embedded/9 2019-q4-major/bin/../lib/gcc/arm-none-eabi/9.2.1/../../../../arm-none-eabi/lib/thumb/v7-m/nofp\libm.a(lib_a-e_sqrt.o)
 .text          0x00000000        0x0 c:/program files (x86)/gnu tools arm embedded/9 2019-q4-major/bin/../lib/gcc/arm-none-eabi/9.2.1/../../../../arm-none-eabi/lib/thumb/v7-m/nofp\libm.a(lib_a-s_lib_ver.o)
 .data          0x00000000        0x0 c:/program files (x86)/gnu tools arm embedded/9 2019-q4-major/bin/../lib/gcc/arm-none-eabi/9.2.1/../../../../arm-none-eabi/lib/thumb/v7-m/nofp\libm.a(lib_a-s_lib_ver.o)
 .bss           0x00000000        0x0 c:/program files (x86)/gnu tools arm embedded/9 2019-q4-major/bin/../lib/gcc/arm-none-eabi/9.2.1/../../../../arm-none-eabi/lib/thumb/v7-m/nofp\libm.a(lib_a-s_lib_ver.o)
 .data.__fdlib_version
                0x00000000        0x1 c:/program files (x86)/gnu tools arm embedded/9 2019-q4-major/bin/../lib/gcc/arm-none-eabi/9.2.1/../../../../arm-none-eabi/lib/thumb/v7-m/nofp\libm.a(lib_a-s_lib_ver.o)
 .text          0x00000000        0x0 c:/program files (x86)/gnu tools arm embedded/9 2019-q4-major/bin/../lib/gcc/arm-none-eabi/9.2.1/../../../../arm-none-eabi/lib/thumb/v7-m/nofp\libm.a(lib_a-s_matherr.o)
 .data          0x00000000        0x0 c:/program files (x86)/gnu tools arm embedded/9 2019-q4-major/bin/../lib/gcc/arm-none-eabi/9.2.1/../../../../arm-none-eabi/lib/thumb/v7-m/nofp\libm.a(lib_a-s_matherr.o)
 .bss           0x00000000        0x0 c:/program files (x86)/gnu tools arm embedded/9 2019-q4-major/bin/../lib/gcc/arm-none-eabi/9.2.1/../../../../arm-none-eabi/lib/thumb/v7-m/nofp\libm.a(lib_a-s_matherr.o)
 .text.matherr  0x00000000        0x4 c:/program files (x86)/gnu tools arm embedded/9 2019-q4-major/bin/../lib/gcc/arm-none-eabi/9.2.1/../../../../arm-none-eabi/lib/thumb/v7-m/nofp\libm.a(lib_a-s_matherr.o)
 .debug_frame   0x00000000       0x20 c:/program files (x86)/gnu tools arm embedded/9 2019-q4-major/bin/../lib/gcc/arm-none-eabi/9.2.1/../../../../arm-none-eabi/lib/thumb/v7-m/nofp\libm.a(lib_a-s_matherr.o)
 .text          0x00000000      0x254 c:/program files (x86)/gnu tools arm embedded/9 2019-q4-major/bin/../lib/gcc/arm-none-eabi/9.2.1/thumb/v7-m/nofp\libgcc.a(_arm_muldf3.o)
 .data          0x00000000        0x0 c:/program files (x86)/gnu tools arm embedded/9 2019-q4-major/bin/../lib/gcc/arm-none-eabi/9.2.1/thumb/v7-m/nofp\libgcc.a(_arm_muldf3.o)
 .bss           0x00000000        0x0 c:/program files (x86)/gnu tools arm embedded/9 2019-q4-major/bin/../lib/gcc/arm-none-eabi/9.2.1/thumb/v7-m/nofp\libgcc.a(_arm_muldf3.o)
 .debug_frame   0x00000000       0x30 c:/program files (x86)/gnu tools arm embedded/9 2019-q4-major/bin/../lib/gcc/arm-none-eabi/9.2.1/thumb/v7-m/nofp\libgcc.a(_arm_muldf3.o)
 .text          0x00000000      0x168 c:/program files (x86)/gnu tools arm embedded/9 2019-q4-major/bin/../lib/gcc/arm-none-eabi/9.2.1/thumb/v7-m/nofp\libgcc.a(_arm_mulsf3.o)
 .data          0x00000000        0x0 c:/program files (x86)/gnu tools arm embedded/9 2019-q4-major/bin/../lib/gcc/arm-none-eabi/9.2.1/thumb/v7-m/nofp\libgcc.a(_arm_mulsf3.o)
 .bss           0x00000000        0x0 c:/program files (x86)/gnu tools arm embedded/9 2019-q4-major/bin/../lib/gcc/arm-none-eabi/9.2.1/thumb/v7-m/nofp\libgcc.a(_arm_mulsf3.o)
 .debug_frame   0x00000000       0x24 c:/program files (x86)/gnu tools arm embedded/9 2019-q4-major/bin/../lib/gcc/arm-none-eabi/9.2.1/thumb/v7-m/nofp\libgcc.a(_arm_mulsf3.o)
 .data          0x00000000        0x0 c:/program files (x86)/gnu tools arm embedded/9 2019-q4-major/bin/../lib/gcc/arm-none-eabi/9.2.1/thumb/v7-m/nofp\libgcc.a(_arm_addsubdf3.o)
 .bss           0x00000000        0x0 c:/program files (x86)/gnu tools arm embedded/9 2019-q4-major/bin/../lib/gcc/arm-none-eabi/9.2.1/thumb/v7-m/nofp\libgcc.a(_arm_addsubdf3.o)
 .data          0x00000000        0x0 c:/program files (x86)/gnu tools arm embedded/9 2019-q4-major/bin/../lib/gcc/arm-none-eabi/9.2.1/thumb/v7-m/nofp\libgcc.a(_arm_muldivdf3.o)
 .bss           0x00000000        0x0 c:/program files (x86)/gnu tools arm embedded/9 2019-q4-major/bin/../lib/gcc/arm-none-eabi/9.2.1/thumb/v7-m/nofp\libgcc.a(_arm_muldivdf3.o)
 .data          0x00000000        0x0 c:/program files (x86)/gnu tools arm embedded/9 2019-q4-major/bin/../lib/gcc/arm-none-eabi/9.2.1/thumb/v7-m/nofp\libgcc.a(_arm_cmpdf2.o)
 .bss           0x00000000        0x0 c:/program files (x86)/gnu tools arm embedded/9 2019-q4-major/bin/../lib/gcc/arm-none-eabi/9.2.1/thumb/v7-m/nofp\libgcc.a(_arm_cmpdf2.o)
 .data          0x00000000        0x0 c:/program files (x86)/gnu tools arm embedded/9 2019-q4-major/bin/../lib/gcc/arm-none-eabi/9.2.1/thumb/v7-m/nofp\libgcc.a(_arm_unorddf2.o)
 .bss           0x00000000        0x0 c:/program files (x86)/gnu tools arm embedded/9 2019-q4-major/bin/../lib/gcc/arm-none-eabi/9.2.1/thumb/v7-m/nofp\libgcc.a(_arm_unorddf2.o)
 .data          0x00000000        0x0 c:/program files (x86)/gnu tools arm embedded/9 2019-q4-major/bin/../lib/gcc/arm-none-eabi/9.2.1/thumb/v7-m/nofp\libgcc.a(_arm_fixdfsi.o)
 .bss           0x00000000        0x0 c:/program files (x86)/gnu tools arm embedded/9 2019-q4-major/bin/../lib/gcc/arm-none-eabi/9.2.1/thumb/v7-m/nofp\libgcc.a(_arm_fixdfsi.o)
 .text          0x00000000       0x40 c:/program files (x86)/gnu tools arm embedded/9 2019-q4-major/bin/../lib/gcc/arm-none-eabi/9.2.1/thumb/v7-m/nofp\libgcc.a(_arm_fixunsdfsi.o)
 .data          0x00000000        0x0 c:/program files (x86)/gnu tools arm embedded/9 2019-q4-major/bin/../lib/gcc/arm-none-eabi/9.2.1/thumb/v7-m/nofp\libgcc.a(_arm_fixunsdfsi.o)
 .bss           0x00000000        0x0 c:/program files (x86)/gnu tools arm embedded/9 2019-q4-major/bin/../lib/gcc/arm-none-eabi/9.2.1/thumb/v7-m/nofp\libgcc.a(_arm_fixunsdfsi.o)
 .debug_frame   0x00000000       0x24 c:/program files (x86)/gnu tools arm embedded/9 2019-q4-major/bin/../lib/gcc/arm-none-eabi/9.2.1/thumb/v7-m/nofp\libgcc.a(_arm_fixunsdfsi.o)
 .data          0x00000000        0x0 c:/program files (x86)/gnu tools arm embedded/9 2019-q4-major/bin/../lib/gcc/arm-none-eabi/9.2.1/thumb/v7-m/nofp\libgcc.a(_arm_addsubsf3.o)
 .bss           0x00000000        0x0 c:/program files (x86)/gnu tools arm embedded/9 2019-q4-major/bin/../lib/gcc/arm-none-eabi/9.2.1/thumb/v7-m/nofp\libgcc.a(_arm_addsubsf3.o)
 .data          0x00000000        0x0 c:/program files (x86)/gnu tools arm embedded/9 2019-q4-major/bin/../lib/gcc/arm-none-eabi/9.2.1/thumb/v7-m/nofp\libgcc.a(_arm_muldivsf3.o)
 .bss           0x00000000        0x0 c:/program files (x86)/gnu tools arm embedded/9 2019-q4-major/bin/../lib/gcc/arm-none-eabi/9.2.1/thumb/v7-m/nofp\libgcc.a(_arm_muldivsf3.o)
 .data          0x00000000        0x0 c:/program files (x86)/gnu tools arm embedded/9 2019-q4-major/bin/../lib/gcc/arm-none-eabi/9.2.1/thumb/v7-m/nofp\libgcc.a(_arm_cmpsf2.o)
 .bss           0x00000000        0x0 c:/program files (x86)/gnu tools arm embedded/9 2019-q4-major/bin/../lib/gcc/arm-none-eabi/9.2.1/thumb/v7-m/nofp\libgcc.a(_arm_cmpsf2.o)
 .data          0x00000000        0x0 c:/program files (x86)/gnu tools arm embedded/9 2019-q4-major/bin/../lib/gcc/arm-none-eabi/9.2.1/thumb/v7-m/nofp\libgcc.a(_arm_fixunssfsi.o)
 .bss           0x00000000        0x0 c:/program files (x86)/gnu tools arm embedded/9 2019-q4-major/bin/../lib/gcc/arm-none-eabi/9.2.1/thumb/v7-m/nofp\libgcc.a(_arm_fixunssfsi.o)
 .data          0x00000000        0x0 c:/program files (x86)/gnu tools arm embedded/9 2019-q4-major/bin/../lib/gcc/arm-none-eabi/9.2.1/thumb/v7-m/nofp\libgcc.a(_aeabi_uldivmod.o)
 .bss           0x00000000        0x0 c:/program files (x86)/gnu tools arm embedded/9 2019-q4-major/bin/../lib/gcc/arm-none-eabi/9.2.1/thumb/v7-m/nofp\libgcc.a(_aeabi_uldivmod.o)
 .data          0x00000000        0x0 c:/program files (x86)/gnu tools arm embedded/9 2019-q4-major/bin/../lib/gcc/arm-none-eabi/9.2.1/thumb/v7-m/nofp\libgcc.a(_udivmoddi4.o)
 .bss           0x00000000        0x0 c:/program files (x86)/gnu tools arm embedded/9 2019-q4-major/bin/../lib/gcc/arm-none-eabi/9.2.1/thumb/v7-m/nofp\libgcc.a(_udivmoddi4.o)
 .ARM.extab     0x00000000        0x0 c:/program files (x86)/gnu tools arm embedded/9 2019-q4-major/bin/../lib/gcc/arm-none-eabi/9.2.1/thumb/v7-m/nofp\libgcc.a(_udivmoddi4.o)
 .data          0x00000000        0x0 c:/program files (x86)/gnu tools arm embedded/9 2019-q4-major/bin/../lib/gcc/arm-none-eabi/9.2.1/thumb/v7-m/nofp\libgcc.a(_dvmd_tls.o)
 .bss           0x00000000        0x0 c:/program files (x86)/gnu tools arm embedded/9 2019-q4-major/bin/../lib/gcc/arm-none-eabi/9.2.1/thumb/v7-m/nofp\libgcc.a(_dvmd_tls.o)

Memory Configuration

Name             Origin             Length             Attributes
RAM              0x20000000         0x00010000         xrw
EXTSRAM          0x68000000         0x00000000         xrw
FLASH            0x08002000         0x0007e000         xr
FLASHB1          0x00000000         0x00000000         xr
EXTMEMB0         0x00000000         0x00000000         xr
EXTMEMB1         0x00000000         0x00000000         xr
EXTMEMB2         0x00000000         0x00000000         xr
EXTMEMB3         0x00000000         0x00000000         xr
*default*        0x00000000         0xffffffff

Linker script and memory map

LOAD FLASH_RUN/main.o
LOAD FLASH_RUN/serial.o
LOAD FLASH_RUN/lcd.o
LOAD FLASH_RUN/ads7843.o
LOAD FLASH_RUN/diskio.o
LOAD FLASH_RUN/ff.o
LOAD FLASH_RUN/ccsbcs.o
LOAD FLASH_RUN/sd_driver.o
LOAD FLASH_RUN/vs1003.o
LOAD FLASH_RUN/mp3.o
LOAD FLASH_RUN/core.o
LOAD FLASH_RUN/time.o
LOAD /project/stm32fx_lib/stm32f1x_iolib/stm32f1x_iolib_hd_st32_8MHz.a
LOAD c:/program files (x86)/gnu tools arm embedded/9 2019-q4-major/bin/../lib/gcc/arm-none-eabi/9.2.1/../../../../arm-none-eabi/lib/thumb/v7-m/nofp\libc.a
LOAD c:/program files (x86)/gnu tools arm embedded/9 2019-q4-major/bin/../lib/gcc/arm-none-eabi/9.2.1/../../../../arm-none-eabi/lib/thumb/v7-m/nofp\libm.a
LOAD c:/program files (x86)/gnu tools arm embedded/9 2019-q4-major/bin/../lib/gcc/arm-none-eabi/9.2.1/../../../../arm-none-eabi/lib/thumb/v7-m/nofp\libc.a
LOAD c:/program files (x86)/gnu tools arm embedded/9 2019-q4-major/bin/../lib/gcc/arm-none-eabi/9.2.1/thumb/v7-m/nofp\libgcc.a
LOAD c:/program files (x86)/gnu tools arm embedded/9 2019-q4-major/bin/../lib/gcc/arm-none-eabi/9.2.1/../../../../arm-none-eabi/lib/thumb/v7-m/nofp\libstdc++.a
START GROUP
LOAD c:/program files (x86)/gnu tools arm embedded/9 2019-q4-major/bin/../lib/gcc/arm-none-eabi/9.2.1/thumb/v7-m/nofp\libgcc.a
LOAD c:/program files (x86)/gnu tools arm embedded/9 2019-q4-major/bin/../lib/gcc/arm-none-eabi/9.2.1/../../../../arm-none-eabi/lib/thumb/v7-m/nofp\libg.a
LOAD c:/program files (x86)/gnu tools arm embedded/9 2019-q4-major/bin/../lib/gcc/arm-none-eabi/9.2.1/../../../../arm-none-eabi/lib/thumb/v7-m/nofp\libc.a
END GROUP
                0x20010000                _estack = (ORIGIN (RAM) + LENGTH (RAM))
                0x00000200                _Minimum_Stack_Size = 0x200
                0x00000001                ASSERT ((ORIGIN (FLASH) == ALIGN (ORIGIN (FLASH), 0x80)), Start of memory region flash not aligned for startup vector table)

.text           0x08002000     0xb060
                0x08002000                . = ALIGN (0x80)
                0x00002000                _isr_vectorsflash_offs = (. - 0x8000000)
 *(.isr_vectorsflash)
 .isr_vectorsflash
                0x08002000      0x1e4 /project/stm32fx_lib/stm32f1x_iolib/stm32f1x_iolib_hd_st32_8MHz.a(startup.o)
                0x08002000                g_pfnVectors
                0x080021e4                . = ALIGN (0x4)
 CREATE_OBJECT_SYMBOLS
 *(.text .text.* .gnu.linkonce.t.*)
 .text.wait_ms  0x080021e4       0x14 FLASH_RUN/main.o
                0x080021e4                wait_ms
 .text.led_control
                0x080021f8       0x14 FLASH_RUN/main.o
                0x080021f8                led_control
 .text.Periph_Configuration
                0x0800220c       0x3e FLASH_RUN/main.o
                0x0800220c                Periph_Configuration
 *fill*         0x0800224a        0x2 
 .text.GPIO_Configuration
                0x0800224c       0xe0 FLASH_RUN/main.o
                0x0800224c                GPIO_Configuration
 .text.NVIC_Configuration
                0x0800232c       0x10 FLASH_RUN/main.o
                0x0800232c                NVIC_Configuration
 .text.TIM4_IRQHandler
                0x0800233c       0xac FLASH_RUN/main.o
                0x0800233c                TIM4_IRQHandler
 .text.adc_init
                0x080023e8       0x88 FLASH_RUN/main.o
                0x080023e8                adc_init
 .text.main_display
                0x08002470       0x94 FLASH_RUN/main.o
                0x08002470                main_display
 .text.go_back  0x08002504       0x40 FLASH_RUN/main.o
                0x08002504                go_back
 .text.touch_read
                0x08002544      0x224 FLASH_RUN/main.o
                0x08002544                touch_read
 .text.startup.main
                0x08002768      0x210 FLASH_RUN/main.o
                0x08002768                main
 .text.NVIC_SystemReset
                0x08002978       0x1c FLASH_RUN/serial.o
 .text.flash_read
                0x08002994       0x2c FLASH_RUN/serial.o
                0x08002994                flash_read
 .text.USART1_IRQHandler
                0x080029c0       0xf0 FLASH_RUN/serial.o
                0x080029c0                USART1_IRQHandler
 .text.USART2_IRQHandler
                0x08002ab0       0xf0 FLASH_RUN/serial.o
                0x08002ab0                USART2_IRQHandler
 .text.uasrt_send
                0x08002ba0       0xc0 FLASH_RUN/serial.o
                0x08002ba0                uasrt_send
 .text.s_printf
                0x08002c60       0x34 FLASH_RUN/serial.o
                0x08002c60                s_printf
 .text.receive_serial1
                0x08002c94       0x80 FLASH_RUN/serial.o
                0x08002c94                receive_serial1
 .text.receive_serial2
                0x08002d14       0x80 FLASH_RUN/serial.o
                0x08002d14                receive_serial2
 .text.serial_init
                0x08002d94      0x164 FLASH_RUN/serial.o
                0x08002d94                serial_init
 .text.lcd_data_port_input
                0x08002ef8       0x18 FLASH_RUN/lcd.o
                0x08002ef8                lcd_data_port_input
 .text.lcd_data_port_output
                0x08002f10       0x18 FLASH_RUN/lcd.o
                0x08002f10                lcd_data_port_output
 .text.lcd_cs_hi
                0x08002f28       0x10 FLASH_RUN/lcd.o
                0x08002f28                lcd_cs_hi
 .text.lcd_cs_lo
                0x08002f38       0x10 FLASH_RUN/lcd.o
                0x08002f38                lcd_cs_lo
 .text.lcd_rs_hi
                0x08002f48       0x10 FLASH_RUN/lcd.o
                0x08002f48                lcd_rs_hi
 .text.lcd_rs_lo
                0x08002f58       0x10 FLASH_RUN/lcd.o
                0x08002f58                lcd_rs_lo
 .text.lcd_wr_hi
                0x08002f68       0x10 FLASH_RUN/lcd.o
                0x08002f68                lcd_wr_hi
 .text.lcd_wr_lo
                0x08002f78       0x10 FLASH_RUN/lcd.o
                0x08002f78                lcd_wr_lo
 .text.lcd_rd_hi
                0x08002f88       0x10 FLASH_RUN/lcd.o
                0x08002f88                lcd_rd_hi
 .text.lcd_rd_lo
                0x08002f98       0x10 FLASH_RUN/lcd.o
                0x08002f98                lcd_rd_lo
 .text.lcd_wr_data
                0x08002fa8       0x24 FLASH_RUN/lcd.o
                0x08002fa8                lcd_wr_data
 .text.lcd_wr_register
                0x08002fcc       0x24 FLASH_RUN/lcd.o
                0x08002fcc                lcd_wr_register
 .text.lcd_write_register
                0x08002ff0       0x12 FLASH_RUN/lcd.o
                0x08002ff0                lcd_write_register
 *fill*         0x08003002        0x2 
 .text.lcd_read_register
                0x08003004       0x30 FLASH_RUN/lcd.o
                0x08003004                lcd_read_register
 .text.lcd_write_ram_prepare
                0x08003034        0x6 FLASH_RUN/lcd.o
                0x08003034                lcd_write_ram_prepare
 *fill*         0x0800303a        0x2 
 .text.lcd_set_pixel
                0x0800303c       0x1c FLASH_RUN/lcd.o
                0x0800303c                lcd_set_pixel
 .text.lcd_clear
                0x08003058       0x20 FLASH_RUN/lcd.o
                0x08003058                lcd_clear
 .text.lcd_init
                0x08003078      0x9fc FLASH_RUN/lcd.o
                0x08003078                lcd_init
 .text.set_pixel
                0x08003a74       0x18 FLASH_RUN/lcd.o
                0x08003a74                set_pixel
 .text.out_lcd  0x08003a8c       0x54 FLASH_RUN/lcd.o
                0x08003a8c                out_lcd
 .text.uni_to_kssm
                0x08003ae0       0x62 FLASH_RUN/lcd.o
                0x08003ae0                uni_to_kssm
 *fill*         0x08003b42        0x2 
 .text.ks5601_to_kssm
                0x08003b44       0x3c FLASH_RUN/lcd.o
                0x08003b44                ks5601_to_kssm
 .text.put_eng  0x08003b80       0xfc FLASH_RUN/lcd.o
                0x08003b80                put_eng
 .text.put_han  0x08003c7c      0x2a4 FLASH_RUN/lcd.o
                0x08003c7c                put_han
 .text.lput_char
                0x08003f20       0x38 FLASH_RUN/lcd.o
                0x08003f20                lput_char
 .text.lput_char_xy
                0x08003f58       0x4c FLASH_RUN/lcd.o
                0x08003f58                lput_char_xy
 .text.lcd_printf
                0x08003fa4       0x3c FLASH_RUN/lcd.o
                0x08003fa4                lcd_printf
 .text.pen_interrupt_set.part.0
                0x08003fe0       0x10 FLASH_RUN/ads7843.o
 .text.ads7843_write_byte
                0x08003ff0       0x38 FLASH_RUN/ads7843.o
                0x08003ff0                ads7843_write_byte
 .text.ads7843_read_adc
                0x08004028       0x4c FLASH_RUN/ads7843.o
                0x08004028                ads7843_read_adc
 .text.ads7843_read_xy
                0x08004074       0x72 FLASH_RUN/ads7843.o
                0x08004074                ads7843_read_xy
 .text.read_ads7843
                0x080040e6       0x28 FLASH_RUN/ads7843.o
                0x080040e6                read_ads7843
 .text.read_ads7843_2
                0x0800410e       0x76 FLASH_RUN/ads7843.o
                0x0800410e                read_ads7843_2
 .text.pen_interrupt_set
                0x08004184       0x18 FLASH_RUN/ads7843.o
                0x08004184                pen_interrupt_set
 .text.touch_init
                0x0800419c       0x9c FLASH_RUN/ads7843.o
                0x0800419c                touch_init
 .text.EXTI4_IRQHandler
                0x08004238       0x34 FLASH_RUN/ads7843.o
                0x08004238                EXTI4_IRQHandler
 .text.touch_process
                0x0800426c       0xa8 FLASH_RUN/ads7843.o
                0x0800426c                touch_process
 .text.disk_initialize
                0x08004314       0x18 FLASH_RUN/diskio.o
                0x08004314                disk_initialize
 .text.disk_status
                0x0800432c        0x8 FLASH_RUN/diskio.o
                0x0800432c                disk_status
 .text.disk_read
                0x08004334       0x26 FLASH_RUN/diskio.o
                0x08004334                disk_read
 .text.disk_write
                0x0800435a       0x26 FLASH_RUN/diskio.o
                0x0800435a                disk_write
 .text.get_fattime
                0x08004380        0x4 FLASH_RUN/diskio.o
                0x08004380                get_fattime
 .text.mem_cpy  0x08004384       0x14 FLASH_RUN/ff.o
 .text.mem_cmp  0x08004398       0x1c FLASH_RUN/ff.o
 .text.clust2sect
                0x080043b4       0x16 FLASH_RUN/ff.o
 .text.get_fileinfo
                0x080043ca       0x96 FLASH_RUN/ff.o
 .text.validate
                0x08004460       0x22 FLASH_RUN/ff.o
 *fill*         0x08004482        0x2 
 .text.check_fs
                0x08004484       0x60 FLASH_RUN/ff.o
 .text.auto_mount
                0x080044e4      0x1d0 FLASH_RUN/ff.o
 .text.move_window
                0x080046b4       0x6e FLASH_RUN/ff.o
 .text.get_fat  0x08004722       0xca FLASH_RUN/ff.o
 .text.dir_seek
                0x080047ec       0x82 FLASH_RUN/ff.o
 .text.put_fat  0x0800486e       0xe8 FLASH_RUN/ff.o
 .text.create_chain
                0x08004956       0x9a FLASH_RUN/ff.o
 .text.dir_next
                0x080049f0       0xf0 FLASH_RUN/ff.o
 .text.dir_read
                0x08004ae0       0x40 FLASH_RUN/ff.o
 .text.remove_chain
                0x08004b20       0x58 FLASH_RUN/ff.o
 .text.dir_register
                0x08004b78       0x6c FLASH_RUN/ff.o
 .text.follow_path
                0x08004be4      0x21c FLASH_RUN/ff.o
 .text.f_mount  0x08004e00       0x1c FLASH_RUN/ff.o
                0x08004e00                f_mount
 .text.f_open   0x08004e1c      0x134 FLASH_RUN/ff.o
                0x08004e1c                f_open
 .text.f_read   0x08004f50      0x17c FLASH_RUN/ff.o
                0x08004f50                f_read
 .text.f_chdir  0x080050cc       0x5a FLASH_RUN/ff.o
                0x080050cc                f_chdir
 .text.f_lseek  0x08005126      0x150 FLASH_RUN/ff.o
                0x08005126                f_lseek
 .text.f_opendir
                0x08005276       0x5c FLASH_RUN/ff.o
                0x08005276                f_opendir
 .text.f_readdir
                0x080052d2       0x54 FLASH_RUN/ff.o
                0x080052d2                f_readdir
 *fill*         0x08005326        0x2 
 .text.SPI_configuration
                0x08005328       0xa8 FLASH_RUN/sd_driver.o
                0x08005328                SPI_configuration
 .text.SPI_set_speed
                0x080053d0       0x40 FLASH_RUN/sd_driver.o
                0x080053d0                SPI_set_speed
 .text.SPI_read_write_byte
                0x08005410       0x38 FLASH_RUN/sd_driver.o
                0x08005410                SPI_read_write_byte
 .text.SD_wait_ready
                0x08005448       0x1e FLASH_RUN/sd_driver.o
                0x08005448                SD_wait_ready
 *fill*         0x08005466        0x2 
 .text.SD_send_command
                0x08005468       0x70 FLASH_RUN/sd_driver.o
                0x08005468                SD_send_command
 .text.SD_send_command_no_deassert
                0x080054d8       0x5c FLASH_RUN/sd_driver.o
                0x080054d8                SD_send_command_no_deassert
 .text.SD_init  0x08005534      0x18c FLASH_RUN/sd_driver.o
                0x08005534                SD_init
 .text.SD_receive_data
                0x080056c0       0x70 FLASH_RUN/sd_driver.o
                0x080056c0                SD_receive_data
 .text.SD_read_single_block
                0x08005730       0x2a FLASH_RUN/sd_driver.o
                0x08005730                SD_read_single_block
 *fill*         0x0800575a        0x2 
 .text.SD_write_single_block
                0x0800575c       0xbc FLASH_RUN/sd_driver.o
                0x0800575c                SD_write_single_block
 .text.SD_read_multi_block
                0x08005818       0x58 FLASH_RUN/sd_driver.o
                0x08005818                SD_read_multi_block
 .text.SD_write_multi_block
                0x08005870       0xcc FLASH_RUN/sd_driver.o
                0x08005870                SD_write_multi_block
 .text.delay_ms
                0x0800593c        0x4 FLASH_RUN/vs1003.o
                0x0800593c                delay_ms
 .text.mp3_reset
                0x08005940       0x34 FLASH_RUN/vs1003.o
                0x08005940                mp3_reset
 .text.vs1003_cmd_write
                0x08005974       0x54 FLASH_RUN/vs1003.o
                0x08005974                vs1003_cmd_write
 .text.vs1003_reset_decode_time
                0x080059c8       0x16 FLASH_RUN/vs1003.o
                0x080059c8                vs1003_reset_decode_time
 *fill*         0x080059de        0x2 
 .text.vs1003_sine_test
                0x080059e0      0x13c FLASH_RUN/vs1003.o
                0x080059e0                vs1003_sine_test
 .text.vs1003_reg_read
                0x08005b1c       0x5c FLASH_RUN/vs1003.o
                0x08005b1c                vs1003_reg_read
 .text.vs1003_soft_reset
                0x08005b78       0xc8 FLASH_RUN/vs1003.o
                0x08005b78                vs1003_soft_reset
 .text.get_head_info
                0x08005c40       0x6c FLASH_RUN/vs1003.o
                0x08005c40                get_head_info
 .text.vs1003_get_mp3info
                0x08005cac      0x2c4 FLASH_RUN/vs1003.o
                0x08005cac                vs1003_get_mp3info
 .text.get_decode_time
                0x08005f70        0x6 FLASH_RUN/vs1003.o
                0x08005f70                get_decode_time
 *fill*         0x08005f76        0x2 
 .text.load_patch
                0x08005f78       0x30 FLASH_RUN/vs1003.o
                0x08005f78                load_patch
 .text.set_vs1003
                0x08005fa8       0x3c FLASH_RUN/vs1003.o
                0x08005fa8                set_vs1003
 .text.vs1003_set_volume
                0x08005fe4        0xc FLASH_RUN/vs1003.o
                0x08005fe4                vs1003_set_volume
 .text.vs1003_init
                0x08005ff0       0x44 FLASH_RUN/vs1003.o
                0x08005ff0                vs1003_init
 .text.vs1003_data_write
                0x08006034       0x38 FLASH_RUN/vs1003.o
                0x08006034                vs1003_data_write
 .text.dec2hex  0x0800606c       0x1a FLASH_RUN/mp3.o
                0x0800606c                dec2hex
 *fill*         0x08006086        0x2 
 .text.mp3_prog_bar
                0x08006088      0x20c FLASH_RUN/mp3.o
                0x08006088                mp3_prog_bar
 .text.find_music
                0x08006294       0xe4 FLASH_RUN/mp3.o
                0x08006294                find_music
 .text.display_id3v1_tag
                0x08006378      0x168 FLASH_RUN/mp3.o
                0x08006378                display_id3v1_tag
 .text.mp3_displaylist
                0x080064e0       0x64 FLASH_RUN/mp3.o
                0x080064e0                mp3_displaylist
 .text.mp3_displayinit
                0x08006544       0x64 FLASH_RUN/mp3.o
                0x08006544                mp3_displayinit
 .text.play_next
                0x080065a8       0xd8 FLASH_RUN/mp3.o
                0x080065a8                play_next
 .text.play_prev
                0x08006680       0x8c FLASH_RUN/mp3.o
                0x08006680                play_prev
 .text.mp3_init
                0x0800670c      0x128 FLASH_RUN/mp3.o
                0x0800670c                mp3_init
 .text.mp3_display
                0x08006834       0x14 FLASH_RUN/mp3.o
                0x08006834                mp3_display
 .text.mp3_seek
                0x08006848       0x34 FLASH_RUN/mp3.o
                0x08006848                mp3_seek
 .text.mp3_play
                0x0800687c      0x1fc FLASH_RUN/mp3.o
                0x0800687c                mp3_play
 .text.__get_MSP
                0x08006a78        0x8 FLASH_RUN/core.o
                0x08006a78                __get_MSP
 .text._kill    0x08006a80       0x10 FLASH_RUN/core.o
                0x08006a80                _kill
 .text._exit    0x08006a90       0x10 FLASH_RUN/core.o
                0x08006a90                _exit
 .text._getpid  0x08006aa0        0x4 FLASH_RUN/core.o
                0x08006aa0                _getpid
 .text._sbrk    0x08006aa4       0x44 FLASH_RUN/core.o
                0x08006aa4                _sbrk
 .text.time_from_seconds
                0x08006ae8       0x94 FLASH_RUN/time.o
                0x08006ae8                time_from_seconds
 .text.time_to_seconds
                0x08006b7c       0x70 FLASH_RUN/time.o
                0x08006b7c                time_to_seconds
 .text.RTC_IRQHandler
                0x08006bec       0x24 FLASH_RUN/time.o
                0x08006bec                RTC_IRQHandler
 .text.set_time
                0x08006c10       0x1c FLASH_RUN/time.o
                0x08006c10                set_time
 .text.check_rtc
                0x08006c2c       0x44 FLASH_RUN/time.o
                0x08006c2c                check_rtc
 .text.setup_rtc
                0x08006c70       0x78 FLASH_RUN/time.o
                0x08006c70                setup_rtc
 .text.init_rtc
                0x08006ce8       0x66 FLASH_RUN/time.o
                0x08006ce8                init_rtc
 *fill*         0x08006d4e        0x2 
 .text.Default_Handler
                0x08006d50       0x1c /project/stm32fx_lib/stm32f1x_iolib/stm32f1x_iolib_hd_st32_8MHz.a(startup.o)
                0x08006d50                EXTI2_IRQHandler
                0x08006d50                TIM8_TRG_COM_IRQHandler
                0x08006d50                TIM8_CC_IRQHandler
                0x08006d50                DebugMon_Handler
                0x08006d50                TIM1_CC_IRQHandler
                0x08006d50                TIM6_IRQHandler
                0x08006d50                PVD_IRQHandler
                0x08006d50                SDIO_IRQHandler
                0x08006d50                PendSV_Handler
                0x08006d50                EXTI3_IRQHandler
                0x08006d50                EXTI0_IRQHandler
                0x08006d50                I2C2_EV_IRQHandler
                0x08006d50                UsageFault_Handler
                0x08006d50                ADC1_2_IRQHandler
                0x08006d50                SPI1_IRQHandler
                0x08006d50                TAMPER_IRQHandler
                0x08006d50                TIM8_UP_IRQHandler
                0x08006d50                DMA2_Channel2_IRQHandler
                0x08006d50                DMA1_Channel4_IRQHandler
                0x08006d50                USART3_IRQHandler
                0x08006d50                DMA1_Channel7_IRQHandler
                0x08006d50                CAN1_RX1_IRQHandler
                0x08006d50                UART5_IRQHandler
                0x08006d50                ADC3_IRQHandler
                0x08006d50                DMA2_Channel1_IRQHandler
                0x08006d50                I2C1_EV_IRQHandler
                0x08006d50                DMA1_Channel6_IRQHandler
                0x08006d50                UART4_IRQHandler
                0x08006d50                TIM3_IRQHandler
                0x08006d50                RCC_IRQHandler
                0x08006d50                TIM1_TRG_COM_IRQHandler
                0x08006d50                DMA1_Channel1_IRQHandler
                0x08006d50                Default_Handler
                0x08006d50                EXTI15_10_IRQHandler
                0x08006d50                TIM7_IRQHandler
                0x08006d50                TIM5_IRQHandler
                0x08006d50                EXTI9_5_IRQHandler
                0x08006d50                SPI2_IRQHandler
                0x08006d50                MemManage_Handler
                0x08006d50                SVC_Handler
                0x08006d50                DMA1_Channel5_IRQHandler
                0x08006d50                USB_LP_CAN1_RX0_IRQHandler
                0x08006d50                USB_HP_CAN1_TX_IRQHandler
                0x08006d50                DMA1_Channel3_IRQHandler
                0x08006d50                FSMC_IRQHandler
                0x08006d50                TIM1_UP_IRQHandler
                0x08006d50                WWDG_IRQHandler
                0x08006d50                TIM2_IRQHandler
                0x08006d50                TIM1_BRK_IRQHandler
                0x08006d50                EXTI1_IRQHandler
                0x08006d50                RTCAlarm_IRQHandler
                0x08006d50                DMA2_Channel4_5_IRQHandler
                0x08006d50                I2C2_ER_IRQHandler
                0x08006d50                DMA1_Channel2_IRQHandler
                0x08006d50                TIM8_BRK_IRQHandler
                0x08006d50                CAN1_SCE_IRQHandler
                0x08006d50                FLASH_IRQHandler
                0x08006d50                BusFault_Handler
                0x08006d50                SPI3_IRQHandler
                0x08006d50                I2C1_ER_IRQHandler
                0x08006d50                MMI_Handler
                0x08006d50                USBWakeUp_IRQHandler
                0x08006d50                DMA2_Channel3_IRQHandler
 .text.__Init_Data_and_BSS
                0x08006d6c       0x48 /project/stm32fx_lib/stm32f1x_iolib/stm32f1x_iolib_hd_st32_8MHz.a(startup.o)
                0x08006d6c                __Init_Data_and_BSS
 .text.Reset_Handler
                0x08006db4       0x18 /project/stm32fx_lib/stm32f1x_iolib/stm32f1x_iolib_hd_st32_8MHz.a(startup.o)
                0x08006db4                Reset_Handler
 .text.SystemInit
                0x08006dcc       0xfc /project/stm32fx_lib/stm32f1x_iolib/stm32f1x_iolib_hd_st32_8MHz.a(system.o)
                0x08006dcc                SystemInit
 .text.NVIC_PriorityGroupConfig
                0x08006ec8       0x14 /project/stm32fx_lib/stm32f1x_iolib/stm32f1x_iolib_hd_st32_8MHz.a(irq.o)
                0x08006ec8                NVIC_PriorityGroupConfig
 .text.NVIC_Init
                0x08006edc       0x68 /project/stm32fx_lib/stm32f1x_iolib/stm32f1x_iolib_hd_st32_8MHz.a(irq.o)
                0x08006edc                NVIC_Init
 .text.NVIC_SetVectorTable
                0x08006f44       0x14 /project/stm32fx_lib/stm32f1x_iolib/stm32f1x_iolib_hd_st32_8MHz.a(irq.o)
                0x08006f44                NVIC_SetVectorTable
 .text.RCC_ADCCLKConfig
                0x08006f58       0x14 /project/stm32fx_lib/stm32f1x_iolib/stm32f1x_iolib_hd_st32_8MHz.a(rcc.o)
                0x08006f58                RCC_ADCCLKConfig
 .text.RCC_LSEConfig
                0x08006f6c       0x20 /project/stm32fx_lib/stm32f1x_iolib/stm32f1x_iolib_hd_st32_8MHz.a(rcc.o)
                0x08006f6c                RCC_LSEConfig
 .text.RCC_RTCCLKConfig
                0x08006f8c       0x10 /project/stm32fx_lib/stm32f1x_iolib/stm32f1x_iolib_hd_st32_8MHz.a(rcc.o)
                0x08006f8c                RCC_RTCCLKConfig
 .text.RCC_RTCCLKCmd
                0x08006f9c        0xc /project/stm32fx_lib/stm32f1x_iolib/stm32f1x_iolib_hd_st32_8MHz.a(rcc.o)
                0x08006f9c                RCC_RTCCLKCmd
 .text.RCC_GetClocksFreq
                0x08006fa8       0x98 /project/stm32fx_lib/stm32f1x_iolib/stm32f1x_iolib_hd_st32_8MHz.a(rcc.o)
                0x08006fa8                RCC_GetClocksFreq
 .text.RCC_APB2PeriphClockCmd
                0x08007040       0x18 /project/stm32fx_lib/stm32f1x_iolib/stm32f1x_iolib_hd_st32_8MHz.a(rcc.o)
                0x08007040                RCC_APB2PeriphClockCmd
 .text.RCC_APB1PeriphClockCmd
                0x08007058       0x18 /project/stm32fx_lib/stm32f1x_iolib/stm32f1x_iolib_hd_st32_8MHz.a(rcc.o)
                0x08007058                RCC_APB1PeriphClockCmd
 .text.RCC_APB2PeriphResetCmd
                0x08007070       0x18 /project/stm32fx_lib/stm32f1x_iolib/stm32f1x_iolib_hd_st32_8MHz.a(rcc.o)
                0x08007070                RCC_APB2PeriphResetCmd
 .text.RCC_BackupResetCmd
                0x08007088        0xc /project/stm32fx_lib/stm32f1x_iolib/stm32f1x_iolib_hd_st32_8MHz.a(rcc.o)
                0x08007088                RCC_BackupResetCmd
 .text.RCC_GetFlagStatus
                0x08007094       0x28 /project/stm32fx_lib/stm32f1x_iolib/stm32f1x_iolib_hd_st32_8MHz.a(rcc.o)
                0x08007094                RCC_GetFlagStatus
 .text.ADC_DeInit
                0x080070bc       0x5c /project/stm32fx_lib/stm32f1x_iolib/stm32f1x_iolib_hd_st32_8MHz.a(adc.o)
                0x080070bc                ADC_DeInit
 .text.ADC_Init
                0x08007118       0x48 /project/stm32fx_lib/stm32f1x_iolib/stm32f1x_iolib_hd_st32_8MHz.a(adc.o)
                0x08007118                ADC_Init
 .text.ADC_StructInit
                0x08007160       0x12 /project/stm32fx_lib/stm32f1x_iolib/stm32f1x_iolib_hd_st32_8MHz.a(adc.o)
                0x08007160                ADC_StructInit
 .text.ADC_Cmd  0x08007172       0x12 /project/stm32fx_lib/stm32f1x_iolib/stm32f1x_iolib_hd_st32_8MHz.a(adc.o)
                0x08007172                ADC_Cmd
 .text.ADC_StartCalibration
                0x08007184        0xa /project/stm32fx_lib/stm32f1x_iolib/stm32f1x_iolib_hd_st32_8MHz.a(adc.o)
                0x08007184                ADC_StartCalibration
 .text.ADC_GetCalibrationStatus
                0x0800718e        0x8 /project/stm32fx_lib/stm32f1x_iolib/stm32f1x_iolib_hd_st32_8MHz.a(adc.o)
                0x0800718e                ADC_GetCalibrationStatus
 .text.ADC_ExternalTrigInjectedConvConfig
                0x08007196        0xc /project/stm32fx_lib/stm32f1x_iolib/stm32f1x_iolib_hd_st32_8MHz.a(adc.o)
                0x08007196                ADC_ExternalTrigInjectedConvConfig
 .text.ADC_ExternalTrigInjectedConvCmd
                0x080071a2       0x12 /project/stm32fx_lib/stm32f1x_iolib/stm32f1x_iolib_hd_st32_8MHz.a(adc.o)
                0x080071a2                ADC_ExternalTrigInjectedConvCmd
 .text.ADC_SoftwareStartInjectedConvCmd
                0x080071b4       0x12 /project/stm32fx_lib/stm32f1x_iolib/stm32f1x_iolib_hd_st32_8MHz.a(adc.o)
                0x080071b4                ADC_SoftwareStartInjectedConvCmd
 .text.ADC_InjectedChannelConfig
                0x080071c6       0x5c /project/stm32fx_lib/stm32f1x_iolib/stm32f1x_iolib_hd_st32_8MHz.a(adc.o)
                0x080071c6                ADC_InjectedChannelConfig
 .text.ADC_InjectedSequencerLengthConfig
                0x08007222       0x10 /project/stm32fx_lib/stm32f1x_iolib/stm32f1x_iolib_hd_st32_8MHz.a(adc.o)
                0x08007222                ADC_InjectedSequencerLengthConfig
 .text.ADC_GetInjectedConversionValue
                0x08007232       0x1a /project/stm32fx_lib/stm32f1x_iolib/stm32f1x_iolib_hd_st32_8MHz.a(adc.o)
                0x08007232                ADC_GetInjectedConversionValue
 .text.ADC_GetFlagStatus
                0x0800724c        0xc /project/stm32fx_lib/stm32f1x_iolib/stm32f1x_iolib_hd_st32_8MHz.a(adc.o)
                0x0800724c                ADC_GetFlagStatus
 .text.ADC_ClearFlag
                0x08007258        0x6 /project/stm32fx_lib/stm32f1x_iolib/stm32f1x_iolib_hd_st32_8MHz.a(adc.o)
                0x08007258                ADC_ClearFlag
 .text.BKP_DeInit
                0x0800725e       0x12 /project/stm32fx_lib/stm32f1x_iolib/stm32f1x_iolib_hd_st32_8MHz.a(bkp.o)
                0x0800725e                BKP_DeInit
 .text.BKP_TamperPinCmd
                0x08007270        0xc /project/stm32fx_lib/stm32f1x_iolib/stm32f1x_iolib_hd_st32_8MHz.a(bkp.o)
                0x08007270                BKP_TamperPinCmd
 .text.BKP_ITConfig
                0x0800727c        0xc /project/stm32fx_lib/stm32f1x_iolib/stm32f1x_iolib_hd_st32_8MHz.a(bkp.o)
                0x0800727c                BKP_ITConfig
 .text.BKP_WriteBackupRegister
                0x08007288       0x1c /project/stm32fx_lib/stm32f1x_iolib/stm32f1x_iolib_hd_st32_8MHz.a(bkp.o)
                0x08007288                BKP_WriteBackupRegister
 .text.BKP_ReadBackupRegister
                0x080072a4       0x20 /project/stm32fx_lib/stm32f1x_iolib/stm32f1x_iolib_hd_st32_8MHz.a(bkp.o)
                0x080072a4                BKP_ReadBackupRegister
 .text.BKP_ClearFlag
                0x080072c4       0x14 /project/stm32fx_lib/stm32f1x_iolib/stm32f1x_iolib_hd_st32_8MHz.a(bkp.o)
                0x080072c4                BKP_ClearFlag
 .text.EXTI_Init
                0x080072d8       0x70 /project/stm32fx_lib/stm32f1x_iolib/stm32f1x_iolib_hd_st32_8MHz.a(exti.o)
                0x080072d8                EXTI_Init
 .text.EXTI_ClearFlag
                0x08007348        0xc /project/stm32fx_lib/stm32f1x_iolib/stm32f1x_iolib_hd_st32_8MHz.a(exti.o)
                0x08007348                EXTI_ClearFlag
 .text.EXTI_GetITStatus
                0x08007354       0x1c /project/stm32fx_lib/stm32f1x_iolib/stm32f1x_iolib_hd_st32_8MHz.a(exti.o)
                0x08007354                EXTI_GetITStatus
 .text.EXTI_ClearITPendingBit
                0x08007370        0xc /project/stm32fx_lib/stm32f1x_iolib/stm32f1x_iolib_hd_st32_8MHz.a(exti.o)
                0x08007370                EXTI_ClearITPendingBit
 .text.FLASH_Unlock
                0x0800737c       0x18 /project/stm32fx_lib/stm32f1x_iolib/stm32f1x_iolib_hd_st32_8MHz.a(flash.o)
                0x0800737c                FLASH_Unlock
 .text.FLASH_Lock
                0x08007394       0x10 /project/stm32fx_lib/stm32f1x_iolib/stm32f1x_iolib_hd_st32_8MHz.a(flash.o)
                0x08007394                FLASH_Lock
 .text.FLASH_GetReadOutProtectionStatus
                0x080073a4       0x10 /project/stm32fx_lib/stm32f1x_iolib/stm32f1x_iolib_hd_st32_8MHz.a(flash.o)
                0x080073a4                FLASH_GetReadOutProtectionStatus
 .text.FLASH_GetBank1Status
                0x080073b4       0x28 /project/stm32fx_lib/stm32f1x_iolib/stm32f1x_iolib_hd_st32_8MHz.a(flash.o)
                0x080073b4                FLASH_GetBank1Status
 .text.FLASH_WaitForLastOperation
                0x080073dc       0x22 /project/stm32fx_lib/stm32f1x_iolib/stm32f1x_iolib_hd_st32_8MHz.a(flash.o)
                0x080073dc                FLASH_WaitForLastOperation
 *fill*         0x080073fe        0x2 
 .text.FLASH_EraseOptionBytes
                0x08007400       0x7c /project/stm32fx_lib/stm32f1x_iolib/stm32f1x_iolib_hd_st32_8MHz.a(flash.o)
                0x08007400                FLASH_EraseOptionBytes
 .text.FLASH_ReadOutProtection
                0x0800747c       0x8c /project/stm32fx_lib/stm32f1x_iolib/stm32f1x_iolib_hd_st32_8MHz.a(flash.o)
                0x0800747c                FLASH_ReadOutProtection
 .text.GPIO_Init_Pin
                0x08007508       0xa0 /project/stm32fx_lib/stm32f1x_iolib/stm32f1x_iolib_hd_st32_8MHz.a(gpio.o)
                0x08007508                GPIO_Init_Pin
 .text.GPIO_SetBits
                0x080075a8        0x4 /project/stm32fx_lib/stm32f1x_iolib/stm32f1x_iolib_hd_st32_8MHz.a(gpio.o)
                0x080075a8                GPIO_SetBits
 .text.GPIO_ResetBits
                0x080075ac        0x4 /project/stm32fx_lib/stm32f1x_iolib/stm32f1x_iolib_hd_st32_8MHz.a(gpio.o)
                0x080075ac                GPIO_ResetBits
 .text.GPIO_PinRemapConfig
                0x080075b0       0x60 /project/stm32fx_lib/stm32f1x_iolib/stm32f1x_iolib_hd_st32_8MHz.a(gpio.o)
                0x080075b0                GPIO_PinRemapConfig
 .text.GPIO_EXTILineConfig
                0x08007610       0x2a /project/stm32fx_lib/stm32f1x_iolib/stm32f1x_iolib_hd_st32_8MHz.a(gpio.o)
                0x08007610                GPIO_EXTILineConfig
 *fill*         0x0800763a        0x2 
 .text.IWDG_ReloadCounter
                0x0800763c       0x10 /project/stm32fx_lib/stm32f1x_iolib/stm32f1x_iolib_hd_st32_8MHz.a(iwdg.o)
                0x0800763c                IWDG_ReloadCounter
 .text.PWR_BackupAccessCmd
                0x0800764c        0xc /project/stm32fx_lib/stm32f1x_iolib/stm32f1x_iolib_hd_st32_8MHz.a(pwr.o)
                0x0800764c                PWR_BackupAccessCmd
 .text.RTC_ITConfig
                0x08007658       0x18 /project/stm32fx_lib/stm32f1x_iolib/stm32f1x_iolib_hd_st32_8MHz.a(rtc.o)
                0x08007658                RTC_ITConfig
 .text.RTC_EnterConfigMode
                0x08007670       0x14 /project/stm32fx_lib/stm32f1x_iolib/stm32f1x_iolib_hd_st32_8MHz.a(rtc.o)
                0x08007670                RTC_EnterConfigMode
 .text.RTC_ExitConfigMode
                0x08007684       0x14 /project/stm32fx_lib/stm32f1x_iolib/stm32f1x_iolib_hd_st32_8MHz.a(rtc.o)
                0x08007684                RTC_ExitConfigMode
 .text.RTC_GetCounter
                0x08007698       0x14 /project/stm32fx_lib/stm32f1x_iolib/stm32f1x_iolib_hd_st32_8MHz.a(rtc.o)
                0x08007698                RTC_GetCounter
 .text.RTC_SetCounter
                0x080076ac       0x1c /project/stm32fx_lib/stm32f1x_iolib/stm32f1x_iolib_hd_st32_8MHz.a(rtc.o)
                0x080076ac                RTC_SetCounter
 .text.RTC_SetPrescaler
                0x080076c8       0x20 /project/stm32fx_lib/stm32f1x_iolib/stm32f1x_iolib_hd_st32_8MHz.a(rtc.o)
                0x080076c8                RTC_SetPrescaler
 .text.RTC_WaitForLastTask
                0x080076e8       0x10 /project/stm32fx_lib/stm32f1x_iolib/stm32f1x_iolib_hd_st32_8MHz.a(rtc.o)
                0x080076e8                RTC_WaitForLastTask
 .text.RTC_WaitForSynchro
                0x080076f8       0x1c /project/stm32fx_lib/stm32f1x_iolib/stm32f1x_iolib_hd_st32_8MHz.a(rtc.o)
                0x080076f8                RTC_WaitForSynchro
 .text.RTC_GetITStatus
                0x08007714       0x20 /project/stm32fx_lib/stm32f1x_iolib/stm32f1x_iolib_hd_st32_8MHz.a(rtc.o)
                0x08007714                RTC_GetITStatus
 .text.RTC_ClearITPendingBit
                0x08007734       0x14 /project/stm32fx_lib/stm32f1x_iolib/stm32f1x_iolib_hd_st32_8MHz.a(rtc.o)
                0x08007734                RTC_ClearITPendingBit
 .text.SPI_Init
                0x08007748       0x3e /project/stm32fx_lib/stm32f1x_iolib/stm32f1x_iolib_hd_st32_8MHz.a(spi.o)
                0x08007748                SPI_Init
 .text.SPI_Cmd  0x08007786       0x18 /project/stm32fx_lib/stm32f1x_iolib/stm32f1x_iolib_hd_st32_8MHz.a(spi.o)
                0x08007786                SPI_Cmd
 .text.SPI_I2S_SendData
                0x0800779e        0x4 /project/stm32fx_lib/stm32f1x_iolib/stm32f1x_iolib_hd_st32_8MHz.a(spi.o)
                0x0800779e                SPI_I2S_SendData
 .text.SPI_I2S_ReceiveData
                0x080077a2        0x6 /project/stm32fx_lib/stm32f1x_iolib/stm32f1x_iolib_hd_st32_8MHz.a(spi.o)
                0x080077a2                SPI_I2S_ReceiveData
 .text.SPI_I2S_GetFlagStatus
                0x080077a8        0xc /project/stm32fx_lib/stm32f1x_iolib/stm32f1x_iolib_hd_st32_8MHz.a(spi.o)
                0x080077a8                SPI_I2S_GetFlagStatus
 .text.TIM_ClearITPendingBit
                0x080077b4        0x8 /project/stm32fx_lib/stm32f1x_iolib/stm32f1x_iolib_hd_st32_8MHz.a(timer.o)
                0x080077b4                TIM_ClearITPendingBit
 .text.USART_Init
                0x080077bc       0xac /project/stm32fx_lib/stm32f1x_iolib/stm32f1x_iolib_hd_st32_8MHz.a(usart.o)
                0x080077bc                USART_Init
 .text.USART_Cmd
                0x08007868       0x18 /project/stm32fx_lib/stm32f1x_iolib/stm32f1x_iolib_hd_st32_8MHz.a(usart.o)
                0x08007868                USART_Cmd
 .text.USART_ITConfig
                0x08007880       0x30 /project/stm32fx_lib/stm32f1x_iolib/stm32f1x_iolib_hd_st32_8MHz.a(usart.o)
                0x08007880                USART_ITConfig
 .text.USART_SendData
                0x080078b0        0x8 /project/stm32fx_lib/stm32f1x_iolib/stm32f1x_iolib_hd_st32_8MHz.a(usart.o)
                0x080078b0                USART_SendData
 .text.USART_ReceiveData
                0x080078b8        0x8 /project/stm32fx_lib/stm32f1x_iolib/stm32f1x_iolib_hd_st32_8MHz.a(usart.o)
                0x080078b8                USART_ReceiveData
 .text.USART_GetITStatus
                0x080078c0       0x40 /project/stm32fx_lib/stm32f1x_iolib/stm32f1x_iolib_hd_st32_8MHz.a(usart.o)
                0x080078c0                USART_GetITStatus
 .text.USART_ClearITPendingBit
                0x08007900        0xe /project/stm32fx_lib/stm32f1x_iolib/stm32f1x_iolib_hd_st32_8MHz.a(usart.o)
                0x08007900                USART_ClearITPendingBit
 *fill*         0x0800790e        0x2 
 .text.abort    0x08007910       0x10 c:/program files (x86)/gnu tools arm embedded/9 2019-q4-major/bin/../lib/gcc/arm-none-eabi/9.2.1/../../../../arm-none-eabi/lib/thumb/v7-m/nofp\libc.a(lib_a-abort.o)
                0x08007910                abort
 .text.__errno  0x08007920        0xc c:/program files (x86)/gnu tools arm embedded/9 2019-q4-major/bin/../lib/gcc/arm-none-eabi/9.2.1/../../../../arm-none-eabi/lib/thumb/v7-m/nofp\libc.a(lib_a-errno.o)
                0x08007920                __errno
 .text.malloc   0x0800792c       0x10 c:/program files (x86)/gnu tools arm embedded/9 2019-q4-major/bin/../lib/gcc/arm-none-eabi/9.2.1/../../../../arm-none-eabi/lib/thumb/v7-m/nofp\libc.a(lib_a-malloc.o)
                0x0800792c                malloc
 .text._malloc_r
                0x0800793c      0x55c c:/program files (x86)/gnu tools arm embedded/9 2019-q4-major/bin/../lib/gcc/arm-none-eabi/9.2.1/../../../../arm-none-eabi/lib/thumb/v7-m/nofp\libc.a(lib_a-mallocr.o)
                0x0800793c                _malloc_r
 .text          0x08007e98       0xec c:/program files (x86)/gnu tools arm embedded/9 2019-q4-major/bin/../lib/gcc/arm-none-eabi/9.2.1/../../../../arm-none-eabi/lib/thumb/v7-m/nofp\libc.a(lib_a-memcpy.o)
                0x08007e98                memcpy
 .text.memset   0x08007f84       0xa0 c:/program files (x86)/gnu tools arm embedded/9 2019-q4-major/bin/../lib/gcc/arm-none-eabi/9.2.1/../../../../arm-none-eabi/lib/thumb/v7-m/nofp\libc.a(lib_a-memset.o)
                0x08007f84                memset
 .text.__malloc_lock
                0x08008024        0xc c:/program files (x86)/gnu tools arm embedded/9 2019-q4-major/bin/../lib/gcc/arm-none-eabi/9.2.1/../../../../arm-none-eabi/lib/thumb/v7-m/nofp\libc.a(lib_a-mlock.o)
                0x08008024                __malloc_lock
 .text.__malloc_unlock
                0x08008030        0xc c:/program files (x86)/gnu tools arm embedded/9 2019-q4-major/bin/../lib/gcc/arm-none-eabi/9.2.1/../../../../arm-none-eabi/lib/thumb/v7-m/nofp\libc.a(lib_a-mlock.o)
                0x08008030                __malloc_unlock
 .text._sbrk_r  0x0800803c       0x24 c:/program files (x86)/gnu tools arm embedded/9 2019-q4-major/bin/../lib/gcc/arm-none-eabi/9.2.1/../../../../arm-none-eabi/lib/thumb/v7-m/nofp\libc.a(lib_a-sbrkr.o)
                0x0800803c                _sbrk_r
 .text._raise_r
                0x08008060       0x58 c:/program files (x86)/gnu tools arm embedded/9 2019-q4-major/bin/../lib/gcc/arm-none-eabi/9.2.1/../../../../arm-none-eabi/lib/thumb/v7-m/nofp\libc.a(lib_a-signal.o)
                0x08008060                _raise_r
 .text.raise    0x080080b8       0x10 c:/program files (x86)/gnu tools arm embedded/9 2019-q4-major/bin/../lib/gcc/arm-none-eabi/9.2.1/../../../../arm-none-eabi/lib/thumb/v7-m/nofp\libc.a(lib_a-signal.o)
                0x080080b8                raise
 .text._kill_r  0x080080c8       0x2c c:/program files (x86)/gnu tools arm embedded/9 2019-q4-major/bin/../lib/gcc/arm-none-eabi/9.2.1/../../../../arm-none-eabi/lib/thumb/v7-m/nofp\libc.a(lib_a-signalr.o)
                0x080080c8                _kill_r
 .text._getpid_r
                0x080080f4        0x4 c:/program files (x86)/gnu tools arm embedded/9 2019-q4-major/bin/../lib/gcc/arm-none-eabi/9.2.1/../../../../arm-none-eabi/lib/thumb/v7-m/nofp\libc.a(lib_a-signalr.o)
                0x080080f4                _getpid_r
 .text.strcasecmp
                0x080080f8       0x44 c:/program files (x86)/gnu tools arm embedded/9 2019-q4-major/bin/../lib/gcc/arm-none-eabi/9.2.1/../../../../arm-none-eabi/lib/thumb/v7-m/nofp\libc.a(lib_a-strcasecmp.o)
                0x080080f8                strcasecmp
 .text.strcpy   0x0800813c       0xbc c:/program files (x86)/gnu tools arm embedded/9 2019-q4-major/bin/../lib/gcc/arm-none-eabi/9.2.1/../../../../arm-none-eabi/lib/thumb/v7-m/nofp\libc.a(lib_a-strcpy.o)
                0x0800813c                strcpy
 .text.strlen   0x080081f8       0x5c c:/program files (x86)/gnu tools arm embedded/9 2019-q4-major/bin/../lib/gcc/arm-none-eabi/9.2.1/../../../../arm-none-eabi/lib/thumb/v7-m/nofp\libc.a(lib_a-strlen-stub.o)
                0x080081f8                strlen
 .text._vsprintf_r
                0x08008254       0x28 c:/program files (x86)/gnu tools arm embedded/9 2019-q4-major/bin/../lib/gcc/arm-none-eabi/9.2.1/../../../../arm-none-eabi/lib/thumb/v7-m/nofp\libc.a(lib_a-vsprintf.o)
                0x08008254                _vsprintf_r
 .text.vsprintf
                0x0800827c       0x18 c:/program files (x86)/gnu tools arm embedded/9 2019-q4-major/bin/../lib/gcc/arm-none-eabi/9.2.1/../../../../arm-none-eabi/lib/thumb/v7-m/nofp\libc.a(lib_a-vsprintf.o)
                0x0800827c                vsprintf
 .text._malloc_trim_r
                0x08008294       0xa0 c:/program files (x86)/gnu tools arm embedded/9 2019-q4-major/bin/../lib/gcc/arm-none-eabi/9.2.1/../../../../arm-none-eabi/lib/thumb/v7-m/nofp\libc.a(lib_a-freer.o)
                0x08008294                _malloc_trim_r
 .text._free_r  0x08008334      0x20c c:/program files (x86)/gnu tools arm embedded/9 2019-q4-major/bin/../lib/gcc/arm-none-eabi/9.2.1/../../../../arm-none-eabi/lib/thumb/v7-m/nofp\libc.a(lib_a-freer.o)
                0x08008334                _free_r
 .text.__retarget_lock_acquire_recursive
                0x08008540        0x4 c:/program files (x86)/gnu tools arm embedded/9 2019-q4-major/bin/../lib/gcc/arm-none-eabi/9.2.1/../../../../arm-none-eabi/lib/thumb/v7-m/nofp\libc.a(lib_a-lock.o)
                0x08008540                __retarget_lock_acquire_recursive
 .text.__retarget_lock_release_recursive
                0x08008544        0x4 c:/program files (x86)/gnu tools arm embedded/9 2019-q4-major/bin/../lib/gcc/arm-none-eabi/9.2.1/../../../../arm-none-eabi/lib/thumb/v7-m/nofp\libc.a(lib_a-lock.o)
                0x08008544                __retarget_lock_release_recursive
 .text._svfprintf_r
                0x08008548     0x1b50 c:/program files (x86)/gnu tools arm embedded/9 2019-q4-major/bin/../lib/gcc/arm-none-eabi/9.2.1/../../../../arm-none-eabi/lib/thumb/v7-m/nofp\libc.a(lib_a-svfprintf.o)
                0x08008548                _svfprintf_r
 .text.quorem   0x0800a098      0x120 c:/program files (x86)/gnu tools arm embedded/9 2019-q4-major/bin/../lib/gcc/arm-none-eabi/9.2.1/../../../../arm-none-eabi/lib/thumb/v7-m/nofp\libc.a(lib_a-dtoa.o)
 .text._dtoa_r  0x0800a1b8      0xe8c c:/program files (x86)/gnu tools arm embedded/9 2019-q4-major/bin/../lib/gcc/arm-none-eabi/9.2.1/../../../../arm-none-eabi/lib/thumb/v7-m/nofp\libc.a(lib_a-dtoa.o)
                0x0800a1b8                _dtoa_r
 .text._localeconv_r
                0x0800b044        0x8 c:/program files (x86)/gnu tools arm embedded/9 2019-q4-major/bin/../lib/gcc/arm-none-eabi/9.2.1/../../../../arm-none-eabi/lib/thumb/v7-m/nofp\libc.a(lib_a-localeconv.o)
                0x0800b044                _localeconv_r
 .text.memchr   0x0800b04c       0x80 c:/program files (x86)/gnu tools arm embedded/9 2019-q4-major/bin/../lib/gcc/arm-none-eabi/9.2.1/../../../../arm-none-eabi/lib/thumb/v7-m/nofp\libc.a(lib_a-memchr-stub.o)
                0x0800b04c                memchr
 .text._Balloc  0x0800b0cc       0x4c c:/program files (x86)/gnu tools arm embedded/9 2019-q4-major/bin/../lib/gcc/arm-none-eabi/9.2.1/../../../../arm-none-eabi/lib/thumb/v7-m/nofp\libc.a(lib_a-mprec.o)
                0x0800b0cc                _Balloc
 .text._Bfree   0x0800b118       0x14 c:/program files (x86)/gnu tools arm embedded/9 2019-q4-major/bin/../lib/gcc/arm-none-eabi/9.2.1/../../../../arm-none-eabi/lib/thumb/v7-m/nofp\libc.a(lib_a-mprec.o)
                0x0800b118                _Bfree
 .text.__multadd
                0x0800b12c       0x7c c:/program files (x86)/gnu tools arm embedded/9 2019-q4-major/bin/../lib/gcc/arm-none-eabi/9.2.1/../../../../arm-none-eabi/lib/thumb/v7-m/nofp\libc.a(lib_a-mprec.o)
                0x0800b12c                __multadd
 .text.__hi0bits
                0x0800b1a8       0x40 c:/program files (x86)/gnu tools arm embedded/9 2019-q4-major/bin/../lib/gcc/arm-none-eabi/9.2.1/../../../../arm-none-eabi/lib/thumb/v7-m/nofp\libc.a(lib_a-mprec.o)
                0x0800b1a8                __hi0bits
 .text.__lo0bits
                0x0800b1e8       0x60 c:/program files (x86)/gnu tools arm embedded/9 2019-q4-major/bin/../lib/gcc/arm-none-eabi/9.2.1/../../../../arm-none-eabi/lib/thumb/v7-m/nofp\libc.a(lib_a-mprec.o)
                0x0800b1e8                __lo0bits
 .text.__i2b    0x0800b248       0x14 c:/program files (x86)/gnu tools arm embedded/9 2019-q4-major/bin/../lib/gcc/arm-none-eabi/9.2.1/../../../../arm-none-eabi/lib/thumb/v7-m/nofp\libc.a(lib_a-mprec.o)
                0x0800b248                __i2b
 .text.__multiply
                0x0800b25c      0x144 c:/program files (x86)/gnu tools arm embedded/9 2019-q4-major/bin/../lib/gcc/arm-none-eabi/9.2.1/../../../../arm-none-eabi/lib/thumb/v7-m/nofp\libc.a(lib_a-mprec.o)
                0x0800b25c                __multiply
 .text.__pow5mult
                0x0800b3a0       0xa0 c:/program files (x86)/gnu tools arm embedded/9 2019-q4-major/bin/../lib/gcc/arm-none-eabi/9.2.1/../../../../arm-none-eabi/lib/thumb/v7-m/nofp\libc.a(lib_a-mprec.o)
                0x0800b3a0                __pow5mult
 .text.__lshift
                0x0800b440       0xd0 c:/program files (x86)/gnu tools arm embedded/9 2019-q4-major/bin/../lib/gcc/arm-none-eabi/9.2.1/../../../../arm-none-eabi/lib/thumb/v7-m/nofp\libc.a(lib_a-mprec.o)
                0x0800b440                __lshift
 .text.__mcmp   0x0800b510       0x3c c:/program files (x86)/gnu tools arm embedded/9 2019-q4-major/bin/../lib/gcc/arm-none-eabi/9.2.1/../../../../arm-none-eabi/lib/thumb/v7-m/nofp\libc.a(lib_a-mprec.o)
                0x0800b510                __mcmp
 .text.__mdiff  0x0800b54c      0x138 c:/program files (x86)/gnu tools arm embedded/9 2019-q4-major/bin/../lib/gcc/arm-none-eabi/9.2.1/../../../../arm-none-eabi/lib/thumb/v7-m/nofp\libc.a(lib_a-mprec.o)
                0x0800b54c                __mdiff
 .text.__d2b    0x0800b684       0xa8 c:/program files (x86)/gnu tools arm embedded/9 2019-q4-major/bin/../lib/gcc/arm-none-eabi/9.2.1/../../../../arm-none-eabi/lib/thumb/v7-m/nofp\libc.a(lib_a-mprec.o)
                0x0800b684                __d2b
 .text.frexp    0x0800b72c       0x70 c:/program files (x86)/gnu tools arm embedded/9 2019-q4-major/bin/../lib/gcc/arm-none-eabi/9.2.1/../../../../arm-none-eabi/lib/thumb/v7-m/nofp\libc.a(lib_a-s_frexp.o)
                0x0800b72c                frexp
 .text.strncpy  0x0800b79c       0x68 c:/program files (x86)/gnu tools arm embedded/9 2019-q4-major/bin/../lib/gcc/arm-none-eabi/9.2.1/../../../../arm-none-eabi/lib/thumb/v7-m/nofp\libc.a(lib_a-strncpy.o)
                0x0800b79c                strncpy
 .text.__ssprint_r
                0x0800b804       0xf8 c:/program files (x86)/gnu tools arm embedded/9 2019-q4-major/bin/../lib/gcc/arm-none-eabi/9.2.1/../../../../arm-none-eabi/lib/thumb/v7-m/nofp\libc.a(lib_a-svfiprintf.o)
                0x0800b804                __ssprint_r
 .text._calloc_r
                0x0800b8fc       0x60 c:/program files (x86)/gnu tools arm embedded/9 2019-q4-major/bin/../lib/gcc/arm-none-eabi/9.2.1/../../../../arm-none-eabi/lib/thumb/v7-m/nofp\libc.a(lib_a-callocr.o)
                0x0800b8fc                _calloc_r
 .text.__ascii_mbtowc
                0x0800b95c       0x2c c:/program files (x86)/gnu tools arm embedded/9 2019-q4-major/bin/../lib/gcc/arm-none-eabi/9.2.1/../../../../arm-none-eabi/lib/thumb/v7-m/nofp\libc.a(lib_a-mbtowc_r.o)
                0x0800b95c                __ascii_mbtowc
 .text.memmove  0x0800b988       0xd4 c:/program files (x86)/gnu tools arm embedded/9 2019-q4-major/bin/../lib/gcc/arm-none-eabi/9.2.1/../../../../arm-none-eabi/lib/thumb/v7-m/nofp\libc.a(lib_a-memmove.o)
                0x0800b988                memmove
 .text._realloc_r
                0x0800ba5c      0x3e0 c:/program files (x86)/gnu tools arm embedded/9 2019-q4-major/bin/../lib/gcc/arm-none-eabi/9.2.1/../../../../arm-none-eabi/lib/thumb/v7-m/nofp\libc.a(lib_a-reallocr.o)
                0x0800ba5c                _realloc_r
 .text.__ascii_wctomb
                0x0800be3c       0x1c c:/program files (x86)/gnu tools arm embedded/9 2019-q4-major/bin/../lib/gcc/arm-none-eabi/9.2.1/../../../../arm-none-eabi/lib/thumb/v7-m/nofp\libc.a(lib_a-wctomb_r.o)
                0x0800be3c                __ascii_wctomb
 .text          0x0800be58      0x378 c:/program files (x86)/gnu tools arm embedded/9 2019-q4-major/bin/../lib/gcc/arm-none-eabi/9.2.1/thumb/v7-m/nofp\libgcc.a(_arm_addsubdf3.o)
                0x0800be58                __aeabi_drsub
                0x0800be60                __aeabi_dsub
                0x0800be60                __subdf3
                0x0800be64                __aeabi_dadd
                0x0800be64                __adddf3
                0x0800c0dc                __floatunsidf
                0x0800c0dc                __aeabi_ui2d
                0x0800c0fc                __floatsidf
                0x0800c0fc                __aeabi_i2d
                0x0800c120                __aeabi_f2d
                0x0800c120                __extendsfdf2
                0x0800c164                __floatundidf
                0x0800c164                __aeabi_ul2d
                0x0800c174                __floatdidf
                0x0800c174                __aeabi_l2d
 .text          0x0800c1d0      0x424 c:/program files (x86)/gnu tools arm embedded/9 2019-q4-major/bin/../lib/gcc/arm-none-eabi/9.2.1/thumb/v7-m/nofp\libgcc.a(_arm_muldivdf3.o)
                0x0800c1d0                __aeabi_dmul
                0x0800c1d0                __muldf3
                0x0800c424                __divdf3
                0x0800c424                __aeabi_ddiv
 .text          0x0800c5f4      0x110 c:/program files (x86)/gnu tools arm embedded/9 2019-q4-major/bin/../lib/gcc/arm-none-eabi/9.2.1/thumb/v7-m/nofp\libgcc.a(_arm_cmpdf2.o)
                0x0800c5f4                __gtdf2
                0x0800c5f4                __gedf2
                0x0800c5fc                __ltdf2
                0x0800c5fc                __ledf2
                0x0800c604                __nedf2
                0x0800c604                __eqdf2
                0x0800c604                __cmpdf2
                0x0800c680                __aeabi_cdrcmple
                0x0800c690                __aeabi_cdcmpeq
                0x0800c690                __aeabi_cdcmple
                0x0800c6a0                __aeabi_dcmpeq
                0x0800c6b4                __aeabi_dcmplt
                0x0800c6c8                __aeabi_dcmple
                0x0800c6dc                __aeabi_dcmpge
                0x0800c6f0                __aeabi_dcmpgt
 .text          0x0800c704       0x2c c:/program files (x86)/gnu tools arm embedded/9 2019-q4-major/bin/../lib/gcc/arm-none-eabi/9.2.1/thumb/v7-m/nofp\libgcc.a(_arm_unorddf2.o)
                0x0800c704                __unorddf2
                0x0800c704                __aeabi_dcmpun
 .text          0x0800c730       0x50 c:/program files (x86)/gnu tools arm embedded/9 2019-q4-major/bin/../lib/gcc/arm-none-eabi/9.2.1/thumb/v7-m/nofp\libgcc.a(_arm_fixdfsi.o)
                0x0800c730                __aeabi_d2iz
                0x0800c730                __fixdfsi
 .text          0x0800c780      0x21c c:/program files (x86)/gnu tools arm embedded/9 2019-q4-major/bin/../lib/gcc/arm-none-eabi/9.2.1/thumb/v7-m/nofp\libgcc.a(_arm_addsubsf3.o)
                0x0800c780                __aeabi_frsub
                0x0800c788                __subsf3
                0x0800c788                __aeabi_fsub
                0x0800c78c                __aeabi_fadd
                0x0800c78c                __addsf3
                0x0800c8ec                __aeabi_ui2f
                0x0800c8ec                __floatunsisf
                0x0800c8f4                __aeabi_i2f
                0x0800c8f4                __floatsisf
                0x0800c910                __aeabi_ul2f
                0x0800c910                __floatundisf
                0x0800c920                __aeabi_l2f
                0x0800c920                __floatdisf
 .text          0x0800c99c      0x2a0 c:/program files (x86)/gnu tools arm embedded/9 2019-q4-major/bin/../lib/gcc/arm-none-eabi/9.2.1/thumb/v7-m/nofp\libgcc.a(_arm_muldivsf3.o)
                0x0800c99c                __mulsf3
                0x0800c99c                __aeabi_fmul
                0x0800cb04                __aeabi_fdiv
                0x0800cb04                __divsf3
 .text          0x0800cc3c       0xec c:/program files (x86)/gnu tools arm embedded/9 2019-q4-major/bin/../lib/gcc/arm-none-eabi/9.2.1/thumb/v7-m/nofp\libgcc.a(_arm_cmpsf2.o)
                0x0800cc3c                __gesf2
                0x0800cc3c                __gtsf2
                0x0800cc44                __lesf2
                0x0800cc44                __ltsf2
                0x0800cc4c                __nesf2
                0x0800cc4c                __eqsf2
                0x0800cc4c                __cmpsf2
                0x0800ccac                __aeabi_cfrcmple
                0x0800ccb4                __aeabi_cfcmpeq
                0x0800ccb4                __aeabi_cfcmple
                0x0800ccc4                __aeabi_fcmpeq
                0x0800ccd8                __aeabi_fcmplt
                0x0800ccec                __aeabi_fcmple
                0x0800cd00                __aeabi_fcmpge
                0x0800cd14                __aeabi_fcmpgt
 .text          0x0800cd28       0x40 c:/program files (x86)/gnu tools arm embedded/9 2019-q4-major/bin/../lib/gcc/arm-none-eabi/9.2.1/thumb/v7-m/nofp\libgcc.a(_arm_fixunssfsi.o)
                0x0800cd28                __fixunssfsi
                0x0800cd28                __aeabi_f2uiz
 .text          0x0800cd68       0x30 c:/program files (x86)/gnu tools arm embedded/9 2019-q4-major/bin/../lib/gcc/arm-none-eabi/9.2.1/thumb/v7-m/nofp\libgcc.a(_aeabi_uldivmod.o)
                0x0800cd68                __aeabi_uldivmod
 .text          0x0800cd98      0x2c4 c:/program files (x86)/gnu tools arm embedded/9 2019-q4-major/bin/../lib/gcc/arm-none-eabi/9.2.1/thumb/v7-m/nofp\libgcc.a(_udivmoddi4.o)
                0x0800cd98                __udivmoddi4
 .text          0x0800d05c        0x4 c:/program files (x86)/gnu tools arm embedded/9 2019-q4-major/bin/../lib/gcc/arm-none-eabi/9.2.1/thumb/v7-m/nofp\libgcc.a(_dvmd_tls.o)
                0x0800d05c                __aeabi_idiv0
                0x0800d05c                __aeabi_ldiv0
 *(.plt)
 *(.gnu.warning)
 *(.glue_7t)
 .glue_7t       0x0800d060        0x0 linker stubs
 *(.glue_7)
 .glue_7        0x0800d060        0x0 linker stubs
 *(.vfp11_veneer)
 .vfp11_veneer  0x0800d060        0x0 linker stubs
 *(.ARM.extab* .gnu.linkonce.armextab.*)
 *(.gcc_except_table)

.v4_bx          0x0800d060        0x0
 .v4_bx         0x0800d060        0x0 linker stubs

.iplt           0x0800d060        0x0
 .iplt          0x0800d060        0x0 FLASH_RUN/main.o

.eh_frame_hdr
 *(.eh_frame_hdr)

.eh_frame
 *(.eh_frame)
                0x0800d060                __exidx_start = .

.ARM.exidx      0x0800d060        0x8
 *(.ARM.exidx* .gnu.linkonce.armexidx.*)
 .ARM.exidx     0x0800d060        0x8 c:/program files (x86)/gnu tools arm embedded/9 2019-q4-major/bin/../lib/gcc/arm-none-eabi/9.2.1/thumb/v7-m/nofp\libgcc.a(_udivmoddi4.o)
                0x0800d068                __exidx_end = .

.rodata         0x0800d068     0x59d0
 *(.rodata .rodata.* .gnu.linkonce.r.*)
 .rodata.main_display.str1.1
                0x0800d068       0x1a FLASH_RUN/main.o
                                 0x1e (size before relaxing)
 .rodata.go_back.str1.1
                0x0800d082        0xb FLASH_RUN/main.o
 .rodata.touch_read.str1.1
                0x0800d08d       0x1d FLASH_RUN/main.o
 .rodata.KS_CODE
                0x0800d0aa     0x12c0 FLASH_RUN/lcd.o
                0x0800d0aa                KS_CODE
 .rodata.eng_font
                0x0800e36a      0x800 FLASH_RUN/lcd.o
                0x0800e36a                eng_font
 .rodata.han_tbl
                0x0800eb6a       0x60 FLASH_RUN/lcd.o
                0x0800eb6a                han_tbl
 .rodata.kor_font
                0x0800ebca     0x2d00 FLASH_RUN/lcd.o
                0x0800ebca                kor_font
 .rodata.loc1   0x080118ca       0x10 FLASH_RUN/lcd.o
                0x080118ca                loc1
 .rodata.loc2   0x080118da        0x8 FLASH_RUN/lcd.o
                0x080118da                loc2
 .rodata.loc3   0x080118e2        0x8 FLASH_RUN/lcd.o
                0x080118e2                loc3
 .rodata.s_bit  0x080118ea        0x8 FLASH_RUN/lcd.o
                0x080118ea                s_bit
 .rodata.follow_path.str1.1
                0x080118f2        0xb FLASH_RUN/ff.o
 .rodata.fatstr.7063
                0x080118fd        0x4 FLASH_RUN/ff.o
 .rodata.vs1003_get_mp3info.str1.1
                0x08011901      0x1dc FLASH_RUN/vs1003.o
 .rodata.atab   0x08011add      0x3af FLASH_RUN/vs1003.o
                0x08011add                atab
 .rodata.bitrate
                0x08011e8c       0x40 FLASH_RUN/vs1003.o
                0x08011e8c                bitrate
 .rodata.dtab   0x08011ecc      0x75e FLASH_RUN/vs1003.o
                0x08011ecc                dtab
 .rodata.mp3_prog_bar.str1.1
                0x0801262a        0x6 FLASH_RUN/mp3.o
 .rodata.find_music.str1.1
                0x08012630        0x9 FLASH_RUN/mp3.o
 .rodata.display_id3v1_tag.str1.1
                0x08012639       0x41 FLASH_RUN/mp3.o
 .rodata.mp3_displaylist.str1.1
                0x0801267a        0xd FLASH_RUN/mp3.o
                                 0x2b (size before relaxing)
 .rodata.mp3_displayinit.str1.1
                0x08012687       0x35 FLASH_RUN/mp3.o
 .rodata.mp3_init.str1.1
                0x080126bc       0x7d FLASH_RUN/mp3.o
 .rodata.str1.1
                0x08012739       0x10 FLASH_RUN/mp3.o
 .rodata._exit.str1.1
                0x08012749       0x22 FLASH_RUN/core.o
 .rodata._sbrk.str1.1
                0x0801276b       0x39 FLASH_RUN/core.o
 .rodata.month_length
                0x080127a4        0xc FLASH_RUN/time.o
                0x080127a4                month_length
 .rodata._ctype_
                0x080127b0      0x101 c:/program files (x86)/gnu tools arm embedded/9 2019-q4-major/bin/../lib/gcc/arm-none-eabi/9.2.1/../../../../arm-none-eabi/lib/thumb/v7-m/nofp\libc.a(lib_a-ctype_.o)
                0x080127b0                _ctype_
 *fill*         0x080128b1        0x3 
 .rodata._svfprintf_r.str1.4
                0x080128b4       0x42 c:/program files (x86)/gnu tools arm embedded/9 2019-q4-major/bin/../lib/gcc/arm-none-eabi/9.2.1/../../../../arm-none-eabi/lib/thumb/v7-m/nofp\libc.a(lib_a-svfprintf.o)
 *fill*         0x080128f6        0x2 
 .rodata.blanks.7345
                0x080128f8       0x10 c:/program files (x86)/gnu tools arm embedded/9 2019-q4-major/bin/../lib/gcc/arm-none-eabi/9.2.1/../../../../arm-none-eabi/lib/thumb/v7-m/nofp\libc.a(lib_a-svfprintf.o)
 .rodata.zeroes.7346
                0x08012908       0x10 c:/program files (x86)/gnu tools arm embedded/9 2019-q4-major/bin/../lib/gcc/arm-none-eabi/9.2.1/../../../../arm-none-eabi/lib/thumb/v7-m/nofp\libc.a(lib_a-svfprintf.o)
 .rodata._dtoa_r.str1.4
                0x08012918        0xd c:/program files (x86)/gnu tools arm embedded/9 2019-q4-major/bin/../lib/gcc/arm-none-eabi/9.2.1/../../../../arm-none-eabi/lib/thumb/v7-m/nofp\libc.a(lib_a-dtoa.o)
                                 0x12 (size before relaxing)
 *fill*         0x08012925        0x3 
 .rodata.__mprec_bigtens
                0x08012928       0x28 c:/program files (x86)/gnu tools arm embedded/9 2019-q4-major/bin/../lib/gcc/arm-none-eabi/9.2.1/../../../../arm-none-eabi/lib/thumb/v7-m/nofp\libc.a(lib_a-mprec.o)
                0x08012928                __mprec_bigtens
 .rodata.__mprec_tens
                0x08012950       0xc8 c:/program files (x86)/gnu tools arm embedded/9 2019-q4-major/bin/../lib/gcc/arm-none-eabi/9.2.1/../../../../arm-none-eabi/lib/thumb/v7-m/nofp\libc.a(lib_a-mprec.o)
                0x08012950                __mprec_tens
 .rodata.p05.6115
                0x08012a18        0xc c:/program files (x86)/gnu tools arm embedded/9 2019-q4-major/bin/../lib/gcc/arm-none-eabi/9.2.1/../../../../arm-none-eabi/lib/thumb/v7-m/nofp\libc.a(lib_a-mprec.o)
 .rodata._setlocale_r.str1.4
                0x08012a24        0xa c:/program files (x86)/gnu tools arm embedded/9 2019-q4-major/bin/../lib/gcc/arm-none-eabi/9.2.1/../../../../arm-none-eabi/lib/thumb/v7-m/nofp\libc.a(lib_a-locale.o)
                                  0xd (size before relaxing)
 *fill*         0x08012a2e        0x2 
 .rodata.str1.4
                0x08012a30        0x2 c:/program files (x86)/gnu tools arm embedded/9 2019-q4-major/bin/../lib/gcc/arm-none-eabi/9.2.1/../../../../arm-none-eabi/lib/thumb/v7-m/nofp\libc.a(lib_a-locale.o)
                0x08012a34                . = ALIGN (0x4)
 *fill*         0x08012a32        0x2 
 *(.init)
                0x08012a34                . = ALIGN (0x4)
                0x08012a34                __preinit_array_start = .
 *(.preinit_array)
                0x08012a34                __preinit_array_end = .
                0x08012a34                . = ALIGN (0x4)
                0x08012a34                __init_array_start = .
 *(SORT_BY_NAME(.init_array.*))
 *(.init_array)
                0x08012a34                __init_array_end = .
                0x08012a34                . = ALIGN (0x4)
 *(.fini)
                0x08012a34                . = ALIGN (0x4)
                0x08012a34                __fini_array_start = .
 *(.fini_array)
 *(SORT_BY_NAME(.fini_array.*))
                0x08012a34                __fini_array_end = .
                0x08012a34                . = ALIGN (0x4)
 *crtbegin.o(.ctors)
 *(EXCLUDE_FILE(*crtend.o) .ctors)
 *(SORT_BY_NAME(.ctors.*))
 *crtend.o(.ctors)
                0x08012a34                . = ALIGN (0x4)
 *crtbegin.o(.dtors)
 *(EXCLUDE_FILE(*crtend.o) .dtors)
 *(SORT_BY_NAME(.dtors.*))
 *crtend.o(.dtors)
 *(.init .init.*)
 *(.fini .fini.*)
                [!provide]                PROVIDE (__preinit_array_start = .)
 *(.preinit_array)
                [!provide]                PROVIDE (__preinit_array_end = .)
                [!provide]                PROVIDE (__init_array_start = .)
 *(SORT_BY_NAME(.init_array.*))
 *(.init_array)
                [!provide]                PROVIDE (__init_array_end = .)
                [!provide]                PROVIDE (__fini_array_start = .)
 *(.fini_array)
 *(SORT_BY_NAME(.fini_array.*))
                [!provide]                PROVIDE (__fini_array_end = .)
                0x08012a38                . = ALIGN (0x8)
 *fill*         0x08012a34        0x4 
 *(.rom)
 *(.rom.b)
                0x08012a38                _etext = .
                0x08012a38                _sidata = _etext

.rel.dyn        0x08012a38        0x0
 .rel.iplt      0x08012a38        0x0 FLASH_RUN/main.o

.data           0x20000000      0xa90 load address 0x08012a38
                0x20000000                _sdata = .
                0x20000000                . = ALIGN (0x80)
                0x00000000                _isr_vectorsram_offs = (. - 0x20000000)
 *(.isr_vectorsram)
                0x20000000                . = ALIGN (0x4)
 *(.jcr)
 *(.got.plt)
 *(.got)
 *(.shdata)
 *(.data .data.* .gnu.linkonce.d.*)
 .data.FLASHStatus
                0x20000000        0x1 FLASH_RUN/main.o
                0x20000000                FLASHStatus
 .data.vs1003_ram
                0x20000001        0x5 FLASH_RUN/vs1003.o
                0x20000001                vs1003_ram
 .data.f_kbps   0x20000006        0x2 FLASH_RUN/mp3.o
                0x20000006                f_kbps
 .data.music_extend
                0x20000008       0x10 FLASH_RUN/mp3.o
                0x20000008                music_extend
 .data.SystemCoreClock
                0x20000018        0x4 /project/stm32fx_lib/stm32f1x_iolib/stm32f1x_iolib_hd_st32_8MHz.a(system.o)
                0x20000018                SystemCoreClock
 .data.ADCPrescTable
                0x2000001c        0x4 /project/stm32fx_lib/stm32f1x_iolib/stm32f1x_iolib_hd_st32_8MHz.a(rcc.o)
 .data.APBAHBPrescTable
                0x20000020       0x10 /project/stm32fx_lib/stm32f1x_iolib/stm32f1x_iolib_hd_st32_8MHz.a(rcc.o)
 .data._impure_ptr
                0x20000030        0x4 c:/program files (x86)/gnu tools arm embedded/9 2019-q4-major/bin/../lib/gcc/arm-none-eabi/9.2.1/../../../../arm-none-eabi/lib/thumb/v7-m/nofp\libc.a(lib_a-impure.o)
                0x20000030                _impure_ptr
 *fill*         0x20000034        0x4 
 .data.impure_data
                0x20000038      0x428 c:/program files (x86)/gnu tools arm embedded/9 2019-q4-major/bin/../lib/gcc/arm-none-eabi/9.2.1/../../../../arm-none-eabi/lib/thumb/v7-m/nofp\libc.a(lib_a-impure.o)
 .data.__malloc_av_
                0x20000460      0x408 c:/program files (x86)/gnu tools arm embedded/9 2019-q4-major/bin/../lib/gcc/arm-none-eabi/9.2.1/../../../../arm-none-eabi/lib/thumb/v7-m/nofp\libc.a(lib_a-mallocr.o)
                0x20000460                __malloc_av_
 .data.__malloc_sbrk_base
                0x20000868        0x4 c:/program files (x86)/gnu tools arm embedded/9 2019-q4-major/bin/../lib/gcc/arm-none-eabi/9.2.1/../../../../arm-none-eabi/lib/thumb/v7-m/nofp\libc.a(lib_a-mallocr.o)
                0x20000868                __malloc_sbrk_base
 .data.__malloc_trim_threshold
                0x2000086c        0x4 c:/program files (x86)/gnu tools arm embedded/9 2019-q4-major/bin/../lib/gcc/arm-none-eabi/9.2.1/../../../../arm-none-eabi/lib/thumb/v7-m/nofp\libc.a(lib_a-mallocr.o)
                0x2000086c                __malloc_trim_threshold
 .data.__global_locale
                0x20000870      0x16c c:/program files (x86)/gnu tools arm embedded/9 2019-q4-major/bin/../lib/gcc/arm-none-eabi/9.2.1/../../../../arm-none-eabi/lib/thumb/v7-m/nofp\libc.a(lib_a-locale.o)
                0x20000870                __global_locale
                0x200009e0                . = ALIGN (0x8)
 *fill*         0x200009dc        0x4 
 *(.ram)
 *(.ramfunc*)
 .ramfunc       0x200009e0       0xa0 FLASH_RUN/main.o
                0x200009e0                SysTick_Handler
 .ramfunc.__stub
                0x20000a80       0x10 linker stubs
                0x20000a90                . = ALIGN (0x4)
                0x20000a90                _edata = .

.igot.plt       0x20000a90        0x0 load address 0x080134c8
 .igot.plt      0x20000a90        0x0 FLASH_RUN/main.o

.bss            0x20000a90     0x37a0 load address 0x080134c8
                0x20000a90                . = ALIGN (0x4)
                0x20000a90                _sbss = .
 *(.shbss)
 *(.bss .bss.* .gnu.linkonce.b.*)
 .bss.cnt.7866  0x20000a90        0x2 FLASH_RUN/main.o
 .bss.cnt.7871  0x20000a92        0x2 FLASH_RUN/main.o
 .bss.flip.7867
                0x20000a94        0x1 FLASH_RUN/main.o
 .bss.flip.7872
                0x20000a95        0x1 FLASH_RUN/main.o
 .bss.Drive     0x20000a96        0x1 FLASH_RUN/ff.o
 *fill*         0x20000a97        0x1 
 .bss.FatFs     0x20000a98        0x4 FLASH_RUN/ff.o
 .bss.Fsid      0x20000a9c        0x2 FLASH_RUN/ff.o
 .bss.SD_type   0x20000a9e        0x1 FLASH_RUN/sd_driver.o
                0x20000a9e                SD_type
 *fill*         0x20000a9f        0x1 
 .bss.datasize  0x20000aa0        0x4 FLASH_RUN/mp3.o
                0x20000aa0                datasize
 .bss.playtime.8620
                0x20000aa4        0x2 FLASH_RUN/mp3.o
 *fill*         0x20000aa6        0x2 
 .bss.propos    0x20000aa8        0x4 FLASH_RUN/mp3.o
                0x20000aa8                propos
 .bss.heap_end  0x20000aac        0x4 FLASH_RUN/core.o
 .bss.__malloc_current_mallinfo
                0x20000ab0       0x28 c:/program files (x86)/gnu tools arm embedded/9 2019-q4-major/bin/../lib/gcc/arm-none-eabi/9.2.1/../../../../arm-none-eabi/lib/thumb/v7-m/nofp\libc.a(lib_a-mallocr.o)
                0x20000ab0                __malloc_current_mallinfo
 .bss.__malloc_max_sbrked_mem
                0x20000ad8        0x4 c:/program files (x86)/gnu tools arm embedded/9 2019-q4-major/bin/../lib/gcc/arm-none-eabi/9.2.1/../../../../arm-none-eabi/lib/thumb/v7-m/nofp\libc.a(lib_a-mallocr.o)
                0x20000ad8                __malloc_max_sbrked_mem
 .bss.__malloc_max_total_mem
                0x20000adc        0x4 c:/program files (x86)/gnu tools arm embedded/9 2019-q4-major/bin/../lib/gcc/arm-none-eabi/9.2.1/../../../../arm-none-eabi/lib/thumb/v7-m/nofp\libc.a(lib_a-mallocr.o)
                0x20000adc                __malloc_max_total_mem
 .bss.__malloc_top_pad
                0x20000ae0        0x4 c:/program files (x86)/gnu tools arm embedded/9 2019-q4-major/bin/../lib/gcc/arm-none-eabi/9.2.1/../../../../arm-none-eabi/lib/thumb/v7-m/nofp\libc.a(lib_a-mallocr.o)
                0x20000ae0                __malloc_top_pad
 *(COMMON)
 COMMON         0x20000ae4      0x21e FLASH_RUN/main.o
                0x20000ae4                yLoc
                0x20000ae6                sw_cnt3
                0x20000ae7                sw_cnt2
                0x20000ae8                volume
                0x20000aea                second
                0x20000aec                volume_flag
                0x20000aed                sw_cnt4
                0x20000aee                sw_cnt1
                0x20000aef                sw_value
                0x20000af0                play_mp3
                0x20000af2                tick
                0x20000af4                xLoc
                0x20000af8                option_value
                0x20000afc                sw_cnt5
                0x20000afe                jiffes
                0x20000b00                sec_tick
                0x20000b02                fileBuff
 *fill*         0x20000d02        0x2 
 COMMON         0x20000d04      0x615 FLASH_RUN/serial.o
                0x20000d04                flash_para
                0x20000e04                rxck2
                0x20000e05                txled
                0x20000e06                txbuff2
                0x20000f06                txcnt1
                0x20000f08                rxled
                0x20000f09                txbuff1
                0x20001009                USART1_PORT
                0x2000100a                rxcnt2
                0x2000100c                maxtx1
                0x2000100e                tx_flag1
                0x2000100f                sbuff
                0x20001110                maxtx2
                0x20001112                rxbuff1
                0x20001212                txcnt2
                0x20001214                rxcnt1
                0x20001216                rxbuff2
                0x20001316                tx_flag2
                0x20001317                this_id
                0x20001318                rxck1
 *fill*         0x20001319        0x1 
 COMMON         0x2000131a      0x13c FLASH_RUN/lcd.o
                0x2000131a                hangul_mode
                0x2000131c                background_color
                0x2000131e                buff
                0x2000141e                max_col
                0x20001420                maxx
                0x20001422                dumy_data
                0x20001442                ax
                0x20001444                tx
                0x20001446                device_code
                0x20001448                eng_mode
                0x2000144a                page
                0x2000144c                max_row
                0x2000144e                ty
                0x20001450                foreground_color
                0x20001452                ay
                0x20001454                maxy
 COMMON         0x20001456       0x14 FLASH_RUN/ads7843.o
                0x20001456                pen_enable
                0x20001458                pen_point
                0x20001468                pen_status
                0x20001469                pen_count
 *fill*         0x2000146a        0x2 
 COMMON         0x2000146c     0x2d94 FLASH_RUN/mp3.o
                0x2000146c                mp3
                0x200014d8                seek_value
                0x200014dc                dirs
                0x200014f8                ftemp
                0x200014fc                fno
                0x20001514                fs
                0x20001748                mp3_flag
                0x2000174c                br
                0x20001750                ID3V1_Buf
                0x200017d0                lyric
                0x200017da                lrc
                0x2000182a                fdx
                0x2000182c                head
                0x20001830                fsrc
                0x20001a54                buffer
                0x20001e54                lrc_data
                0x20002054                fap
                0x20002278                bw
                0x2000227c                buffer_read
                0x2000227e                music_number
                0x20002280                lrc_buffer
                0x20003dd8                tag_table
                0x20003fd8                new_play
                0x20003fd9                res
                0x20003fdc                fii
 COMMON         0x20004200        0x5 FLASH_RUN/time.o
                0x20004200                now_time
                0x20004204                time_rtc_flag
 *fill*         0x20004205        0x3 
 COMMON         0x20004208       0x21 c:/program files (x86)/gnu tools arm embedded/9 2019-q4-major/bin/../lib/gcc/arm-none-eabi/9.2.1/../../../../arm-none-eabi/lib/thumb/v7-m/nofp\libc.a(lib_a-lock.o)
                0x20004208                __lock___atexit_recursive_mutex
                0x2000420c                __lock___arc4random_mutex
                0x20004210                __lock___env_recursive_mutex
                0x20004214                __lock___sinit_recursive_mutex
                0x20004218                __lock___malloc_recursive_mutex
                0x2000421c                __lock___at_quick_exit_mutex
                0x20004220                __lock___dd_hash_mutex
                0x20004224                __lock___tz_mutex
                0x20004228                __lock___sfp_recursive_mutex
 *fill*         0x20004229        0x3 
 COMMON         0x2000422c        0x4 c:/program files (x86)/gnu tools arm embedded/9 2019-q4-major/bin/../lib/gcc/arm-none-eabi/9.2.1/../../../../arm-none-eabi/lib/thumb/v7-m/nofp\libc.a(lib_a-reent.o)
                0x2000422c                errno
                0x20004230                . = ALIGN (0x8)
 *(.ram.b)
                0x20004230                . = ALIGN (0x4)
                0x20004230                _ebss = .
                0x20004230                _end = .
                0x20004230                __end = .

._usrstack      0x20004230      0x200 load address 0x080134c8
                0x20004230                . = ALIGN (0x4)
                0x20004230                _susrstack = .
                0x20004430                . = (. + _Minimum_Stack_Size)
 *fill*         0x20004230      0x200 
                0x20004430                . = ALIGN (0x4)
                0x20004430                _eusrstack = .

.b1text
 *(.b1text)
 *(.b1rodata)
 *(.b1rodata*)

.eb0text
 *(.eb0text)
 *(.eb0rodata)
 *(.eb0rodata*)

.eb1text
 *(.eb1text)
 *(.eb1rodata)
 *(.eb1rodata*)

.eb2text
 *(.eb2text)
 *(.eb2rodata)
 *(.eb2rodata*)

.eb3text
 *(.eb3text)
 *(.eb3rodata)
 *(.eb3rodata*)

.stab
 *(.stab)

.stabstr
 *(.stabstr)

.stab.excl
 *(.stab.excl)

.stab.exclstr
 *(.stab.exclstr)

.stab.index
 *(.stab.index)

.stab.indexstr
 *(.stab.indexstr)

.comment        0x00000000       0xa9
 *(.comment)
 .comment       0x00000000       0x79 FLASH_RUN/main.o
                                 0x7a (size before relaxing)
 .comment       0x00000079       0x7a FLASH_RUN/serial.o
 .comment       0x00000079       0x7a FLASH_RUN/lcd.o
 .comment       0x00000079       0x7a FLASH_RUN/ads7843.o
 .comment       0x00000079       0x7a FLASH_RUN/diskio.o
 .comment       0x00000079       0x7a FLASH_RUN/ff.o
 .comment       0x00000079       0x7a FLASH_RUN/sd_driver.o
 .comment       0x00000079       0x7a FLASH_RUN/vs1003.o
 .comment       0x00000079       0x7a FLASH_RUN/mp3.o
 .comment       0x00000079       0x7a FLASH_RUN/core.o
 .comment       0x00000079       0x7a FLASH_RUN/time.o
 .comment       0x00000079       0x30 /project/stm32fx_lib/stm32f1x_iolib/stm32f1x_iolib_hd_st32_8MHz.a(startup.o)
                                 0x31 (size before relaxing)
 .comment       0x000000a9       0x31 /project/stm32fx_lib/stm32f1x_iolib/stm32f1x_iolib_hd_st32_8MHz.a(system.o)
 .comment       0x000000a9       0x31 /project/stm32fx_lib/stm32f1x_iolib/stm32f1x_iolib_hd_st32_8MHz.a(irq.o)
 .comment       0x000000a9       0x31 /project/stm32fx_lib/stm32f1x_iolib/stm32f1x_iolib_hd_st32_8MHz.a(rcc.o)
 .comment       0x000000a9       0x31 /project/stm32fx_lib/stm32f1x_iolib/stm32f1x_iolib_hd_st32_8MHz.a(adc.o)
 .comment       0x000000a9       0x31 /project/stm32fx_lib/stm32f1x_iolib/stm32f1x_iolib_hd_st32_8MHz.a(bkp.o)
 .comment       0x000000a9       0x31 /project/stm32fx_lib/stm32f1x_iolib/stm32f1x_iolib_hd_st32_8MHz.a(exti.o)
 .comment       0x000000a9       0x31 /project/stm32fx_lib/stm32f1x_iolib/stm32f1x_iolib_hd_st32_8MHz.a(flash.o)
 .comment       0x000000a9       0x31 /project/stm32fx_lib/stm32f1x_iolib/stm32f1x_iolib_hd_st32_8MHz.a(gpio.o)
 .comment       0x000000a9       0x31 /project/stm32fx_lib/stm32f1x_iolib/stm32f1x_iolib_hd_st32_8MHz.a(iwdg.o)
 .comment       0x000000a9       0x31 /project/stm32fx_lib/stm32f1x_iolib/stm32f1x_iolib_hd_st32_8MHz.a(pwr.o)
 .comment       0x000000a9       0x31 /project/stm32fx_lib/stm32f1x_iolib/stm32f1x_iolib_hd_st32_8MHz.a(rtc.o)
 .comment       0x000000a9       0x31 /project/stm32fx_lib/stm32f1x_iolib/stm32f1x_iolib_hd_st32_8MHz.a(spi.o)
 .comment       0x000000a9       0x31 /project/stm32fx_lib/stm32f1x_iolib/stm32f1x_iolib_hd_st32_8MHz.a(timer.o)
 .comment       0x000000a9       0x31 /project/stm32fx_lib/stm32f1x_iolib/stm32f1x_iolib_hd_st32_8MHz.a(usart.o)

.debug
 *(.debug)

.line
 *(.line)

.debug_srcinfo
 *(.debug_srcinfo)

.debug_sfnames
 *(.debug_sfnames)

.debug_aranges  0x00000000     0x12f0
 *(.debug_aranges)
 .debug_aranges
                0x00000000       0x80 FLASH_RUN/main.o
 .debug_aranges
                0x00000080       0x70 FLASH_RUN/serial.o
 .debug_aranges
                0x000000f0      0x188 FLASH_RUN/lcd.o
 .debug_aranges
                0x00000278       0x88 FLASH_RUN/ads7843.o
 .debug_aranges
                0x00000300       0x48 FLASH_RUN/diskio.o
 .debug_aranges
                0x00000348      0x168 FLASH_RUN/ff.o
 .debug_aranges
                0x000004b0       0x90 FLASH_RUN/sd_driver.o
 .debug_aranges
                0x00000540       0xa0 FLASH_RUN/vs1003.o
 .debug_aranges
                0x000005e0      0x100 FLASH_RUN/mp3.o
 .debug_aranges
                0x000006e0       0x80 FLASH_RUN/core.o
 .debug_aranges
                0x00000760       0x50 FLASH_RUN/time.o
 .debug_aranges
                0x000007b0       0x30 /project/stm32fx_lib/stm32f1x_iolib/stm32f1x_iolib_hd_st32_8MHz.a(startup.o)
 .debug_aranges
                0x000007e0       0x28 /project/stm32fx_lib/stm32f1x_iolib/stm32f1x_iolib_hd_st32_8MHz.a(system.o)
 .debug_aranges
                0x00000808       0x40 /project/stm32fx_lib/stm32f1x_iolib/stm32f1x_iolib_hd_st32_8MHz.a(irq.o)
 .debug_aranges
                0x00000848      0x118 /project/stm32fx_lib/stm32f1x_iolib/stm32f1x_iolib_hd_st32_8MHz.a(rcc.o)
 .debug_aranges
                0x00000960      0x138 /project/stm32fx_lib/stm32f1x_iolib/stm32f1x_iolib_hd_st32_8MHz.a(adc.o)
 .debug_aranges
                0x00000a98       0x78 /project/stm32fx_lib/stm32f1x_iolib/stm32f1x_iolib_hd_st32_8MHz.a(bkp.o)
 .debug_aranges
                0x00000b10       0x58 /project/stm32fx_lib/stm32f1x_iolib/stm32f1x_iolib_hd_st32_8MHz.a(exti.o)
 .debug_aranges
                0x00000b68       0xf8 /project/stm32fx_lib/stm32f1x_iolib/stm32f1x_iolib_hd_st32_8MHz.a(flash.o)
 .debug_aranges
                0x00000c60       0xb0 /project/stm32fx_lib/stm32f1x_iolib/stm32f1x_iolib_hd_st32_8MHz.a(gpio.o)
 .debug_aranges
                0x00000d10       0x48 /project/stm32fx_lib/stm32f1x_iolib/stm32f1x_iolib_hd_st32_8MHz.a(iwdg.o)
 .debug_aranges
                0x00000d58       0x60 /project/stm32fx_lib/stm32f1x_iolib/stm32f1x_iolib_hd_st32_8MHz.a(pwr.o)
 .debug_aranges
                0x00000db8       0x88 /project/stm32fx_lib/stm32f1x_iolib/stm32f1x_iolib_hd_st32_8MHz.a(rtc.o)
 .debug_aranges
                0x00000e40       0xd0 /project/stm32fx_lib/stm32f1x_iolib/stm32f1x_iolib_hd_st32_8MHz.a(spi.o)
 .debug_aranges
                0x00000f10      0x2e0 /project/stm32fx_lib/stm32f1x_iolib/stm32f1x_iolib_hd_st32_8MHz.a(timer.o)
 .debug_aranges
                0x000011f0      0x100 /project/stm32fx_lib/stm32f1x_iolib/stm32f1x_iolib_hd_st32_8MHz.a(usart.o)

.debug_pubnames
 *(.debug_pubnames)

.debug_info     0x00000000    0x1b81b
 *(.debug_info .gnu.linkonce.wi.*)
 .debug_info    0x00000000     0x273a FLASH_RUN/main.o
 .debug_info    0x0000273a     0x193a FLASH_RUN/serial.o
 .debug_info    0x00004074     0x413e FLASH_RUN/lcd.o
 .debug_info    0x000081b2     0x1b9f FLASH_RUN/ads7843.o
 .debug_info    0x00009d51      0x41d FLASH_RUN/diskio.o
 .debug_info    0x0000a16e     0x327d FLASH_RUN/ff.o
 .debug_info    0x0000d3eb     0x12ae FLASH_RUN/sd_driver.o
 .debug_info    0x0000e699     0x1122 FLASH_RUN/vs1003.o
 .debug_info    0x0000f7bb     0x34a2 FLASH_RUN/mp3.o
 .debug_info    0x00012c5d      0xf35 FLASH_RUN/core.o
 .debug_info    0x00013b92      0x826 FLASH_RUN/time.o
 .debug_info    0x000143b8      0x311 /project/stm32fx_lib/stm32f1x_iolib/stm32f1x_iolib_hd_st32_8MHz.a(startup.o)
 .debug_info    0x000146c9      0x3d7 /project/stm32fx_lib/stm32f1x_iolib/stm32f1x_iolib_hd_st32_8MHz.a(system.o)
 .debug_info    0x00014aa0      0x473 /project/stm32fx_lib/stm32f1x_iolib/stm32f1x_iolib_hd_st32_8MHz.a(irq.o)
 .debug_info    0x00014f13      0x7c0 /project/stm32fx_lib/stm32f1x_iolib/stm32f1x_iolib_hd_st32_8MHz.a(rcc.o)
 .debug_info    0x000156d3      0xb02 /project/stm32fx_lib/stm32f1x_iolib/stm32f1x_iolib_hd_st32_8MHz.a(adc.o)
 .debug_info    0x000161d5      0x701 /project/stm32fx_lib/stm32f1x_iolib/stm32f1x_iolib_hd_st32_8MHz.a(bkp.o)
 .debug_info    0x000168d6      0x2a2 /project/stm32fx_lib/stm32f1x_iolib/stm32f1x_iolib_hd_st32_8MHz.a(exti.o)
 .debug_info    0x00016b78      0x951 /project/stm32fx_lib/stm32f1x_iolib/stm32f1x_iolib_hd_st32_8MHz.a(flash.o)
 .debug_info    0x000174c9      0x7d3 /project/stm32fx_lib/stm32f1x_iolib/stm32f1x_iolib_hd_st32_8MHz.a(gpio.o)
 .debug_info    0x00017c9c      0x169 /project/stm32fx_lib/stm32f1x_iolib/stm32f1x_iolib_hd_st32_8MHz.a(iwdg.o)
 .debug_info    0x00017e05      0x3d6 /project/stm32fx_lib/stm32f1x_iolib/stm32f1x_iolib_hd_st32_8MHz.a(pwr.o)
 .debug_info    0x000181db      0x3a0 /project/stm32fx_lib/stm32f1x_iolib/stm32f1x_iolib_hd_st32_8MHz.a(rtc.o)
 .debug_info    0x0001857b      0x8db /project/stm32fx_lib/stm32f1x_iolib/stm32f1x_iolib_hd_st32_8MHz.a(spi.o)
 .debug_info    0x00018e56     0x1fe0 /project/stm32fx_lib/stm32f1x_iolib/stm32f1x_iolib_hd_st32_8MHz.a(timer.o)
 .debug_info    0x0001ae36      0x9e5 /project/stm32fx_lib/stm32f1x_iolib/stm32f1x_iolib_hd_st32_8MHz.a(usart.o)

.debug_abbrev   0x00000000     0x4221
 *(.debug_abbrev)
 .debug_abbrev  0x00000000      0x560 FLASH_RUN/main.o
 .debug_abbrev  0x00000560      0x3dd FLASH_RUN/serial.o
 .debug_abbrev  0x0000093d      0x4f5 FLASH_RUN/lcd.o
 .debug_abbrev  0x00000e32      0x42b FLASH_RUN/ads7843.o
 .debug_abbrev  0x0000125d      0x187 FLASH_RUN/diskio.o
 .debug_abbrev  0x000013e4      0x4b5 FLASH_RUN/ff.o
 .debug_abbrev  0x00001899      0x366 FLASH_RUN/sd_driver.o
 .debug_abbrev  0x00001bff      0x292 FLASH_RUN/vs1003.o
 .debug_abbrev  0x00001e91      0x60b FLASH_RUN/mp3.o
 .debug_abbrev  0x0000249c      0x369 FLASH_RUN/core.o
 .debug_abbrev  0x00002805      0x1e0 FLASH_RUN/time.o
 .debug_abbrev  0x000029e5      0x157 /project/stm32fx_lib/stm32f1x_iolib/stm32f1x_iolib_hd_st32_8MHz.a(startup.o)
 .debug_abbrev  0x00002b3c      0x160 /project/stm32fx_lib/stm32f1x_iolib/stm32f1x_iolib_hd_st32_8MHz.a(system.o)
 .debug_abbrev  0x00002c9c      0x117 /project/stm32fx_lib/stm32f1x_iolib/stm32f1x_iolib_hd_st32_8MHz.a(irq.o)
 .debug_abbrev  0x00002db3      0x217 /project/stm32fx_lib/stm32f1x_iolib/stm32f1x_iolib_hd_st32_8MHz.a(rcc.o)
 .debug_abbrev  0x00002fca      0x1da /project/stm32fx_lib/stm32f1x_iolib/stm32f1x_iolib_hd_st32_8MHz.a(adc.o)
 .debug_abbrev  0x000031a4      0x16f /project/stm32fx_lib/stm32f1x_iolib/stm32f1x_iolib_hd_st32_8MHz.a(bkp.o)
 .debug_abbrev  0x00003313      0x14c /project/stm32fx_lib/stm32f1x_iolib/stm32f1x_iolib_hd_st32_8MHz.a(exti.o)
 .debug_abbrev  0x0000345f      0x211 /project/stm32fx_lib/stm32f1x_iolib/stm32f1x_iolib_hd_st32_8MHz.a(flash.o)
 .debug_abbrev  0x00003670      0x1db /project/stm32fx_lib/stm32f1x_iolib/stm32f1x_iolib_hd_st32_8MHz.a(gpio.o)
 .debug_abbrev  0x0000384b       0xe6 /project/stm32fx_lib/stm32f1x_iolib/stm32f1x_iolib_hd_st32_8MHz.a(iwdg.o)
 .debug_abbrev  0x00003931      0x17a /project/stm32fx_lib/stm32f1x_iolib/stm32f1x_iolib_hd_st32_8MHz.a(pwr.o)
 .debug_abbrev  0x00003aab      0x11d /project/stm32fx_lib/stm32f1x_iolib/stm32f1x_iolib_hd_st32_8MHz.a(rtc.o)
 .debug_abbrev  0x00003bc8      0x1dd /project/stm32fx_lib/stm32f1x_iolib/stm32f1x_iolib_hd_st32_8MHz.a(spi.o)
 .debug_abbrev  0x00003da5      0x2ae /project/stm32fx_lib/stm32f1x_iolib/stm32f1x_iolib_hd_st32_8MHz.a(timer.o)
 .debug_abbrev  0x00004053      0x1ce /project/stm32fx_lib/stm32f1x_iolib/stm32f1x_iolib_hd_st32_8MHz.a(usart.o)

.debug_line     0x00000000     0xcdb8
 *(.debug_line)
 .debug_line    0x00000000      0xb9a FLASH_RUN/main.o
 .debug_line    0x00000b9a      0xa23 FLASH_RUN/serial.o
 .debug_line    0x000015bd     0x13ab FLASH_RUN/lcd.o
 .debug_line    0x00002968      0xb8e FLASH_RUN/ads7843.o
 .debug_line    0x000034f6      0x22c FLASH_RUN/diskio.o
 .debug_line    0x00003722     0x2cd5 FLASH_RUN/ff.o
 .debug_line    0x000063f7      0x9a7 FLASH_RUN/sd_driver.o
 .debug_line    0x00006d9e      0x941 FLASH_RUN/vs1003.o
 .debug_line    0x000076df     0x24fb FLASH_RUN/mp3.o
 .debug_line    0x00009bda      0x43e FLASH_RUN/core.o
 .debug_line    0x0000a018      0x3e2 FLASH_RUN/time.o
 .debug_line    0x0000a3fa       0xfd /project/stm32fx_lib/stm32f1x_iolib/stm32f1x_iolib_hd_st32_8MHz.a(startup.o)
 .debug_line    0x0000a4f7      0x112 /project/stm32fx_lib/stm32f1x_iolib/stm32f1x_iolib_hd_st32_8MHz.a(system.o)
 .debug_line    0x0000a609      0x10e /project/stm32fx_lib/stm32f1x_iolib/stm32f1x_iolib_hd_st32_8MHz.a(irq.o)
 .debug_line    0x0000a717      0x382 /project/stm32fx_lib/stm32f1x_iolib/stm32f1x_iolib_hd_st32_8MHz.a(rcc.o)
 .debug_line    0x0000aa99      0x41d /project/stm32fx_lib/stm32f1x_iolib/stm32f1x_iolib_hd_st32_8MHz.a(adc.o)
 .debug_line    0x0000aeb6      0x1bf /project/stm32fx_lib/stm32f1x_iolib/stm32f1x_iolib_hd_st32_8MHz.a(bkp.o)
 .debug_line    0x0000b075      0x18f /project/stm32fx_lib/stm32f1x_iolib/stm32f1x_iolib_hd_st32_8MHz.a(exti.o)
 .debug_line    0x0000b204      0x3e4 /project/stm32fx_lib/stm32f1x_iolib/stm32f1x_iolib_hd_st32_8MHz.a(flash.o)
 .debug_line    0x0000b5e8      0x2eb /project/stm32fx_lib/stm32f1x_iolib/stm32f1x_iolib_hd_st32_8MHz.a(gpio.o)
 .debug_line    0x0000b8d3      0x10f /project/stm32fx_lib/stm32f1x_iolib/stm32f1x_iolib_hd_st32_8MHz.a(iwdg.o)
 .debug_line    0x0000b9e2      0x1a0 /project/stm32fx_lib/stm32f1x_iolib/stm32f1x_iolib_hd_st32_8MHz.a(pwr.o)
 .debug_line    0x0000bb82      0x1cc /project/stm32fx_lib/stm32f1x_iolib/stm32f1x_iolib_hd_st32_8MHz.a(rtc.o)
 .debug_line    0x0000bd4e      0x324 /project/stm32fx_lib/stm32f1x_iolib/stm32f1x_iolib_hd_st32_8MHz.a(spi.o)
 .debug_line    0x0000c072      0x9a0 /project/stm32fx_lib/stm32f1x_iolib/stm32f1x_iolib_hd_st32_8MHz.a(timer.o)
 .debug_line    0x0000ca12      0x3a6 /project/stm32fx_lib/stm32f1x_iolib/stm32f1x_iolib_hd_st32_8MHz.a(usart.o)

.debug_frame    0x00000000     0x42a8
 *(.debug_frame)
 .debug_frame   0x00000000      0x19c FLASH_RUN/main.o
 .debug_frame   0x0000019c      0x178 FLASH_RUN/serial.o
 .debug_frame   0x00000314      0x528 FLASH_RUN/lcd.o
 .debug_frame   0x0000083c      0x23c FLASH_RUN/ads7843.o
 .debug_frame   0x00000a78       0xa4 FLASH_RUN/diskio.o
 .debug_frame   0x00000b1c      0x640 FLASH_RUN/ff.o
 .debug_frame   0x0000115c      0x21c FLASH_RUN/sd_driver.o
 .debug_frame   0x00001378      0x22c FLASH_RUN/vs1003.o
 .debug_frame   0x000015a4      0x42c FLASH_RUN/mp3.o
 .debug_frame   0x000019d0      0x120 FLASH_RUN/core.o
 .debug_frame   0x00001af0       0xec FLASH_RUN/time.o
 .debug_frame   0x00001bdc       0x5c /project/stm32fx_lib/stm32f1x_iolib/stm32f1x_iolib_hd_st32_8MHz.a(startup.o)
 .debug_frame   0x00001c38       0x34 /project/stm32fx_lib/stm32f1x_iolib/stm32f1x_iolib_hd_st32_8MHz.a(system.o)
 .debug_frame   0x00001c6c       0x6c /project/stm32fx_lib/stm32f1x_iolib/stm32f1x_iolib_hd_st32_8MHz.a(irq.o)
 .debug_frame   0x00001cd8      0x22c /project/stm32fx_lib/stm32f1x_iolib/stm32f1x_iolib_hd_st32_8MHz.a(rcc.o)
 .debug_frame   0x00001f04      0x290 /project/stm32fx_lib/stm32f1x_iolib/stm32f1x_iolib_hd_st32_8MHz.a(adc.o)
 .debug_frame   0x00002194       0xe4 /project/stm32fx_lib/stm32f1x_iolib/stm32f1x_iolib_hd_st32_8MHz.a(bkp.o)
 .debug_frame   0x00002278       0x9c /project/stm32fx_lib/stm32f1x_iolib/stm32f1x_iolib_hd_st32_8MHz.a(exti.o)
 .debug_frame   0x00002314      0x28c /project/stm32fx_lib/stm32f1x_iolib/stm32f1x_iolib_hd_st32_8MHz.a(flash.o)
 .debug_frame   0x000025a0      0x1ac /project/stm32fx_lib/stm32f1x_iolib/stm32f1x_iolib_hd_st32_8MHz.a(gpio.o)
 .debug_frame   0x0000274c       0x70 /project/stm32fx_lib/stm32f1x_iolib/stm32f1x_iolib_hd_st32_8MHz.a(iwdg.o)
 .debug_frame   0x000027bc       0xac /project/stm32fx_lib/stm32f1x_iolib/stm32f1x_iolib_hd_st32_8MHz.a(pwr.o)
 .debug_frame   0x00002868      0x114 /project/stm32fx_lib/stm32f1x_iolib/stm32f1x_iolib_hd_st32_8MHz.a(rtc.o)
 .debug_frame   0x0000297c      0x1bc /project/stm32fx_lib/stm32f1x_iolib/stm32f1x_iolib_hd_st32_8MHz.a(spi.o)
 .debug_frame   0x00002b38      0x688 /project/stm32fx_lib/stm32f1x_iolib/stm32f1x_iolib_hd_st32_8MHz.a(timer.o)
 .debug_frame   0x000031c0      0x220 /project/stm32fx_lib/stm32f1x_iolib/stm32f1x_iolib_hd_st32_8MHz.a(usart.o)
 .debug_frame   0x000033e0       0x28 c:/program files (x86)/gnu tools arm embedded/9 2019-q4-major/bin/../lib/gcc/arm-none-eabi/9.2.1/../../../../arm-none-eabi/lib/thumb/v7-m/nofp\libc.a(lib_a-abort.o)
 .debug_frame   0x00003408       0x20 c:/program files (x86)/gnu tools arm embedded/9 2019-q4-major/bin/../lib/gcc/arm-none-eabi/9.2.1/../../../../arm-none-eabi/lib/thumb/v7-m/nofp\libc.a(lib_a-errno.o)
 .debug_frame   0x00003428       0x30 c:/program files (x86)/gnu tools arm embedded/9 2019-q4-major/bin/../lib/gcc/arm-none-eabi/9.2.1/../../../../arm-none-eabi/lib/thumb/v7-m/nofp\libc.a(lib_a-malloc.o)
 .debug_frame   0x00003458       0x4c c:/program files (x86)/gnu tools arm embedded/9 2019-q4-major/bin/../lib/gcc/arm-none-eabi/9.2.1/../../../../arm-none-eabi/lib/thumb/v7-m/nofp\libc.a(lib_a-mallocr.o)
 .debug_frame   0x000034a4       0x38 c:/program files (x86)/gnu tools arm embedded/9 2019-q4-major/bin/../lib/gcc/arm-none-eabi/9.2.1/../../../../arm-none-eabi/lib/thumb/v7-m/nofp\libc.a(lib_a-memset.o)
 .debug_frame   0x000034dc       0x30 c:/program files (x86)/gnu tools arm embedded/9 2019-q4-major/bin/../lib/gcc/arm-none-eabi/9.2.1/../../../../arm-none-eabi/lib/thumb/v7-m/nofp\libc.a(lib_a-mlock.o)
 .debug_frame   0x0000350c       0x2c c:/program files (x86)/gnu tools arm embedded/9 2019-q4-major/bin/../lib/gcc/arm-none-eabi/9.2.1/../../../../arm-none-eabi/lib/thumb/v7-m/nofp\libc.a(lib_a-sbrkr.o)
 .debug_frame   0x00003538       0xe0 c:/program files (x86)/gnu tools arm embedded/9 2019-q4-major/bin/../lib/gcc/arm-none-eabi/9.2.1/../../../../arm-none-eabi/lib/thumb/v7-m/nofp\libc.a(lib_a-signal.o)
 .debug_frame   0x00003618       0x3c c:/program files (x86)/gnu tools arm embedded/9 2019-q4-major/bin/../lib/gcc/arm-none-eabi/9.2.1/../../../../arm-none-eabi/lib/thumb/v7-m/nofp\libc.a(lib_a-signalr.o)
 .debug_frame   0x00003654       0x3c c:/program files (x86)/gnu tools arm embedded/9 2019-q4-major/bin/../lib/gcc/arm-none-eabi/9.2.1/../../../../arm-none-eabi/lib/thumb/v7-m/nofp\libc.a(lib_a-strcasecmp.o)
 .debug_frame   0x00003690       0x20 c:/program files (x86)/gnu tools arm embedded/9 2019-q4-major/bin/../lib/gcc/arm-none-eabi/9.2.1/../../../../arm-none-eabi/lib/thumb/v7-m/nofp\libc.a(lib_a-strcpy.o)
 .debug_frame   0x000036b0       0x20 c:/program files (x86)/gnu tools arm embedded/9 2019-q4-major/bin/../lib/gcc/arm-none-eabi/9.2.1/../../../../arm-none-eabi/lib/thumb/v7-m/nofp\libc.a(lib_a-strlen-stub.o)
 .debug_frame   0x000036d0       0x4c c:/program files (x86)/gnu tools arm embedded/9 2019-q4-major/bin/../lib/gcc/arm-none-eabi/9.2.1/../../../../arm-none-eabi/lib/thumb/v7-m/nofp\libc.a(lib_a-vsprintf.o)
 .debug_frame   0x0000371c       0x8c c:/program files (x86)/gnu tools arm embedded/9 2019-q4-major/bin/../lib/gcc/arm-none-eabi/9.2.1/../../../../arm-none-eabi/lib/thumb/v7-m/nofp\libc.a(lib_a-freer.o)
 .debug_frame   0x000037a8       0xb0 c:/program files (x86)/gnu tools arm embedded/9 2019-q4-major/bin/../lib/gcc/arm-none-eabi/9.2.1/../../../../arm-none-eabi/lib/thumb/v7-m/nofp\libc.a(lib_a-lock.o)
 .debug_frame   0x00003858       0x60 c:/program files (x86)/gnu tools arm embedded/9 2019-q4-major/bin/../lib/gcc/arm-none-eabi/9.2.1/../../../../arm-none-eabi/lib/thumb/v7-m/nofp\libc.a(lib_a-reent.o)
 .debug_frame   0x000038b8       0x44 c:/program files (x86)/gnu tools arm embedded/9 2019-q4-major/bin/../lib/gcc/arm-none-eabi/9.2.1/../../../../arm-none-eabi/lib/thumb/v7-m/nofp\libc.a(lib_a-svfprintf.o)
 .debug_frame   0x000038fc       0x8c c:/program files (x86)/gnu tools arm embedded/9 2019-q4-major/bin/../lib/gcc/arm-none-eabi/9.2.1/../../../../arm-none-eabi/lib/thumb/v7-m/nofp\libc.a(lib_a-dtoa.o)
 .debug_frame   0x00003988       0x40 c:/program files (x86)/gnu tools arm embedded/9 2019-q4-major/bin/../lib/gcc/arm-none-eabi/9.2.1/../../../../arm-none-eabi/lib/thumb/v7-m/nofp\libc.a(lib_a-localeconv.o)
 .debug_frame   0x000039c8       0x44 c:/program files (x86)/gnu tools arm embedded/9 2019-q4-major/bin/../lib/gcc/arm-none-eabi/9.2.1/../../../../arm-none-eabi/lib/thumb/v7-m/nofp\libc.a(lib_a-memchr-stub.o)
 .debug_frame   0x00003a0c      0x25c c:/program files (x86)/gnu tools arm embedded/9 2019-q4-major/bin/../lib/gcc/arm-none-eabi/9.2.1/../../../../arm-none-eabi/lib/thumb/v7-m/nofp\libc.a(lib_a-mprec.o)
 .debug_frame   0x00003c68       0x30 c:/program files (x86)/gnu tools arm embedded/9 2019-q4-major/bin/../lib/gcc/arm-none-eabi/9.2.1/../../../../arm-none-eabi/lib/thumb/v7-m/nofp\libc.a(lib_a-s_frexp.o)
 .debug_frame   0x00003c98       0x38 c:/program files (x86)/gnu tools arm embedded/9 2019-q4-major/bin/../lib/gcc/arm-none-eabi/9.2.1/../../../../arm-none-eabi/lib/thumb/v7-m/nofp\libc.a(lib_a-strncpy.o)
 .debug_frame   0x00003cd0       0x78 c:/program files (x86)/gnu tools arm embedded/9 2019-q4-major/bin/../lib/gcc/arm-none-eabi/9.2.1/../../../../arm-none-eabi/lib/thumb/v7-m/nofp\libc.a(lib_a-svfiprintf.o)
 .debug_frame   0x00003d48       0x28 c:/program files (x86)/gnu tools arm embedded/9 2019-q4-major/bin/../lib/gcc/arm-none-eabi/9.2.1/../../../../arm-none-eabi/lib/thumb/v7-m/nofp\libc.a(lib_a-callocr.o)
 .debug_frame   0x00003d70       0x54 c:/program files (x86)/gnu tools arm embedded/9 2019-q4-major/bin/../lib/gcc/arm-none-eabi/9.2.1/../../../../arm-none-eabi/lib/thumb/v7-m/nofp\libc.a(lib_a-locale.o)
 .debug_frame   0x00003dc4       0x4c c:/program files (x86)/gnu tools arm embedded/9 2019-q4-major/bin/../lib/gcc/arm-none-eabi/9.2.1/../../../../arm-none-eabi/lib/thumb/v7-m/nofp\libc.a(lib_a-mbtowc_r.o)
 .debug_frame   0x00003e10       0x40 c:/program files (x86)/gnu tools arm embedded/9 2019-q4-major/bin/../lib/gcc/arm-none-eabi/9.2.1/../../../../arm-none-eabi/lib/thumb/v7-m/nofp\libc.a(lib_a-memmove.o)
 .debug_frame   0x00003e50       0x48 c:/program files (x86)/gnu tools arm embedded/9 2019-q4-major/bin/../lib/gcc/arm-none-eabi/9.2.1/../../../../arm-none-eabi/lib/thumb/v7-m/nofp\libc.a(lib_a-reallocr.o)
 .debug_frame   0x00003e98       0x3c c:/program files (x86)/gnu tools arm embedded/9 2019-q4-major/bin/../lib/gcc/arm-none-eabi/9.2.1/../../../../arm-none-eabi/lib/thumb/v7-m/nofp\libc.a(lib_a-wctomb_r.o)
 .debug_frame   0x00003ed4       0xac c:/program files (x86)/gnu tools arm embedded/9 2019-q4-major/bin/../lib/gcc/arm-none-eabi/9.2.1/thumb/v7-m/nofp\libgcc.a(_arm_addsubdf3.o)
 .debug_frame   0x00003f80       0x50 c:/program files (x86)/gnu tools arm embedded/9 2019-q4-major/bin/../lib/gcc/arm-none-eabi/9.2.1/thumb/v7-m/nofp\libgcc.a(_arm_muldivdf3.o)
 .debug_frame   0x00003fd0       0xc4 c:/program files (x86)/gnu tools arm embedded/9 2019-q4-major/bin/../lib/gcc/arm-none-eabi/9.2.1/thumb/v7-m/nofp\libgcc.a(_arm_cmpdf2.o)
 .debug_frame   0x00004094       0x20 c:/program files (x86)/gnu tools arm embedded/9 2019-q4-major/bin/../lib/gcc/arm-none-eabi/9.2.1/thumb/v7-m/nofp\libgcc.a(_arm_unorddf2.o)
 .debug_frame   0x000040b4       0x24 c:/program files (x86)/gnu tools arm embedded/9 2019-q4-major/bin/../lib/gcc/arm-none-eabi/9.2.1/thumb/v7-m/nofp\libgcc.a(_arm_fixdfsi.o)
 .debug_frame   0x000040d8       0x4c c:/program files (x86)/gnu tools arm embedded/9 2019-q4-major/bin/../lib/gcc/arm-none-eabi/9.2.1/thumb/v7-m/nofp\libgcc.a(_arm_addsubsf3.o)
 .debug_frame   0x00004124       0x38 c:/program files (x86)/gnu tools arm embedded/9 2019-q4-major/bin/../lib/gcc/arm-none-eabi/9.2.1/thumb/v7-m/nofp\libgcc.a(_arm_muldivsf3.o)
 .debug_frame   0x0000415c       0xc8 c:/program files (x86)/gnu tools arm embedded/9 2019-q4-major/bin/../lib/gcc/arm-none-eabi/9.2.1/thumb/v7-m/nofp\libgcc.a(_arm_cmpsf2.o)
 .debug_frame   0x00004224       0x24 c:/program files (x86)/gnu tools arm embedded/9 2019-q4-major/bin/../lib/gcc/arm-none-eabi/9.2.1/thumb/v7-m/nofp\libgcc.a(_arm_fixunssfsi.o)
 .debug_frame   0x00004248       0x2c c:/program files (x86)/gnu tools arm embedded/9 2019-q4-major/bin/../lib/gcc/arm-none-eabi/9.2.1/thumb/v7-m/nofp\libgcc.a(_aeabi_uldivmod.o)
 .debug_frame   0x00004274       0x34 c:/program files (x86)/gnu tools arm embedded/9 2019-q4-major/bin/../lib/gcc/arm-none-eabi/9.2.1/thumb/v7-m/nofp\libgcc.a(_udivmoddi4.o)

.debug_str      0x00000000     0x4d87
 *(.debug_str)
 .debug_str     0x00000000     0x12c7 FLASH_RUN/main.o
                               0x1392 (size before relaxing)
 .debug_str     0x000012c7      0x264 FLASH_RUN/serial.o
                                0xe1d (size before relaxing)
 .debug_str     0x0000152b      0x3df FLASH_RUN/lcd.o
                                0xae7 (size before relaxing)
 .debug_str     0x0000190a      0x272 FLASH_RUN/ads7843.o
                                0xe0f (size before relaxing)
 .debug_str     0x00001b7c      0x112 FLASH_RUN/diskio.o
                                0x2ad (size before relaxing)
 .debug_str     0x00001c8e      0x459 FLASH_RUN/ff.o
                                0x6c9 (size before relaxing)
 .debug_str     0x000020e7      0x1db FLASH_RUN/sd_driver.o
                                0x52d (size before relaxing)
 .debug_str     0x000022c2      0x177 FLASH_RUN/vs1003.o
                                0x40b (size before relaxing)
 .debug_str     0x00002439      0x2fb FLASH_RUN/mp3.o
                                0xcc7 (size before relaxing)
 .debug_str     0x00002734      0x1bf FLASH_RUN/core.o
                                0x785 (size before relaxing)
 .debug_str     0x000028f3      0x20e FLASH_RUN/time.o
                                0x7ed (size before relaxing)
 .debug_str     0x00002b01      0x133 /project/stm32fx_lib/stm32f1x_iolib/stm32f1x_iolib_hd_st32_8MHz.a(startup.o)
                                0x1ea (size before relaxing)
 .debug_str     0x00002c34       0xcb /project/stm32fx_lib/stm32f1x_iolib/stm32f1x_iolib_hd_st32_8MHz.a(system.o)
                                0x225 (size before relaxing)
 .debug_str     0x00002cff       0xab /project/stm32fx_lib/stm32f1x_iolib/stm32f1x_iolib_hd_st32_8MHz.a(irq.o)
                                0x301 (size before relaxing)
 .debug_str     0x00002daa      0x328 /project/stm32fx_lib/stm32f1x_iolib/stm32f1x_iolib_hd_st32_8MHz.a(rcc.o)
                                0x50d (size before relaxing)
 .debug_str     0x000030d2      0x307 /project/stm32fx_lib/stm32f1x_iolib/stm32f1x_iolib_hd_st32_8MHz.a(adc.o)
                                0x61f (size before relaxing)
 .debug_str     0x000033d9      0x290 /project/stm32fx_lib/stm32f1x_iolib/stm32f1x_iolib_hd_st32_8MHz.a(bkp.o)
                                0x4da (size before relaxing)
 .debug_str     0x00003669       0x66 /project/stm32fx_lib/stm32f1x_iolib/stm32f1x_iolib_hd_st32_8MHz.a(exti.o)
                                0x27c (size before relaxing)
 .debug_str     0x000036cf      0x317 /project/stm32fx_lib/stm32f1x_iolib/stm32f1x_iolib_hd_st32_8MHz.a(flash.o)
                                0x4fe (size before relaxing)
 .debug_str     0x000039e6      0x239 /project/stm32fx_lib/stm32f1x_iolib/stm32f1x_iolib_hd_st32_8MHz.a(gpio.o)
                                0x465 (size before relaxing)
 .debug_str     0x00003c1f       0x99 /project/stm32fx_lib/stm32f1x_iolib/stm32f1x_iolib_hd_st32_8MHz.a(iwdg.o)
                                0x191 (size before relaxing)
 .debug_str     0x00003cb8       0xd8 /project/stm32fx_lib/stm32f1x_iolib/stm32f1x_iolib_hd_st32_8MHz.a(pwr.o)
                                0x23f (size before relaxing)
 .debug_str     0x00003d90       0xdb /project/stm32fx_lib/stm32f1x_iolib/stm32f1x_iolib_hd_st32_8MHz.a(rtc.o)
                                0x2af (size before relaxing)
 .debug_str     0x00003e6b      0x238 /project/stm32fx_lib/stm32f1x_iolib/stm32f1x_iolib_hd_st32_8MHz.a(spi.o)
                                0x54a (size before relaxing)
 .debug_str     0x000040a3      0x9ec /project/stm32fx_lib/stm32f1x_iolib/stm32f1x_iolib_hd_st32_8MHz.a(timer.o)
                                0xd1a (size before relaxing)
 .debug_str     0x00004a8f      0x2f8 /project/stm32fx_lib/stm32f1x_iolib/stm32f1x_iolib_hd_st32_8MHz.a(usart.o)
                                0x5dd (size before relaxing)

.debug_loc      0x00000000     0xf2eb
 *(.debug_loc)
 .debug_loc     0x00000000      0x533 FLASH_RUN/main.o
 .debug_loc     0x00000533      0x410 FLASH_RUN/serial.o
 .debug_loc     0x00000943     0x1733 FLASH_RUN/lcd.o
 .debug_loc     0x00002076      0xe01 FLASH_RUN/ads7843.o
 .debug_loc     0x00002e77      0x463 FLASH_RUN/diskio.o
 .debug_loc     0x000032da     0x4240 FLASH_RUN/ff.o
 .debug_loc     0x0000751a      0xaea FLASH_RUN/sd_driver.o
 .debug_loc     0x00008004      0x5c7 FLASH_RUN/vs1003.o
 .debug_loc     0x000085cb     0x16e4 FLASH_RUN/mp3.o
 .debug_loc     0x00009caf      0x25e FLASH_RUN/core.o
 .debug_loc     0x00009f0d      0x53a FLASH_RUN/time.o
 .debug_loc     0x0000a447       0x81 /project/stm32fx_lib/stm32f1x_iolib/stm32f1x_iolib_hd_st32_8MHz.a(startup.o)
 .debug_loc     0x0000a4c8       0x93 /project/stm32fx_lib/stm32f1x_iolib/stm32f1x_iolib_hd_st32_8MHz.a(system.o)
 .debug_loc     0x0000a55b      0x170 /project/stm32fx_lib/stm32f1x_iolib/stm32f1x_iolib_hd_st32_8MHz.a(irq.o)
 .debug_loc     0x0000a6cb      0x68b /project/stm32fx_lib/stm32f1x_iolib/stm32f1x_iolib_hd_st32_8MHz.a(rcc.o)
 .debug_loc     0x0000ad56      0x881 /project/stm32fx_lib/stm32f1x_iolib/stm32f1x_iolib_hd_st32_8MHz.a(adc.o)
 .debug_loc     0x0000b5d7       0xee /project/stm32fx_lib/stm32f1x_iolib/stm32f1x_iolib_hd_st32_8MHz.a(bkp.o)
 .debug_loc     0x0000b6c5      0x1a6 /project/stm32fx_lib/stm32f1x_iolib/stm32f1x_iolib_hd_st32_8MHz.a(exti.o)
 .debug_loc     0x0000b86b      0x7e3 /project/stm32fx_lib/stm32f1x_iolib/stm32f1x_iolib_hd_st32_8MHz.a(flash.o)
 .debug_loc     0x0000c04e      0x6aa /project/stm32fx_lib/stm32f1x_iolib/stm32f1x_iolib_hd_st32_8MHz.a(gpio.o)
 .debug_loc     0x0000c6f8       0x68 /project/stm32fx_lib/stm32f1x_iolib/stm32f1x_iolib_hd_st32_8MHz.a(iwdg.o)
 .debug_loc     0x0000c760      0x117 /project/stm32fx_lib/stm32f1x_iolib/stm32f1x_iolib_hd_st32_8MHz.a(pwr.o)
 .debug_loc     0x0000c877      0x21c /project/stm32fx_lib/stm32f1x_iolib/stm32f1x_iolib_hd_st32_8MHz.a(rtc.o)
 .debug_loc     0x0000ca93      0x595 /project/stm32fx_lib/stm32f1x_iolib/stm32f1x_iolib_hd_st32_8MHz.a(spi.o)
 .debug_loc     0x0000d028     0x1c3c /project/stm32fx_lib/stm32f1x_iolib/stm32f1x_iolib_hd_st32_8MHz.a(timer.o)
 .debug_loc     0x0000ec64      0x687 /project/stm32fx_lib/stm32f1x_iolib/stm32f1x_iolib_hd_st32_8MHz.a(usart.o)

.debug_macinfo
 *(.debug_macinfo)

.debug_weaknames
 *(.debug_weaknames)

.debug_funcnames
 *(.debug_funcnames)

.debug_typenames
 *(.debug_typenames)

.debug_varnames
 *(.debug_varnames)

.debug_pubtypes
 *(.debug_pubtypes)

.debug_ranges   0x00000000     0x1918
 *(.debug_ranges)
 .debug_ranges  0x00000000      0x118 FLASH_RUN/main.o
 .debug_ranges  0x00000118       0x78 FLASH_RUN/serial.o
 .debug_ranges  0x00000190      0x190 FLASH_RUN/lcd.o
 .debug_ranges  0x00000320       0x78 FLASH_RUN/ads7843.o
 .debug_ranges  0x00000398       0x38 FLASH_RUN/diskio.o
 .debug_ranges  0x000003d0      0x3b0 FLASH_RUN/ff.o
 .debug_ranges  0x00000780       0x80 FLASH_RUN/sd_driver.o
 .debug_ranges  0x00000800       0xf8 FLASH_RUN/vs1003.o
 .debug_ranges  0x000008f8      0x4b8 FLASH_RUN/mp3.o
 .debug_ranges  0x00000db0       0x88 FLASH_RUN/core.o
 .debug_ranges  0x00000e38       0x40 FLASH_RUN/time.o
 .debug_ranges  0x00000e78       0x20 /project/stm32fx_lib/stm32f1x_iolib/stm32f1x_iolib_hd_st32_8MHz.a(startup.o)
 .debug_ranges  0x00000e98       0x30 /project/stm32fx_lib/stm32f1x_iolib/stm32f1x_iolib_hd_st32_8MHz.a(system.o)
 .debug_ranges  0x00000ec8       0x30 /project/stm32fx_lib/stm32f1x_iolib/stm32f1x_iolib_hd_st32_8MHz.a(irq.o)
 .debug_ranges  0x00000ef8      0x108 /project/stm32fx_lib/stm32f1x_iolib/stm32f1x_iolib_hd_st32_8MHz.a(rcc.o)
 .debug_ranges  0x00001000      0x128 /project/stm32fx_lib/stm32f1x_iolib/stm32f1x_iolib_hd_st32_8MHz.a(adc.o)
 .debug_ranges  0x00001128       0x68 /project/stm32fx_lib/stm32f1x_iolib/stm32f1x_iolib_hd_st32_8MHz.a(bkp.o)
 .debug_ranges  0x00001190       0x48 /project/stm32fx_lib/stm32f1x_iolib/stm32f1x_iolib_hd_st32_8MHz.a(exti.o)
 .debug_ranges  0x000011d8       0xe8 /project/stm32fx_lib/stm32f1x_iolib/stm32f1x_iolib_hd_st32_8MHz.a(flash.o)
 .debug_ranges  0x000012c0       0xa0 /project/stm32fx_lib/stm32f1x_iolib/stm32f1x_iolib_hd_st32_8MHz.a(gpio.o)
 .debug_ranges  0x00001360       0x38 /project/stm32fx_lib/stm32f1x_iolib/stm32f1x_iolib_hd_st32_8MHz.a(iwdg.o)
 .debug_ranges  0x00001398       0x50 /project/stm32fx_lib/stm32f1x_iolib/stm32f1x_iolib_hd_st32_8MHz.a(pwr.o)
 .debug_ranges  0x000013e8       0x78 /project/stm32fx_lib/stm32f1x_iolib/stm32f1x_iolib_hd_st32_8MHz.a(rtc.o)
 .debug_ranges  0x00001460       0xc0 /project/stm32fx_lib/stm32f1x_iolib/stm32f1x_iolib_hd_st32_8MHz.a(spi.o)
 .debug_ranges  0x00001520      0x308 /project/stm32fx_lib/stm32f1x_iolib/stm32f1x_iolib_hd_st32_8MHz.a(timer.o)
 .debug_ranges  0x00001828       0xf0 /project/stm32fx_lib/stm32f1x_iolib/stm32f1x_iolib_hd_st32_8MHz.a(usart.o)

.ARM.attributes
                0x00000000       0x2b
 *(.ARM.attributes)
 .ARM.attributes
                0x00000000       0x2d FLASH_RUN/main.o
 .ARM.attributes
                0x0000002d       0x2d FLASH_RUN/serial.o
 .ARM.attributes
                0x0000005a       0x2d FLASH_RUN/lcd.o
 .ARM.attributes
                0x00000087       0x2d FLASH_RUN/ads7843.o
 .ARM.attributes
                0x000000b4       0x2d FLASH_RUN/diskio.o
 .ARM.attributes
                0x000000e1       0x2d FLASH_RUN/ff.o
 .ARM.attributes
                0x0000010e       0x33 FLASH_RUN/ccsbcs.o
 .ARM.attributes
                0x00000141       0x2d FLASH_RUN/sd_driver.o
 .ARM.attributes
                0x0000016e       0x2d FLASH_RUN/vs1003.o
 .ARM.attributes
                0x0000019b       0x2d FLASH_RUN/mp3.o
 .ARM.attributes
                0x000001c8       0x2d FLASH_RUN/core.o
 .ARM.attributes
                0x000001f5       0x2d FLASH_RUN/time.o
 .ARM.attributes
                0x00000222       0x33 /project/stm32fx_lib/stm32f1x_iolib/stm32f1x_iolib_hd_st32_8MHz.a(startup.o)
 .ARM.attributes
                0x00000255       0x33 /project/stm32fx_lib/stm32f1x_iolib/stm32f1x_iolib_hd_st32_8MHz.a(system.o)
 .ARM.attributes
                0x00000288       0x33 /project/stm32fx_lib/stm32f1x_iolib/stm32f1x_iolib_hd_st32_8MHz.a(irq.o)
 .ARM.attributes
                0x000002bb       0x33 /project/stm32fx_lib/stm32f1x_iolib/stm32f1x_iolib_hd_st32_8MHz.a(rcc.o)
 .ARM.attributes
                0x000002ee       0x33 /project/stm32fx_lib/stm32f1x_iolib/stm32f1x_iolib_hd_st32_8MHz.a(adc.o)
 .ARM.attributes
                0x00000321       0x33 /project/stm32fx_lib/stm32f1x_iolib/stm32f1x_iolib_hd_st32_8MHz.a(bkp.o)
 .ARM.attributes
                0x00000354       0x33 /project/stm32fx_lib/stm32f1x_iolib/stm32f1x_iolib_hd_st32_8MHz.a(exti.o)
 .ARM.attributes
                0x00000387       0x33 /project/stm32fx_lib/stm32f1x_iolib/stm32f1x_iolib_hd_st32_8MHz.a(flash.o)
 .ARM.attributes
                0x000003ba       0x33 /project/stm32fx_lib/stm32f1x_iolib/stm32f1x_iolib_hd_st32_8MHz.a(gpio.o)
 .ARM.attributes
                0x000003ed       0x33 /project/stm32fx_lib/stm32f1x_iolib/stm32f1x_iolib_hd_st32_8MHz.a(iwdg.o)
 .ARM.attributes
                0x00000420       0x33 /project/stm32fx_lib/stm32f1x_iolib/stm32f1x_iolib_hd_st32_8MHz.a(pwr.o)
 .ARM.attributes
                0x00000453       0x33 /project/stm32fx_lib/stm32f1x_iolib/stm32f1x_iolib_hd_st32_8MHz.a(rtc.o)
 .ARM.attributes
                0x00000486       0x33 /project/stm32fx_lib/stm32f1x_iolib/stm32f1x_iolib_hd_st32_8MHz.a(spi.o)
 .ARM.attributes
                0x000004b9       0x33 /project/stm32fx_lib/stm32f1x_iolib/stm32f1x_iolib_hd_st32_8MHz.a(timer.o)
 .ARM.attributes
                0x000004ec       0x33 /project/stm32fx_lib/stm32f1x_iolib/stm32f1x_iolib_hd_st32_8MHz.a(usart.o)
 .ARM.attributes
                0x0000051f       0x2d c:/program files (x86)/gnu tools arm embedded/9 2019-q4-major/bin/../lib/gcc/arm-none-eabi/9.2.1/../../../../arm-none-eabi/lib/thumb/v7-m/nofp\libc.a(lib_a-abort.o)
 .ARM.attributes
                0x0000054c       0x2d c:/program files (x86)/gnu tools arm embedded/9 2019-q4-major/bin/../lib/gcc/arm-none-eabi/9.2.1/../../../../arm-none-eabi/lib/thumb/v7-m/nofp\libc.a(lib_a-errno.o)
 .ARM.attributes
                0x00000579       0x2d c:/program files (x86)/gnu tools arm embedded/9 2019-q4-major/bin/../lib/gcc/arm-none-eabi/9.2.1/../../../../arm-none-eabi/lib/thumb/v7-m/nofp\libc.a(lib_a-impure.o)
 .ARM.attributes
                0x000005a6       0x2d c:/program files (x86)/gnu tools arm embedded/9 2019-q4-major/bin/../lib/gcc/arm-none-eabi/9.2.1/../../../../arm-none-eabi/lib/thumb/v7-m/nofp\libc.a(lib_a-malloc.o)
 .ARM.attributes
                0x000005d3       0x2d c:/program files (x86)/gnu tools arm embedded/9 2019-q4-major/bin/../lib/gcc/arm-none-eabi/9.2.1/../../../../arm-none-eabi/lib/thumb/v7-m/nofp\libc.a(lib_a-mallocr.o)
 .ARM.attributes
                0x00000600       0x1b c:/program files (x86)/gnu tools arm embedded/9 2019-q4-major/bin/../lib/gcc/arm-none-eabi/9.2.1/../../../../arm-none-eabi/lib/thumb/v7-m/nofp\libc.a(lib_a-memcpy.o)
 .ARM.attributes
                0x0000061b       0x2d c:/program files (x86)/gnu tools arm embedded/9 2019-q4-major/bin/../lib/gcc/arm-none-eabi/9.2.1/../../../../arm-none-eabi/lib/thumb/v7-m/nofp\libc.a(lib_a-memset.o)
 .ARM.attributes
                0x00000648       0x2d c:/program files (x86)/gnu tools arm embedded/9 2019-q4-major/bin/../lib/gcc/arm-none-eabi/9.2.1/../../../../arm-none-eabi/lib/thumb/v7-m/nofp\libc.a(lib_a-mlock.o)
 .ARM.attributes
                0x00000675       0x2d c:/program files (x86)/gnu tools arm embedded/9 2019-q4-major/bin/../lib/gcc/arm-none-eabi/9.2.1/../../../../arm-none-eabi/lib/thumb/v7-m/nofp\libc.a(lib_a-sbrkr.o)
 .ARM.attributes
                0x000006a2       0x2d c:/program files (x86)/gnu tools arm embedded/9 2019-q4-major/bin/../lib/gcc/arm-none-eabi/9.2.1/../../../../arm-none-eabi/lib/thumb/v7-m/nofp\libc.a(lib_a-signal.o)
 .ARM.attributes
                0x000006cf       0x2d c:/program files (x86)/gnu tools arm embedded/9 2019-q4-major/bin/../lib/gcc/arm-none-eabi/9.2.1/../../../../arm-none-eabi/lib/thumb/v7-m/nofp\libc.a(lib_a-signalr.o)
 .ARM.attributes
                0x000006fc       0x2d c:/program files (x86)/gnu tools arm embedded/9 2019-q4-major/bin/../lib/gcc/arm-none-eabi/9.2.1/../../../../arm-none-eabi/lib/thumb/v7-m/nofp\libc.a(lib_a-strcasecmp.o)
 .ARM.attributes
                0x00000729       0x2d c:/program files (x86)/gnu tools arm embedded/9 2019-q4-major/bin/../lib/gcc/arm-none-eabi/9.2.1/../../../../arm-none-eabi/lib/thumb/v7-m/nofp\libc.a(lib_a-strcpy.o)
 .ARM.attributes
                0x00000756       0x2d c:/program files (x86)/gnu tools arm embedded/9 2019-q4-major/bin/../lib/gcc/arm-none-eabi/9.2.1/../../../../arm-none-eabi/lib/thumb/v7-m/nofp\libc.a(lib_a-strlen-stub.o)
 .ARM.attributes
                0x00000783       0x2d c:/program files (x86)/gnu tools arm embedded/9 2019-q4-major/bin/../lib/gcc/arm-none-eabi/9.2.1/../../../../arm-none-eabi/lib/thumb/v7-m/nofp\libc.a(lib_a-vsprintf.o)
 .ARM.attributes
                0x000007b0       0x2d c:/program files (x86)/gnu tools arm embedded/9 2019-q4-major/bin/../lib/gcc/arm-none-eabi/9.2.1/../../../../arm-none-eabi/lib/thumb/v7-m/nofp\libc.a(lib_a-ctype_.o)
 .ARM.attributes
                0x000007dd       0x2d c:/program files (x86)/gnu tools arm embedded/9 2019-q4-major/bin/../lib/gcc/arm-none-eabi/9.2.1/../../../../arm-none-eabi/lib/thumb/v7-m/nofp\libc.a(lib_a-freer.o)
 .ARM.attributes
                0x0000080a       0x2d c:/program files (x86)/gnu tools arm embedded/9 2019-q4-major/bin/../lib/gcc/arm-none-eabi/9.2.1/../../../../arm-none-eabi/lib/thumb/v7-m/nofp\libc.a(lib_a-lock.o)
 .ARM.attributes
                0x00000837       0x2d c:/program files (x86)/gnu tools arm embedded/9 2019-q4-major/bin/../lib/gcc/arm-none-eabi/9.2.1/../../../../arm-none-eabi/lib/thumb/v7-m/nofp\libc.a(lib_a-reent.o)
 .ARM.attributes
                0x00000864       0x2d c:/program files (x86)/gnu tools arm embedded/9 2019-q4-major/bin/../lib/gcc/arm-none-eabi/9.2.1/../../../../arm-none-eabi/lib/thumb/v7-m/nofp\libc.a(lib_a-svfprintf.o)
 .ARM.attributes
                0x00000891       0x2d c:/program files (x86)/gnu tools arm embedded/9 2019-q4-major/bin/../lib/gcc/arm-none-eabi/9.2.1/../../../../arm-none-eabi/lib/thumb/v7-m/nofp\libc.a(lib_a-dtoa.o)
 .ARM.attributes
                0x000008be       0x2d c:/program files (x86)/gnu tools arm embedded/9 2019-q4-major/bin/../lib/gcc/arm-none-eabi/9.2.1/../../../../arm-none-eabi/lib/thumb/v7-m/nofp\libc.a(lib_a-localeconv.o)
 .ARM.attributes
                0x000008eb       0x2d c:/program files (x86)/gnu tools arm embedded/9 2019-q4-major/bin/../lib/gcc/arm-none-eabi/9.2.1/../../../../arm-none-eabi/lib/thumb/v7-m/nofp\libc.a(lib_a-memchr-stub.o)
 .ARM.attributes
                0x00000918       0x2d c:/program files (x86)/gnu tools arm embedded/9 2019-q4-major/bin/../lib/gcc/arm-none-eabi/9.2.1/../../../../arm-none-eabi/lib/thumb/v7-m/nofp\libc.a(lib_a-mprec.o)
 .ARM.attributes
                0x00000945       0x2d c:/program files (x86)/gnu tools arm embedded/9 2019-q4-major/bin/../lib/gcc/arm-none-eabi/9.2.1/../../../../arm-none-eabi/lib/thumb/v7-m/nofp\libc.a(lib_a-s_frexp.o)
 .ARM.attributes
                0x00000972       0x2d c:/program files (x86)/gnu tools arm embedded/9 2019-q4-major/bin/../lib/gcc/arm-none-eabi/9.2.1/../../../../arm-none-eabi/lib/thumb/v7-m/nofp\libc.a(lib_a-strncpy.o)
 .ARM.attributes
                0x0000099f       0x2d c:/program files (x86)/gnu tools arm embedded/9 2019-q4-major/bin/../lib/gcc/arm-none-eabi/9.2.1/../../../../arm-none-eabi/lib/thumb/v7-m/nofp\libc.a(lib_a-svfiprintf.o)
 .ARM.attributes
                0x000009cc       0x2d c:/program files (x86)/gnu tools arm embedded/9 2019-q4-major/bin/../lib/gcc/arm-none-eabi/9.2.1/../../../../arm-none-eabi/lib/thumb/v7-m/nofp\libc.a(lib_a-callocr.o)
 .ARM.attributes
                0x000009f9       0x2d c:/program files (x86)/gnu tools arm embedded/9 2019-q4-major/bin/../lib/gcc/arm-none-eabi/9.2.1/../../../../arm-none-eabi/lib/thumb/v7-m/nofp\libc.a(lib_a-locale.o)
 .ARM.attributes
                0x00000a26       0x2d c:/program files (x86)/gnu tools arm embedded/9 2019-q4-major/bin/../lib/gcc/arm-none-eabi/9.2.1/../../../../arm-none-eabi/lib/thumb/v7-m/nofp\libc.a(lib_a-mbtowc_r.o)
 .ARM.attributes
                0x00000a53       0x2d c:/program files (x86)/gnu tools arm embedded/9 2019-q4-major/bin/../lib/gcc/arm-none-eabi/9.2.1/../../../../arm-none-eabi/lib/thumb/v7-m/nofp\libc.a(lib_a-memmove.o)
 .ARM.attributes
                0x00000a80       0x2d c:/program files (x86)/gnu tools arm embedded/9 2019-q4-major/bin/../lib/gcc/arm-none-eabi/9.2.1/../../../../arm-none-eabi/lib/thumb/v7-m/nofp\libc.a(lib_a-reallocr.o)
 .ARM.attributes
                0x00000aad       0x1b c:/program files (x86)/gnu tools arm embedded/9 2019-q4-major/bin/../lib/gcc/arm-none-eabi/9.2.1/../../../../arm-none-eabi/lib/thumb/v7-m/nofp\libc.a(lib_a-strcmp.o)
 .ARM.attributes
                0x00000ac8       0x2d c:/program files (x86)/gnu tools arm embedded/9 2019-q4-major/bin/../lib/gcc/arm-none-eabi/9.2.1/../../../../arm-none-eabi/lib/thumb/v7-m/nofp\libc.a(lib_a-wctomb_r.o)
 .ARM.attributes
                0x00000af5       0x2d c:/program files (x86)/gnu tools arm embedded/9 2019-q4-major/bin/../lib/gcc/arm-none-eabi/9.2.1/../../../../arm-none-eabi/lib/thumb/v7-m/nofp\libm.a(lib_a-w_sqrt.o)
 .ARM.attributes
                0x00000b22       0x2d c:/program files (x86)/gnu tools arm embedded/9 2019-q4-major/bin/../lib/gcc/arm-none-eabi/9.2.1/../../../../arm-none-eabi/lib/thumb/v7-m/nofp\libm.a(lib_a-e_sqrt.o)
 .ARM.attributes
                0x00000b4f       0x2d c:/program files (x86)/gnu tools arm embedded/9 2019-q4-major/bin/../lib/gcc/arm-none-eabi/9.2.1/../../../../arm-none-eabi/lib/thumb/v7-m/nofp\libm.a(lib_a-s_lib_ver.o)
 .ARM.attributes
                0x00000b7c       0x2d c:/program files (x86)/gnu tools arm embedded/9 2019-q4-major/bin/../lib/gcc/arm-none-eabi/9.2.1/../../../../arm-none-eabi/lib/thumb/v7-m/nofp\libm.a(lib_a-s_matherr.o)
 .ARM.attributes
                0x00000ba9       0x1d c:/program files (x86)/gnu tools arm embedded/9 2019-q4-major/bin/../lib/gcc/arm-none-eabi/9.2.1/thumb/v7-m/nofp\libgcc.a(_arm_muldf3.o)
 .ARM.attributes
                0x00000bc6       0x1d c:/program files (x86)/gnu tools arm embedded/9 2019-q4-major/bin/../lib/gcc/arm-none-eabi/9.2.1/thumb/v7-m/nofp\libgcc.a(_arm_mulsf3.o)
 .ARM.attributes
                0x00000be3       0x1d c:/program files (x86)/gnu tools arm embedded/9 2019-q4-major/bin/../lib/gcc/arm-none-eabi/9.2.1/thumb/v7-m/nofp\libgcc.a(_arm_addsubdf3.o)
 .ARM.attributes
                0x00000c00       0x1d c:/program files (x86)/gnu tools arm embedded/9 2019-q4-major/bin/../lib/gcc/arm-none-eabi/9.2.1/thumb/v7-m/nofp\libgcc.a(_arm_muldivdf3.o)
 .ARM.attributes
                0x00000c1d       0x1d c:/program files (x86)/gnu tools arm embedded/9 2019-q4-major/bin/../lib/gcc/arm-none-eabi/9.2.1/thumb/v7-m/nofp\libgcc.a(_arm_cmpdf2.o)
 .ARM.attributes
                0x00000c3a       0x1d c:/program files (x86)/gnu tools arm embedded/9 2019-q4-major/bin/../lib/gcc/arm-none-eabi/9.2.1/thumb/v7-m/nofp\libgcc.a(_arm_unorddf2.o)
 .ARM.attributes
                0x00000c57       0x1d c:/program files (x86)/gnu tools arm embedded/9 2019-q4-major/bin/../lib/gcc/arm-none-eabi/9.2.1/thumb/v7-m/nofp\libgcc.a(_arm_fixdfsi.o)
 .ARM.attributes
                0x00000c74       0x1d c:/program files (x86)/gnu tools arm embedded/9 2019-q4-major/bin/../lib/gcc/arm-none-eabi/9.2.1/thumb/v7-m/nofp\libgcc.a(_arm_fixunsdfsi.o)
 .ARM.attributes
                0x00000c91       0x1d c:/program files (x86)/gnu tools arm embedded/9 2019-q4-major/bin/../lib/gcc/arm-none-eabi/9.2.1/thumb/v7-m/nofp\libgcc.a(_arm_addsubsf3.o)
 .ARM.attributes
                0x00000cae       0x1d c:/program files (x86)/gnu tools arm embedded/9 2019-q4-major/bin/../lib/gcc/arm-none-eabi/9.2.1/thumb/v7-m/nofp\libgcc.a(_arm_muldivsf3.o)
 .ARM.attributes
                0x00000ccb       0x1d c:/program files (x86)/gnu tools arm embedded/9 2019-q4-major/bin/../lib/gcc/arm-none-eabi/9.2.1/thumb/v7-m/nofp\libgcc.a(_arm_cmpsf2.o)
 .ARM.attributes
                0x00000ce8       0x1d c:/program files (x86)/gnu tools arm embedded/9 2019-q4-major/bin/../lib/gcc/arm-none-eabi/9.2.1/thumb/v7-m/nofp\libgcc.a(_arm_fixunssfsi.o)
 .ARM.attributes
                0x00000d05       0x1d c:/program files (x86)/gnu tools arm embedded/9 2019-q4-major/bin/../lib/gcc/arm-none-eabi/9.2.1/thumb/v7-m/nofp\libgcc.a(_aeabi_uldivmod.o)
 .ARM.attributes
                0x00000d22       0x2d c:/program files (x86)/gnu tools arm embedded/9 2019-q4-major/bin/../lib/gcc/arm-none-eabi/9.2.1/thumb/v7-m/nofp\libgcc.a(_udivmoddi4.o)
 .ARM.attributes
                0x00000d4f       0x1d c:/program files (x86)/gnu tools arm embedded/9 2019-q4-major/bin/../lib/gcc/arm-none-eabi/9.2.1/thumb/v7-m/nofp\libgcc.a(_dvmd_tls.o)
 *(.gnu.attributes)

.note.gnu.arm.ident
 *(.note.gnu.arm.ident)

/DISCARD/
 *(.note.GNU-stack)
 *(.gnu_debuglink)
                0x00000800                __Stack_Size = 0x800
                [!provide]                PROVIDE (_Stack_Size = __Stack_Size)
                0x2000f800                __Stack_Init = (_estack - __Stack_Size)
                [!provide]                PROVIDE (_Stack_Init = __Stack_Init)
OUTPUT(FLASH_RUN/stm32f103ve_mp3.elf elf32-littlearm)

Cross Reference Table

Symbol                                            File
ADC1_2_IRQHandler                                 /project/stm32fx_lib/stm32f1x_iolib/stm32f1x_iolib_hd_st32_8MHz.a(startup.o)
ADC3_IRQHandler                                   /project/stm32fx_lib/stm32f1x_iolib/stm32f1x_iolib_hd_st32_8MHz.a(startup.o)
ADC_AnalogWatchdogCmd                             /project/stm32fx_lib/stm32f1x_iolib/stm32f1x_iolib_hd_st32_8MHz.a(adc.o)
ADC_AnalogWatchdogSingleChannelConfig             /project/stm32fx_lib/stm32f1x_iolib/stm32f1x_iolib_hd_st32_8MHz.a(adc.o)
ADC_AnalogWatchdogThresholdsConfig                /project/stm32fx_lib/stm32f1x_iolib/stm32f1x_iolib_hd_st32_8MHz.a(adc.o)
ADC_AutoInjectedConvCmd                           /project/stm32fx_lib/stm32f1x_iolib/stm32f1x_iolib_hd_st32_8MHz.a(adc.o)
ADC_ClearFlag                                     /project/stm32fx_lib/stm32f1x_iolib/stm32f1x_iolib_hd_st32_8MHz.a(adc.o)
                                                  FLASH_RUN/main.o
ADC_ClearITPendingBit                             /project/stm32fx_lib/stm32f1x_iolib/stm32f1x_iolib_hd_st32_8MHz.a(adc.o)
ADC_Cmd                                           /project/stm32fx_lib/stm32f1x_iolib/stm32f1x_iolib_hd_st32_8MHz.a(adc.o)
                                                  FLASH_RUN/main.o
ADC_DMACmd                                        /project/stm32fx_lib/stm32f1x_iolib/stm32f1x_iolib_hd_st32_8MHz.a(adc.o)
ADC_DeInit                                        /project/stm32fx_lib/stm32f1x_iolib/stm32f1x_iolib_hd_st32_8MHz.a(adc.o)
                                                  FLASH_RUN/main.o
ADC_DiscModeChannelCountConfig                    /project/stm32fx_lib/stm32f1x_iolib/stm32f1x_iolib_hd_st32_8MHz.a(adc.o)
ADC_DiscModeCmd                                   /project/stm32fx_lib/stm32f1x_iolib/stm32f1x_iolib_hd_st32_8MHz.a(adc.o)
ADC_ExternalTrigConvCmd                           /project/stm32fx_lib/stm32f1x_iolib/stm32f1x_iolib_hd_st32_8MHz.a(adc.o)
ADC_ExternalTrigInjectedConvCmd                   /project/stm32fx_lib/stm32f1x_iolib/stm32f1x_iolib_hd_st32_8MHz.a(adc.o)
                                                  FLASH_RUN/main.o
ADC_ExternalTrigInjectedConvConfig                /project/stm32fx_lib/stm32f1x_iolib/stm32f1x_iolib_hd_st32_8MHz.a(adc.o)
                                                  FLASH_RUN/main.o
ADC_GetCalibrationStatus                          /project/stm32fx_lib/stm32f1x_iolib/stm32f1x_iolib_hd_st32_8MHz.a(adc.o)
                                                  FLASH_RUN/main.o
ADC_GetConversionValue                            /project/stm32fx_lib/stm32f1x_iolib/stm32f1x_iolib_hd_st32_8MHz.a(adc.o)
ADC_GetDualModeConversionValue                    /project/stm32fx_lib/stm32f1x_iolib/stm32f1x_iolib_hd_st32_8MHz.a(adc.o)
ADC_GetFlagStatus                                 /project/stm32fx_lib/stm32f1x_iolib/stm32f1x_iolib_hd_st32_8MHz.a(adc.o)
                                                  FLASH_RUN/main.o
ADC_GetITStatus                                   /project/stm32fx_lib/stm32f1x_iolib/stm32f1x_iolib_hd_st32_8MHz.a(adc.o)
ADC_GetInjectedConversionValue                    /project/stm32fx_lib/stm32f1x_iolib/stm32f1x_iolib_hd_st32_8MHz.a(adc.o)
                                                  FLASH_RUN/main.o
ADC_GetResetCalibrationStatus                     /project/stm32fx_lib/stm32f1x_iolib/stm32f1x_iolib_hd_st32_8MHz.a(adc.o)
ADC_GetSoftwareStartConvStatus                    /project/stm32fx_lib/stm32f1x_iolib/stm32f1x_iolib_hd_st32_8MHz.a(adc.o)
ADC_GetSoftwareStartInjectedConvCmdStatus         /project/stm32fx_lib/stm32f1x_iolib/stm32f1x_iolib_hd_st32_8MHz.a(adc.o)
ADC_ITConfig                                      /project/stm32fx_lib/stm32f1x_iolib/stm32f1x_iolib_hd_st32_8MHz.a(adc.o)
ADC_Init                                          /project/stm32fx_lib/stm32f1x_iolib/stm32f1x_iolib_hd_st32_8MHz.a(adc.o)
                                                  FLASH_RUN/main.o
ADC_InjectedChannelConfig                         /project/stm32fx_lib/stm32f1x_iolib/stm32f1x_iolib_hd_st32_8MHz.a(adc.o)
                                                  FLASH_RUN/main.o
ADC_InjectedDiscModeCmd                           /project/stm32fx_lib/stm32f1x_iolib/stm32f1x_iolib_hd_st32_8MHz.a(adc.o)
ADC_InjectedSequencerLengthConfig                 /project/stm32fx_lib/stm32f1x_iolib/stm32f1x_iolib_hd_st32_8MHz.a(adc.o)
                                                  FLASH_RUN/main.o
ADC_RegularChannelConfig                          /project/stm32fx_lib/stm32f1x_iolib/stm32f1x_iolib_hd_st32_8MHz.a(adc.o)
ADC_ResetCalibration                              /project/stm32fx_lib/stm32f1x_iolib/stm32f1x_iolib_hd_st32_8MHz.a(adc.o)
ADC_SetInjectedOffset                             /project/stm32fx_lib/stm32f1x_iolib/stm32f1x_iolib_hd_st32_8MHz.a(adc.o)
ADC_SoftwareStartConvCmd                          /project/stm32fx_lib/stm32f1x_iolib/stm32f1x_iolib_hd_st32_8MHz.a(adc.o)
ADC_SoftwareStartInjectedConvCmd                  /project/stm32fx_lib/stm32f1x_iolib/stm32f1x_iolib_hd_st32_8MHz.a(adc.o)
                                                  FLASH_RUN/main.o
ADC_StartCalibration                              /project/stm32fx_lib/stm32f1x_iolib/stm32f1x_iolib_hd_st32_8MHz.a(adc.o)
                                                  FLASH_RUN/main.o
ADC_StructInit                                    /project/stm32fx_lib/stm32f1x_iolib/stm32f1x_iolib_hd_st32_8MHz.a(adc.o)
                                                  FLASH_RUN/main.o
ADC_TempSensorVrefintCmd                          /project/stm32fx_lib/stm32f1x_iolib/stm32f1x_iolib_hd_st32_8MHz.a(adc.o)
AHBPrescTable                                     /project/stm32fx_lib/stm32f1x_iolib/stm32f1x_iolib_hd_st32_8MHz.a(system.o)
BKP_ClearFlag                                     /project/stm32fx_lib/stm32f1x_iolib/stm32f1x_iolib_hd_st32_8MHz.a(bkp.o)
                                                  FLASH_RUN/time.o
BKP_ClearITPendingBit                             /project/stm32fx_lib/stm32f1x_iolib/stm32f1x_iolib_hd_st32_8MHz.a(bkp.o)
BKP_DeInit                                        /project/stm32fx_lib/stm32f1x_iolib/stm32f1x_iolib_hd_st32_8MHz.a(bkp.o)
                                                  FLASH_RUN/time.o
BKP_GetFlagStatus                                 /project/stm32fx_lib/stm32f1x_iolib/stm32f1x_iolib_hd_st32_8MHz.a(bkp.o)
BKP_GetITStatus                                   /project/stm32fx_lib/stm32f1x_iolib/stm32f1x_iolib_hd_st32_8MHz.a(bkp.o)
BKP_ITConfig                                      /project/stm32fx_lib/stm32f1x_iolib/stm32f1x_iolib_hd_st32_8MHz.a(bkp.o)
                                                  FLASH_RUN/time.o
BKP_RTCOutputConfig                               /project/stm32fx_lib/stm32f1x_iolib/stm32f1x_iolib_hd_st32_8MHz.a(bkp.o)
BKP_ReadBackupRegister                            /project/stm32fx_lib/stm32f1x_iolib/stm32f1x_iolib_hd_st32_8MHz.a(bkp.o)
                                                  FLASH_RUN/time.o
BKP_SetRTCCalibrationValue                        /project/stm32fx_lib/stm32f1x_iolib/stm32f1x_iolib_hd_st32_8MHz.a(bkp.o)
BKP_TamperPinCmd                                  /project/stm32fx_lib/stm32f1x_iolib/stm32f1x_iolib_hd_st32_8MHz.a(bkp.o)
                                                  FLASH_RUN/time.o
BKP_TamperPinLevelConfig                          /project/stm32fx_lib/stm32f1x_iolib/stm32f1x_iolib_hd_st32_8MHz.a(bkp.o)
BKP_WriteBackupRegister                           /project/stm32fx_lib/stm32f1x_iolib/stm32f1x_iolib_hd_st32_8MHz.a(bkp.o)
                                                  FLASH_RUN/time.o
BusFault_Handler                                  /project/stm32fx_lib/stm32f1x_iolib/stm32f1x_iolib_hd_st32_8MHz.a(startup.o)
CAN1_RX1_IRQHandler                               /project/stm32fx_lib/stm32f1x_iolib/stm32f1x_iolib_hd_st32_8MHz.a(startup.o)
CAN1_SCE_IRQHandler                               /project/stm32fx_lib/stm32f1x_iolib/stm32f1x_iolib_hd_st32_8MHz.a(startup.o)
DMA1_Channel1_IRQHandler                          /project/stm32fx_lib/stm32f1x_iolib/stm32f1x_iolib_hd_st32_8MHz.a(startup.o)
DMA1_Channel2_IRQHandler                          /project/stm32fx_lib/stm32f1x_iolib/stm32f1x_iolib_hd_st32_8MHz.a(startup.o)
DMA1_Channel3_IRQHandler                          /project/stm32fx_lib/stm32f1x_iolib/stm32f1x_iolib_hd_st32_8MHz.a(startup.o)
DMA1_Channel4_IRQHandler                          /project/stm32fx_lib/stm32f1x_iolib/stm32f1x_iolib_hd_st32_8MHz.a(startup.o)
DMA1_Channel5_IRQHandler                          /project/stm32fx_lib/stm32f1x_iolib/stm32f1x_iolib_hd_st32_8MHz.a(startup.o)
DMA1_Channel6_IRQHandler                          /project/stm32fx_lib/stm32f1x_iolib/stm32f1x_iolib_hd_st32_8MHz.a(startup.o)
DMA1_Channel7_IRQHandler                          /project/stm32fx_lib/stm32f1x_iolib/stm32f1x_iolib_hd_st32_8MHz.a(startup.o)
DMA2_Channel1_IRQHandler                          /project/stm32fx_lib/stm32f1x_iolib/stm32f1x_iolib_hd_st32_8MHz.a(startup.o)
DMA2_Channel2_IRQHandler                          /project/stm32fx_lib/stm32f1x_iolib/stm32f1x_iolib_hd_st32_8MHz.a(startup.o)
DMA2_Channel3_IRQHandler                          /project/stm32fx_lib/stm32f1x_iolib/stm32f1x_iolib_hd_st32_8MHz.a(startup.o)
DMA2_Channel4_5_IRQHandler                        /project/stm32fx_lib/stm32f1x_iolib/stm32f1x_iolib_hd_st32_8MHz.a(startup.o)
DebugMon_Handler                                  /project/stm32fx_lib/stm32f1x_iolib/stm32f1x_iolib_hd_st32_8MHz.a(startup.o)
Default_Handler                                   /project/stm32fx_lib/stm32f1x_iolib/stm32f1x_iolib_hd_st32_8MHz.a(startup.o)
EXTI0_IRQHandler                                  /project/stm32fx_lib/stm32f1x_iolib/stm32f1x_iolib_hd_st32_8MHz.a(startup.o)
EXTI15_10_IRQHandler                              /project/stm32fx_lib/stm32f1x_iolib/stm32f1x_iolib_hd_st32_8MHz.a(startup.o)
EXTI1_IRQHandler                                  /project/stm32fx_lib/stm32f1x_iolib/stm32f1x_iolib_hd_st32_8MHz.a(startup.o)
EXTI2_IRQHandler                                  /project/stm32fx_lib/stm32f1x_iolib/stm32f1x_iolib_hd_st32_8MHz.a(startup.o)
EXTI3_IRQHandler                                  /project/stm32fx_lib/stm32f1x_iolib/stm32f1x_iolib_hd_st32_8MHz.a(startup.o)
EXTI4_IRQHandler                                  FLASH_RUN/ads7843.o
EXTI9_5_IRQHandler                                /project/stm32fx_lib/stm32f1x_iolib/stm32f1x_iolib_hd_st32_8MHz.a(startup.o)
EXTI_ClearFlag                                    /project/stm32fx_lib/stm32f1x_iolib/stm32f1x_iolib_hd_st32_8MHz.a(exti.o)
                                                  FLASH_RUN/ads7843.o
EXTI_ClearITPendingBit                            /project/stm32fx_lib/stm32f1x_iolib/stm32f1x_iolib_hd_st32_8MHz.a(exti.o)
                                                  FLASH_RUN/ads7843.o
EXTI_DeInit                                       /project/stm32fx_lib/stm32f1x_iolib/stm32f1x_iolib_hd_st32_8MHz.a(exti.o)
EXTI_GenerateSWInterrupt                          /project/stm32fx_lib/stm32f1x_iolib/stm32f1x_iolib_hd_st32_8MHz.a(exti.o)
EXTI_GetFlagStatus                                /project/stm32fx_lib/stm32f1x_iolib/stm32f1x_iolib_hd_st32_8MHz.a(exti.o)
EXTI_GetITStatus                                  /project/stm32fx_lib/stm32f1x_iolib/stm32f1x_iolib_hd_st32_8MHz.a(exti.o)
                                                  FLASH_RUN/ads7843.o
EXTI_Init                                         /project/stm32fx_lib/stm32f1x_iolib/stm32f1x_iolib_hd_st32_8MHz.a(exti.o)
                                                  FLASH_RUN/ads7843.o
EXTI_StructInit                                   /project/stm32fx_lib/stm32f1x_iolib/stm32f1x_iolib_hd_st32_8MHz.a(exti.o)
FLASHStatus                                       FLASH_RUN/main.o
FLASH_ClearFlag                                   /project/stm32fx_lib/stm32f1x_iolib/stm32f1x_iolib_hd_st32_8MHz.a(flash.o)
FLASH_EnableWriteProtection                       /project/stm32fx_lib/stm32f1x_iolib/stm32f1x_iolib_hd_st32_8MHz.a(flash.o)
FLASH_EraseAllBank1Pages                          /project/stm32fx_lib/stm32f1x_iolib/stm32f1x_iolib_hd_st32_8MHz.a(flash.o)
FLASH_EraseAllPages                               /project/stm32fx_lib/stm32f1x_iolib/stm32f1x_iolib_hd_st32_8MHz.a(flash.o)
FLASH_EraseOptionBytes                            /project/stm32fx_lib/stm32f1x_iolib/stm32f1x_iolib_hd_st32_8MHz.a(flash.o)
                                                  FLASH_RUN/main.o
FLASH_ErasePage                                   /project/stm32fx_lib/stm32f1x_iolib/stm32f1x_iolib_hd_st32_8MHz.a(flash.o)
FLASH_GetBank1Status                              /project/stm32fx_lib/stm32f1x_iolib/stm32f1x_iolib_hd_st32_8MHz.a(flash.o)
FLASH_GetFlagStatus                               /project/stm32fx_lib/stm32f1x_iolib/stm32f1x_iolib_hd_st32_8MHz.a(flash.o)
FLASH_GetPrefetchBufferStatus                     /project/stm32fx_lib/stm32f1x_iolib/stm32f1x_iolib_hd_st32_8MHz.a(flash.o)
FLASH_GetReadOutProtectionStatus                  /project/stm32fx_lib/stm32f1x_iolib/stm32f1x_iolib_hd_st32_8MHz.a(flash.o)
                                                  FLASH_RUN/main.o
FLASH_GetStatus                                   /project/stm32fx_lib/stm32f1x_iolib/stm32f1x_iolib_hd_st32_8MHz.a(flash.o)
FLASH_GetUserOptionByte                           /project/stm32fx_lib/stm32f1x_iolib/stm32f1x_iolib_hd_st32_8MHz.a(flash.o)
FLASH_GetWriteProtectionOptionByte                /project/stm32fx_lib/stm32f1x_iolib/stm32f1x_iolib_hd_st32_8MHz.a(flash.o)
FLASH_HalfCycleAccessCmd                          /project/stm32fx_lib/stm32f1x_iolib/stm32f1x_iolib_hd_st32_8MHz.a(flash.o)
FLASH_IRQHandler                                  /project/stm32fx_lib/stm32f1x_iolib/stm32f1x_iolib_hd_st32_8MHz.a(startup.o)
FLASH_ITConfig                                    /project/stm32fx_lib/stm32f1x_iolib/stm32f1x_iolib_hd_st32_8MHz.a(flash.o)
FLASH_Lock                                        /project/stm32fx_lib/stm32f1x_iolib/stm32f1x_iolib_hd_st32_8MHz.a(flash.o)
                                                  FLASH_RUN/serial.o
                                                  FLASH_RUN/main.o
FLASH_LockBank1                                   /project/stm32fx_lib/stm32f1x_iolib/stm32f1x_iolib_hd_st32_8MHz.a(flash.o)
FLASH_PrefetchBufferCmd                           /project/stm32fx_lib/stm32f1x_iolib/stm32f1x_iolib_hd_st32_8MHz.a(flash.o)
FLASH_ProgramHalfWord                             /project/stm32fx_lib/stm32f1x_iolib/stm32f1x_iolib_hd_st32_8MHz.a(flash.o)
FLASH_ProgramOptionByteData                       /project/stm32fx_lib/stm32f1x_iolib/stm32f1x_iolib_hd_st32_8MHz.a(flash.o)
FLASH_ProgramWord                                 /project/stm32fx_lib/stm32f1x_iolib/stm32f1x_iolib_hd_st32_8MHz.a(flash.o)
FLASH_ReadOutProtection                           /project/stm32fx_lib/stm32f1x_iolib/stm32f1x_iolib_hd_st32_8MHz.a(flash.o)
                                                  FLASH_RUN/main.o
FLASH_SetLatency                                  /project/stm32fx_lib/stm32f1x_iolib/stm32f1x_iolib_hd_st32_8MHz.a(flash.o)
FLASH_Unlock                                      /project/stm32fx_lib/stm32f1x_iolib/stm32f1x_iolib_hd_st32_8MHz.a(flash.o)
                                                  FLASH_RUN/serial.o
                                                  FLASH_RUN/main.o
FLASH_UnlockBank1                                 /project/stm32fx_lib/stm32f1x_iolib/stm32f1x_iolib_hd_st32_8MHz.a(flash.o)
FLASH_UserOptionByteConfig                        /project/stm32fx_lib/stm32f1x_iolib/stm32f1x_iolib_hd_st32_8MHz.a(flash.o)
FLASH_WaitForLastBank1Operation                   /project/stm32fx_lib/stm32f1x_iolib/stm32f1x_iolib_hd_st32_8MHz.a(flash.o)
FLASH_WaitForLastOperation                        /project/stm32fx_lib/stm32f1x_iolib/stm32f1x_iolib_hd_st32_8MHz.a(flash.o)
FSMC_IRQHandler                                   /project/stm32fx_lib/stm32f1x_iolib/stm32f1x_iolib_hd_st32_8MHz.a(startup.o)
GPIO_AFIODeInit                                   /project/stm32fx_lib/stm32f1x_iolib/stm32f1x_iolib_hd_st32_8MHz.a(gpio.o)
GPIO_Configuration                                FLASH_RUN/main.o
GPIO_DeInit                                       /project/stm32fx_lib/stm32f1x_iolib/stm32f1x_iolib_hd_st32_8MHz.a(gpio.o)
GPIO_ETH_MediaInterfaceConfig                     /project/stm32fx_lib/stm32f1x_iolib/stm32f1x_iolib_hd_st32_8MHz.a(gpio.o)
GPIO_EXTILineConfig                               /project/stm32fx_lib/stm32f1x_iolib/stm32f1x_iolib_hd_st32_8MHz.a(gpio.o)
                                                  FLASH_RUN/ads7843.o
GPIO_EventOutputCmd                               /project/stm32fx_lib/stm32f1x_iolib/stm32f1x_iolib_hd_st32_8MHz.a(gpio.o)
GPIO_EventOutputConfig                            /project/stm32fx_lib/stm32f1x_iolib/stm32f1x_iolib_hd_st32_8MHz.a(gpio.o)
GPIO_Init                                         /project/stm32fx_lib/stm32f1x_iolib/stm32f1x_iolib_hd_st32_8MHz.a(gpio.o)
GPIO_Init_Pin                                     /project/stm32fx_lib/stm32f1x_iolib/stm32f1x_iolib_hd_st32_8MHz.a(gpio.o)
                                                  FLASH_RUN/vs1003.o
                                                  FLASH_RUN/sd_driver.o
                                                  FLASH_RUN/ads7843.o
                                                  FLASH_RUN/lcd.o
                                                  FLASH_RUN/serial.o
                                                  FLASH_RUN/main.o
GPIO_PinLockConfig                                /project/stm32fx_lib/stm32f1x_iolib/stm32f1x_iolib_hd_st32_8MHz.a(gpio.o)
GPIO_PinRemapConfig                               /project/stm32fx_lib/stm32f1x_iolib/stm32f1x_iolib_hd_st32_8MHz.a(gpio.o)
                                                  FLASH_RUN/serial.o
GPIO_ReadInputData                                /project/stm32fx_lib/stm32f1x_iolib/stm32f1x_iolib_hd_st32_8MHz.a(gpio.o)
GPIO_ReadInputDataBit                             /project/stm32fx_lib/stm32f1x_iolib/stm32f1x_iolib_hd_st32_8MHz.a(gpio.o)
GPIO_ReadOutputData                               /project/stm32fx_lib/stm32f1x_iolib/stm32f1x_iolib_hd_st32_8MHz.a(gpio.o)
GPIO_ReadOutputDataBit                            /project/stm32fx_lib/stm32f1x_iolib/stm32f1x_iolib_hd_st32_8MHz.a(gpio.o)
GPIO_ResetBits                                    /project/stm32fx_lib/stm32f1x_iolib/stm32f1x_iolib_hd_st32_8MHz.a(gpio.o)
                                                  FLASH_RUN/lcd.o
                                                  FLASH_RUN/main.o
GPIO_SetBits                                      /project/stm32fx_lib/stm32f1x_iolib/stm32f1x_iolib_hd_st32_8MHz.a(gpio.o)
                                                  FLASH_RUN/lcd.o
                                                  FLASH_RUN/main.o
GPIO_StructInit                                   /project/stm32fx_lib/stm32f1x_iolib/stm32f1x_iolib_hd_st32_8MHz.a(gpio.o)
GPIO_Write                                        /project/stm32fx_lib/stm32f1x_iolib/stm32f1x_iolib_hd_st32_8MHz.a(gpio.o)
GPIO_WriteBit                                     /project/stm32fx_lib/stm32f1x_iolib/stm32f1x_iolib_hd_st32_8MHz.a(gpio.o)
HardFault_Handler                                 /project/stm32fx_lib/stm32f1x_iolib/stm32f1x_iolib_hd_st32_8MHz.a(startup.o)
I2C1_ER_IRQHandler                                /project/stm32fx_lib/stm32f1x_iolib/stm32f1x_iolib_hd_st32_8MHz.a(startup.o)
I2C1_EV_IRQHandler                                /project/stm32fx_lib/stm32f1x_iolib/stm32f1x_iolib_hd_st32_8MHz.a(startup.o)
I2C2_ER_IRQHandler                                /project/stm32fx_lib/stm32f1x_iolib/stm32f1x_iolib_hd_st32_8MHz.a(startup.o)
I2C2_EV_IRQHandler                                /project/stm32fx_lib/stm32f1x_iolib/stm32f1x_iolib_hd_st32_8MHz.a(startup.o)
I2S_Cmd                                           /project/stm32fx_lib/stm32f1x_iolib/stm32f1x_iolib_hd_st32_8MHz.a(spi.o)
I2S_Init                                          /project/stm32fx_lib/stm32f1x_iolib/stm32f1x_iolib_hd_st32_8MHz.a(spi.o)
I2S_StructInit                                    /project/stm32fx_lib/stm32f1x_iolib/stm32f1x_iolib_hd_st32_8MHz.a(spi.o)
ID3V1_Buf                                         FLASH_RUN/mp3.o
IWDG_Enable                                       /project/stm32fx_lib/stm32f1x_iolib/stm32f1x_iolib_hd_st32_8MHz.a(iwdg.o)
IWDG_GetFlagStatus                                /project/stm32fx_lib/stm32f1x_iolib/stm32f1x_iolib_hd_st32_8MHz.a(iwdg.o)
IWDG_ReloadCounter                                /project/stm32fx_lib/stm32f1x_iolib/stm32f1x_iolib_hd_st32_8MHz.a(iwdg.o)
                                                  FLASH_RUN/time.o
IWDG_SetPrescaler                                 /project/stm32fx_lib/stm32f1x_iolib/stm32f1x_iolib_hd_st32_8MHz.a(iwdg.o)
IWDG_SetReload                                    /project/stm32fx_lib/stm32f1x_iolib/stm32f1x_iolib_hd_st32_8MHz.a(iwdg.o)
IWDG_WriteAccessCmd                               /project/stm32fx_lib/stm32f1x_iolib/stm32f1x_iolib_hd_st32_8MHz.a(iwdg.o)
KS_CODE                                           FLASH_RUN/lcd.o
MMI_Handler                                       /project/stm32fx_lib/stm32f1x_iolib/stm32f1x_iolib_hd_st32_8MHz.a(startup.o)
MemManage_Handler                                 /project/stm32fx_lib/stm32f1x_iolib/stm32f1x_iolib_hd_st32_8MHz.a(startup.o)
NMI_Handler                                       /project/stm32fx_lib/stm32f1x_iolib/stm32f1x_iolib_hd_st32_8MHz.a(startup.o)
NVIC_Configuration                                FLASH_RUN/main.o
NVIC_Init                                         /project/stm32fx_lib/stm32f1x_iolib/stm32f1x_iolib_hd_st32_8MHz.a(irq.o)
                                                  FLASH_RUN/time.o
                                                  FLASH_RUN/ads7843.o
                                                  FLASH_RUN/serial.o
                                                  FLASH_RUN/main.o
NVIC_PriorityGroupConfig                          /project/stm32fx_lib/stm32f1x_iolib/stm32f1x_iolib_hd_st32_8MHz.a(irq.o)
                                                  FLASH_RUN/main.o
NVIC_SetVectorTable                               /project/stm32fx_lib/stm32f1x_iolib/stm32f1x_iolib_hd_st32_8MHz.a(irq.o)
                                                  FLASH_RUN/main.o
NVIC_SystemLPConfig                               /project/stm32fx_lib/stm32f1x_iolib/stm32f1x_iolib_hd_st32_8MHz.a(irq.o)
PVD_IRQHandler                                    /project/stm32fx_lib/stm32f1x_iolib/stm32f1x_iolib_hd_st32_8MHz.a(startup.o)
PWR_BackupAccessCmd                               /project/stm32fx_lib/stm32f1x_iolib/stm32f1x_iolib_hd_st32_8MHz.a(pwr.o)
                                                  FLASH_RUN/time.o
PWR_ClearFlag                                     /project/stm32fx_lib/stm32f1x_iolib/stm32f1x_iolib_hd_st32_8MHz.a(pwr.o)
PWR_DeInit                                        /project/stm32fx_lib/stm32f1x_iolib/stm32f1x_iolib_hd_st32_8MHz.a(pwr.o)
PWR_EnterSTANDBYMode                              /project/stm32fx_lib/stm32f1x_iolib/stm32f1x_iolib_hd_st32_8MHz.a(pwr.o)
PWR_EnterSTOPMode                                 /project/stm32fx_lib/stm32f1x_iolib/stm32f1x_iolib_hd_st32_8MHz.a(pwr.o)
PWR_GetFlagStatus                                 /project/stm32fx_lib/stm32f1x_iolib/stm32f1x_iolib_hd_st32_8MHz.a(pwr.o)
PWR_PVDCmd                                        /project/stm32fx_lib/stm32f1x_iolib/stm32f1x_iolib_hd_st32_8MHz.a(pwr.o)
PWR_PVDLevelConfig                                /project/stm32fx_lib/stm32f1x_iolib/stm32f1x_iolib_hd_st32_8MHz.a(pwr.o)
PWR_WakeUpPinCmd                                  /project/stm32fx_lib/stm32f1x_iolib/stm32f1x_iolib_hd_st32_8MHz.a(pwr.o)
PendSV_Handler                                    /project/stm32fx_lib/stm32f1x_iolib/stm32f1x_iolib_hd_st32_8MHz.a(startup.o)
Periph_Configuration                              FLASH_RUN/main.o
RCC_ADCCLKConfig                                  /project/stm32fx_lib/stm32f1x_iolib/stm32f1x_iolib_hd_st32_8MHz.a(rcc.o)
                                                  FLASH_RUN/main.o
RCC_AHBPeriphClockCmd                             /project/stm32fx_lib/stm32f1x_iolib/stm32f1x_iolib_hd_st32_8MHz.a(rcc.o)
RCC_APB1PeriphClockCmd                            /project/stm32fx_lib/stm32f1x_iolib/stm32f1x_iolib_hd_st32_8MHz.a(rcc.o)
                                                  FLASH_RUN/time.o
                                                  FLASH_RUN/sd_driver.o
                                                  FLASH_RUN/main.o
RCC_APB1PeriphResetCmd                            /project/stm32fx_lib/stm32f1x_iolib/stm32f1x_iolib_hd_st32_8MHz.a(rcc.o)
                                                  /project/stm32fx_lib/stm32f1x_iolib/stm32f1x_iolib_hd_st32_8MHz.a(usart.o)
                                                  /project/stm32fx_lib/stm32f1x_iolib/stm32f1x_iolib_hd_st32_8MHz.a(timer.o)
                                                  /project/stm32fx_lib/stm32f1x_iolib/stm32f1x_iolib_hd_st32_8MHz.a(spi.o)
                                                  /project/stm32fx_lib/stm32f1x_iolib/stm32f1x_iolib_hd_st32_8MHz.a(pwr.o)
RCC_APB2PeriphClockCmd                            /project/stm32fx_lib/stm32f1x_iolib/stm32f1x_iolib_hd_st32_8MHz.a(rcc.o)
                                                  FLASH_RUN/main.o
RCC_APB2PeriphResetCmd                            /project/stm32fx_lib/stm32f1x_iolib/stm32f1x_iolib_hd_st32_8MHz.a(rcc.o)
                                                  /project/stm32fx_lib/stm32f1x_iolib/stm32f1x_iolib_hd_st32_8MHz.a(usart.o)
                                                  /project/stm32fx_lib/stm32f1x_iolib/stm32f1x_iolib_hd_st32_8MHz.a(timer.o)
                                                  /project/stm32fx_lib/stm32f1x_iolib/stm32f1x_iolib_hd_st32_8MHz.a(spi.o)
                                                  /project/stm32fx_lib/stm32f1x_iolib/stm32f1x_iolib_hd_st32_8MHz.a(gpio.o)
                                                  /project/stm32fx_lib/stm32f1x_iolib/stm32f1x_iolib_hd_st32_8MHz.a(adc.o)
RCC_AdjustHSICalibrationValue                     /project/stm32fx_lib/stm32f1x_iolib/stm32f1x_iolib_hd_st32_8MHz.a(rcc.o)
RCC_BackupResetCmd                                /project/stm32fx_lib/stm32f1x_iolib/stm32f1x_iolib_hd_st32_8MHz.a(rcc.o)
                                                  /project/stm32fx_lib/stm32f1x_iolib/stm32f1x_iolib_hd_st32_8MHz.a(bkp.o)
RCC_ClearFlag                                     /project/stm32fx_lib/stm32f1x_iolib/stm32f1x_iolib_hd_st32_8MHz.a(rcc.o)
RCC_ClearITPendingBit                             /project/stm32fx_lib/stm32f1x_iolib/stm32f1x_iolib_hd_st32_8MHz.a(rcc.o)
RCC_ClockSecuritySystemCmd                        /project/stm32fx_lib/stm32f1x_iolib/stm32f1x_iolib_hd_st32_8MHz.a(rcc.o)
RCC_DeInit                                        /project/stm32fx_lib/stm32f1x_iolib/stm32f1x_iolib_hd_st32_8MHz.a(rcc.o)
RCC_GetClocksFreq                                 /project/stm32fx_lib/stm32f1x_iolib/stm32f1x_iolib_hd_st32_8MHz.a(rcc.o)
                                                  /project/stm32fx_lib/stm32f1x_iolib/stm32f1x_iolib_hd_st32_8MHz.a(usart.o)
                                                  /project/stm32fx_lib/stm32f1x_iolib/stm32f1x_iolib_hd_st32_8MHz.a(spi.o)
RCC_GetFlagStatus                                 /project/stm32fx_lib/stm32f1x_iolib/stm32f1x_iolib_hd_st32_8MHz.a(rcc.o)
                                                  FLASH_RUN/time.o
RCC_GetITStatus                                   /project/stm32fx_lib/stm32f1x_iolib/stm32f1x_iolib_hd_st32_8MHz.a(rcc.o)
RCC_GetSYSCLKSource                               /project/stm32fx_lib/stm32f1x_iolib/stm32f1x_iolib_hd_st32_8MHz.a(rcc.o)
RCC_HCLKConfig                                    /project/stm32fx_lib/stm32f1x_iolib/stm32f1x_iolib_hd_st32_8MHz.a(rcc.o)
RCC_HSEConfig                                     /project/stm32fx_lib/stm32f1x_iolib/stm32f1x_iolib_hd_st32_8MHz.a(rcc.o)
RCC_HSICmd                                        /project/stm32fx_lib/stm32f1x_iolib/stm32f1x_iolib_hd_st32_8MHz.a(rcc.o)
RCC_IRQHandler                                    /project/stm32fx_lib/stm32f1x_iolib/stm32f1x_iolib_hd_st32_8MHz.a(startup.o)
RCC_ITConfig                                      /project/stm32fx_lib/stm32f1x_iolib/stm32f1x_iolib_hd_st32_8MHz.a(rcc.o)
RCC_LSEConfig                                     /project/stm32fx_lib/stm32f1x_iolib/stm32f1x_iolib_hd_st32_8MHz.a(rcc.o)
                                                  FLASH_RUN/time.o
RCC_LSICmd                                        /project/stm32fx_lib/stm32f1x_iolib/stm32f1x_iolib_hd_st32_8MHz.a(rcc.o)
RCC_MCOConfig                                     /project/stm32fx_lib/stm32f1x_iolib/stm32f1x_iolib_hd_st32_8MHz.a(rcc.o)
RCC_PCLK1Config                                   /project/stm32fx_lib/stm32f1x_iolib/stm32f1x_iolib_hd_st32_8MHz.a(rcc.o)
RCC_PCLK2Config                                   /project/stm32fx_lib/stm32f1x_iolib/stm32f1x_iolib_hd_st32_8MHz.a(rcc.o)
RCC_PLLCmd                                        /project/stm32fx_lib/stm32f1x_iolib/stm32f1x_iolib_hd_st32_8MHz.a(rcc.o)
RCC_PLLConfig                                     /project/stm32fx_lib/stm32f1x_iolib/stm32f1x_iolib_hd_st32_8MHz.a(rcc.o)
RCC_RTCCLKCmd                                     /project/stm32fx_lib/stm32f1x_iolib/stm32f1x_iolib_hd_st32_8MHz.a(rcc.o)
                                                  FLASH_RUN/time.o
RCC_RTCCLKConfig                                  /project/stm32fx_lib/stm32f1x_iolib/stm32f1x_iolib_hd_st32_8MHz.a(rcc.o)
                                                  FLASH_RUN/time.o
RCC_SYSCLKConfig                                  /project/stm32fx_lib/stm32f1x_iolib/stm32f1x_iolib_hd_st32_8MHz.a(rcc.o)
RCC_USBCLKConfig                                  /project/stm32fx_lib/stm32f1x_iolib/stm32f1x_iolib_hd_st32_8MHz.a(rcc.o)
RCC_WaitForHSEStartUp                             /project/stm32fx_lib/stm32f1x_iolib/stm32f1x_iolib_hd_st32_8MHz.a(rcc.o)
RTCAlarm_IRQHandler                               /project/stm32fx_lib/stm32f1x_iolib/stm32f1x_iolib_hd_st32_8MHz.a(startup.o)
RTC_ClearFlag                                     /project/stm32fx_lib/stm32f1x_iolib/stm32f1x_iolib_hd_st32_8MHz.a(rtc.o)
RTC_ClearITPendingBit                             /project/stm32fx_lib/stm32f1x_iolib/stm32f1x_iolib_hd_st32_8MHz.a(rtc.o)
                                                  FLASH_RUN/time.o
RTC_EnterConfigMode                               /project/stm32fx_lib/stm32f1x_iolib/stm32f1x_iolib_hd_st32_8MHz.a(rtc.o)
RTC_ExitConfigMode                                /project/stm32fx_lib/stm32f1x_iolib/stm32f1x_iolib_hd_st32_8MHz.a(rtc.o)
RTC_GetCounter                                    /project/stm32fx_lib/stm32f1x_iolib/stm32f1x_iolib_hd_st32_8MHz.a(rtc.o)
                                                  FLASH_RUN/time.o
RTC_GetDivider                                    /project/stm32fx_lib/stm32f1x_iolib/stm32f1x_iolib_hd_st32_8MHz.a(rtc.o)
RTC_GetFlagStatus                                 /project/stm32fx_lib/stm32f1x_iolib/stm32f1x_iolib_hd_st32_8MHz.a(rtc.o)
RTC_GetITStatus                                   /project/stm32fx_lib/stm32f1x_iolib/stm32f1x_iolib_hd_st32_8MHz.a(rtc.o)
                                                  FLASH_RUN/time.o
RTC_IRQHandler                                    FLASH_RUN/time.o
RTC_ITConfig                                      /project/stm32fx_lib/stm32f1x_iolib/stm32f1x_iolib_hd_st32_8MHz.a(rtc.o)
                                                  FLASH_RUN/time.o
RTC_SetAlarm                                      /project/stm32fx_lib/stm32f1x_iolib/stm32f1x_iolib_hd_st32_8MHz.a(rtc.o)
RTC_SetCounter                                    /project/stm32fx_lib/stm32f1x_iolib/stm32f1x_iolib_hd_st32_8MHz.a(rtc.o)
                                                  FLASH_RUN/time.o
RTC_SetPrescaler                                  /project/stm32fx_lib/stm32f1x_iolib/stm32f1x_iolib_hd_st32_8MHz.a(rtc.o)
                                                  FLASH_RUN/time.o
RTC_WaitForLastTask                               /project/stm32fx_lib/stm32f1x_iolib/stm32f1x_iolib_hd_st32_8MHz.a(rtc.o)
                                                  FLASH_RUN/time.o
RTC_WaitForSynchro                                /project/stm32fx_lib/stm32f1x_iolib/stm32f1x_iolib_hd_st32_8MHz.a(rtc.o)
                                                  FLASH_RUN/time.o
Reset_Handler                                     /project/stm32fx_lib/stm32f1x_iolib/stm32f1x_iolib_hd_st32_8MHz.a(startup.o)
SDIO_IRQHandler                                   /project/stm32fx_lib/stm32f1x_iolib/stm32f1x_iolib_hd_st32_8MHz.a(startup.o)
SD_get_capacity                                   FLASH_RUN/sd_driver.o
                                                  FLASH_RUN/diskio.o
SD_get_cid                                        FLASH_RUN/sd_driver.o
SD_get_csd                                        FLASH_RUN/sd_driver.o
SD_init                                           FLASH_RUN/sd_driver.o
                                                  FLASH_RUN/mp3.o
                                                  FLASH_RUN/diskio.o
SD_read_multi_block                               FLASH_RUN/sd_driver.o
                                                  FLASH_RUN/diskio.o
SD_read_single_block                              FLASH_RUN/sd_driver.o
                                                  FLASH_RUN/diskio.o
SD_receive_data                                   FLASH_RUN/sd_driver.o
SD_send_command                                   FLASH_RUN/sd_driver.o
SD_send_command_no_deassert                       FLASH_RUN/sd_driver.o
SD_type                                           FLASH_RUN/sd_driver.o
SD_wait_ready                                     FLASH_RUN/sd_driver.o
                                                  FLASH_RUN/diskio.o
SD_write_multi_block                              FLASH_RUN/sd_driver.o
                                                  FLASH_RUN/diskio.o
SD_write_single_block                             FLASH_RUN/sd_driver.o
                                                  FLASH_RUN/diskio.o
SPI1_IRQHandler                                   /project/stm32fx_lib/stm32f1x_iolib/stm32f1x_iolib_hd_st32_8MHz.a(startup.o)
SPI2_IRQHandler                                   /project/stm32fx_lib/stm32f1x_iolib/stm32f1x_iolib_hd_st32_8MHz.a(startup.o)
SPI3_IRQHandler                                   /project/stm32fx_lib/stm32f1x_iolib/stm32f1x_iolib_hd_st32_8MHz.a(startup.o)
SPI_BiDirectionalLineConfig                       /project/stm32fx_lib/stm32f1x_iolib/stm32f1x_iolib_hd_st32_8MHz.a(spi.o)
SPI_CalculateCRC                                  /project/stm32fx_lib/stm32f1x_iolib/stm32f1x_iolib_hd_st32_8MHz.a(spi.o)
SPI_Cmd                                           /project/stm32fx_lib/stm32f1x_iolib/stm32f1x_iolib_hd_st32_8MHz.a(spi.o)
                                                  FLASH_RUN/sd_driver.o
SPI_DataSizeConfig                                /project/stm32fx_lib/stm32f1x_iolib/stm32f1x_iolib_hd_st32_8MHz.a(spi.o)
SPI_GetCRC                                        /project/stm32fx_lib/stm32f1x_iolib/stm32f1x_iolib_hd_st32_8MHz.a(spi.o)
SPI_GetCRCPolynomial                              /project/stm32fx_lib/stm32f1x_iolib/stm32f1x_iolib_hd_st32_8MHz.a(spi.o)
SPI_I2S_ClearFlag                                 /project/stm32fx_lib/stm32f1x_iolib/stm32f1x_iolib_hd_st32_8MHz.a(spi.o)
SPI_I2S_ClearITPendingBit                         /project/stm32fx_lib/stm32f1x_iolib/stm32f1x_iolib_hd_st32_8MHz.a(spi.o)
SPI_I2S_DMACmd                                    /project/stm32fx_lib/stm32f1x_iolib/stm32f1x_iolib_hd_st32_8MHz.a(spi.o)
SPI_I2S_DeInit                                    /project/stm32fx_lib/stm32f1x_iolib/stm32f1x_iolib_hd_st32_8MHz.a(spi.o)
SPI_I2S_GetFlagStatus                             /project/stm32fx_lib/stm32f1x_iolib/stm32f1x_iolib_hd_st32_8MHz.a(spi.o)
                                                  FLASH_RUN/sd_driver.o
SPI_I2S_GetITStatus                               /project/stm32fx_lib/stm32f1x_iolib/stm32f1x_iolib_hd_st32_8MHz.a(spi.o)
SPI_I2S_ITConfig                                  /project/stm32fx_lib/stm32f1x_iolib/stm32f1x_iolib_hd_st32_8MHz.a(spi.o)
SPI_I2S_ReceiveData                               /project/stm32fx_lib/stm32f1x_iolib/stm32f1x_iolib_hd_st32_8MHz.a(spi.o)
                                                  FLASH_RUN/sd_driver.o
SPI_I2S_SendData                                  /project/stm32fx_lib/stm32f1x_iolib/stm32f1x_iolib_hd_st32_8MHz.a(spi.o)
                                                  FLASH_RUN/sd_driver.o
SPI_Init                                          /project/stm32fx_lib/stm32f1x_iolib/stm32f1x_iolib_hd_st32_8MHz.a(spi.o)
                                                  FLASH_RUN/sd_driver.o
SPI_NSSInternalSoftwareConfig                     /project/stm32fx_lib/stm32f1x_iolib/stm32f1x_iolib_hd_st32_8MHz.a(spi.o)
SPI_SSOutputCmd                                   /project/stm32fx_lib/stm32f1x_iolib/stm32f1x_iolib_hd_st32_8MHz.a(spi.o)
SPI_StructInit                                    /project/stm32fx_lib/stm32f1x_iolib/stm32f1x_iolib_hd_st32_8MHz.a(spi.o)
SPI_TransmitCRC                                   /project/stm32fx_lib/stm32f1x_iolib/stm32f1x_iolib_hd_st32_8MHz.a(spi.o)
SPI_configuration                                 FLASH_RUN/sd_driver.o
                                                  FLASH_RUN/mp3.o
SPI_read_write_byte                               FLASH_RUN/sd_driver.o
                                                  FLASH_RUN/vs1003.o
SPI_set_speed                                     FLASH_RUN/sd_driver.o
                                                  FLASH_RUN/vs1003.o
SVC_Handler                                       /project/stm32fx_lib/stm32f1x_iolib/stm32f1x_iolib_hd_st32_8MHz.a(startup.o)
SysTick_CLKSourceConfig                           /project/stm32fx_lib/stm32f1x_iolib/stm32f1x_iolib_hd_st32_8MHz.a(irq.o)
SysTick_Handler                                   FLASH_RUN/main.o
SystemCoreClock                                   /project/stm32fx_lib/stm32f1x_iolib/stm32f1x_iolib_hd_st32_8MHz.a(system.o)
                                                  FLASH_RUN/main.o
SystemCoreClockUpdate                             /project/stm32fx_lib/stm32f1x_iolib/stm32f1x_iolib_hd_st32_8MHz.a(system.o)
SystemInit                                        /project/stm32fx_lib/stm32f1x_iolib/stm32f1x_iolib_hd_st32_8MHz.a(system.o)
                                                  /project/stm32fx_lib/stm32f1x_iolib/stm32f1x_iolib_hd_st32_8MHz.a(startup.o)
TAMPER_IRQHandler                                 /project/stm32fx_lib/stm32f1x_iolib/stm32f1x_iolib_hd_st32_8MHz.a(startup.o)
TIM1_BRK_IRQHandler                               /project/stm32fx_lib/stm32f1x_iolib/stm32f1x_iolib_hd_st32_8MHz.a(startup.o)
TIM1_CC_IRQHandler                                /project/stm32fx_lib/stm32f1x_iolib/stm32f1x_iolib_hd_st32_8MHz.a(startup.o)
TIM1_TRG_COM_IRQHandler                           /project/stm32fx_lib/stm32f1x_iolib/stm32f1x_iolib_hd_st32_8MHz.a(startup.o)
TIM1_UP_IRQHandler                                /project/stm32fx_lib/stm32f1x_iolib/stm32f1x_iolib_hd_st32_8MHz.a(startup.o)
TIM2_IRQHandler                                   /project/stm32fx_lib/stm32f1x_iolib/stm32f1x_iolib_hd_st32_8MHz.a(startup.o)
TIM3_IRQHandler                                   /project/stm32fx_lib/stm32f1x_iolib/stm32f1x_iolib_hd_st32_8MHz.a(startup.o)
TIM4_IRQHandler                                   FLASH_RUN/main.o
TIM5_IRQHandler                                   /project/stm32fx_lib/stm32f1x_iolib/stm32f1x_iolib_hd_st32_8MHz.a(startup.o)
TIM6_IRQHandler                                   /project/stm32fx_lib/stm32f1x_iolib/stm32f1x_iolib_hd_st32_8MHz.a(startup.o)
TIM7_IRQHandler                                   /project/stm32fx_lib/stm32f1x_iolib/stm32f1x_iolib_hd_st32_8MHz.a(startup.o)
TIM8_BRK_IRQHandler                               /project/stm32fx_lib/stm32f1x_iolib/stm32f1x_iolib_hd_st32_8MHz.a(startup.o)
TIM8_CC_IRQHandler                                /project/stm32fx_lib/stm32f1x_iolib/stm32f1x_iolib_hd_st32_8MHz.a(startup.o)
TIM8_TRG_COM_IRQHandler                           /project/stm32fx_lib/stm32f1x_iolib/stm32f1x_iolib_hd_st32_8MHz.a(startup.o)
TIM8_UP_IRQHandler                                /project/stm32fx_lib/stm32f1x_iolib/stm32f1x_iolib_hd_st32_8MHz.a(startup.o)
TIM_ARRPreloadConfig                              /project/stm32fx_lib/stm32f1x_iolib/stm32f1x_iolib_hd_st32_8MHz.a(timer.o)
TIM_BDTRConfig                                    /project/stm32fx_lib/stm32f1x_iolib/stm32f1x_iolib_hd_st32_8MHz.a(timer.o)
TIM_BDTRStructInit                                /project/stm32fx_lib/stm32f1x_iolib/stm32f1x_iolib_hd_st32_8MHz.a(timer.o)
TIM_CCPreloadControl                              /project/stm32fx_lib/stm32f1x_iolib/stm32f1x_iolib_hd_st32_8MHz.a(timer.o)
TIM_CCxCmd                                        /project/stm32fx_lib/stm32f1x_iolib/stm32f1x_iolib_hd_st32_8MHz.a(timer.o)
TIM_CCxNCmd                                       /project/stm32fx_lib/stm32f1x_iolib/stm32f1x_iolib_hd_st32_8MHz.a(timer.o)
TIM_ClearFlag                                     /project/stm32fx_lib/stm32f1x_iolib/stm32f1x_iolib_hd_st32_8MHz.a(timer.o)
                                                  FLASH_RUN/main.o
TIM_ClearITPendingBit                             /project/stm32fx_lib/stm32f1x_iolib/stm32f1x_iolib_hd_st32_8MHz.a(timer.o)
                                                  FLASH_RUN/main.o
TIM_ClearOC1Ref                                   /project/stm32fx_lib/stm32f1x_iolib/stm32f1x_iolib_hd_st32_8MHz.a(timer.o)
TIM_ClearOC2Ref                                   /project/stm32fx_lib/stm32f1x_iolib/stm32f1x_iolib_hd_st32_8MHz.a(timer.o)
TIM_ClearOC3Ref                                   /project/stm32fx_lib/stm32f1x_iolib/stm32f1x_iolib_hd_st32_8MHz.a(timer.o)
TIM_ClearOC4Ref                                   /project/stm32fx_lib/stm32f1x_iolib/stm32f1x_iolib_hd_st32_8MHz.a(timer.o)
TIM_Cmd                                           /project/stm32fx_lib/stm32f1x_iolib/stm32f1x_iolib_hd_st32_8MHz.a(timer.o)
                                                  FLASH_RUN/main.o
TIM_CounterModeConfig                             /project/stm32fx_lib/stm32f1x_iolib/stm32f1x_iolib_hd_st32_8MHz.a(timer.o)
TIM_CtrlPWMOutputs                                /project/stm32fx_lib/stm32f1x_iolib/stm32f1x_iolib_hd_st32_8MHz.a(timer.o)
TIM_DMACmd                                        /project/stm32fx_lib/stm32f1x_iolib/stm32f1x_iolib_hd_st32_8MHz.a(timer.o)
TIM_DMAConfig                                     /project/stm32fx_lib/stm32f1x_iolib/stm32f1x_iolib_hd_st32_8MHz.a(timer.o)
TIM_DeInit                                        /project/stm32fx_lib/stm32f1x_iolib/stm32f1x_iolib_hd_st32_8MHz.a(timer.o)
TIM_ETRClockMode1Config                           /project/stm32fx_lib/stm32f1x_iolib/stm32f1x_iolib_hd_st32_8MHz.a(timer.o)
TIM_ETRClockMode2Config                           /project/stm32fx_lib/stm32f1x_iolib/stm32f1x_iolib_hd_st32_8MHz.a(timer.o)
TIM_ETRConfig                                     /project/stm32fx_lib/stm32f1x_iolib/stm32f1x_iolib_hd_st32_8MHz.a(timer.o)
TIM_EncoderInterfaceConfig                        /project/stm32fx_lib/stm32f1x_iolib/stm32f1x_iolib_hd_st32_8MHz.a(timer.o)
TIM_ForcedOC1Config                               /project/stm32fx_lib/stm32f1x_iolib/stm32f1x_iolib_hd_st32_8MHz.a(timer.o)
TIM_ForcedOC2Config                               /project/stm32fx_lib/stm32f1x_iolib/stm32f1x_iolib_hd_st32_8MHz.a(timer.o)
TIM_ForcedOC3Config                               /project/stm32fx_lib/stm32f1x_iolib/stm32f1x_iolib_hd_st32_8MHz.a(timer.o)
TIM_ForcedOC4Config                               /project/stm32fx_lib/stm32f1x_iolib/stm32f1x_iolib_hd_st32_8MHz.a(timer.o)
TIM_GenerateEvent                                 /project/stm32fx_lib/stm32f1x_iolib/stm32f1x_iolib_hd_st32_8MHz.a(timer.o)
TIM_GetCapture1                                   /project/stm32fx_lib/stm32f1x_iolib/stm32f1x_iolib_hd_st32_8MHz.a(timer.o)
TIM_GetCapture2                                   /project/stm32fx_lib/stm32f1x_iolib/stm32f1x_iolib_hd_st32_8MHz.a(timer.o)
TIM_GetCapture3                                   /project/stm32fx_lib/stm32f1x_iolib/stm32f1x_iolib_hd_st32_8MHz.a(timer.o)
TIM_GetCapture4                                   /project/stm32fx_lib/stm32f1x_iolib/stm32f1x_iolib_hd_st32_8MHz.a(timer.o)
TIM_GetCounter                                    /project/stm32fx_lib/stm32f1x_iolib/stm32f1x_iolib_hd_st32_8MHz.a(timer.o)
TIM_GetFlagStatus                                 /project/stm32fx_lib/stm32f1x_iolib/stm32f1x_iolib_hd_st32_8MHz.a(timer.o)
TIM_GetITStatus                                   /project/stm32fx_lib/stm32f1x_iolib/stm32f1x_iolib_hd_st32_8MHz.a(timer.o)
TIM_GetPrescaler                                  /project/stm32fx_lib/stm32f1x_iolib/stm32f1x_iolib_hd_st32_8MHz.a(timer.o)
TIM_ICInit                                        /project/stm32fx_lib/stm32f1x_iolib/stm32f1x_iolib_hd_st32_8MHz.a(timer.o)
TIM_ICStructInit                                  /project/stm32fx_lib/stm32f1x_iolib/stm32f1x_iolib_hd_st32_8MHz.a(timer.o)
TIM_ITConfig                                      /project/stm32fx_lib/stm32f1x_iolib/stm32f1x_iolib_hd_st32_8MHz.a(timer.o)
                                                  FLASH_RUN/main.o
TIM_ITRxExternalClockConfig                       /project/stm32fx_lib/stm32f1x_iolib/stm32f1x_iolib_hd_st32_8MHz.a(timer.o)
TIM_InternalClockConfig                           /project/stm32fx_lib/stm32f1x_iolib/stm32f1x_iolib_hd_st32_8MHz.a(timer.o)
TIM_OC1FastConfig                                 /project/stm32fx_lib/stm32f1x_iolib/stm32f1x_iolib_hd_st32_8MHz.a(timer.o)
TIM_OC1Init                                       /project/stm32fx_lib/stm32f1x_iolib/stm32f1x_iolib_hd_st32_8MHz.a(timer.o)
TIM_OC1NPolarityConfig                            /project/stm32fx_lib/stm32f1x_iolib/stm32f1x_iolib_hd_st32_8MHz.a(timer.o)
TIM_OC1PolarityConfig                             /project/stm32fx_lib/stm32f1x_iolib/stm32f1x_iolib_hd_st32_8MHz.a(timer.o)
TIM_OC1PreloadConfig                              /project/stm32fx_lib/stm32f1x_iolib/stm32f1x_iolib_hd_st32_8MHz.a(timer.o)
TIM_OC2FastConfig                                 /project/stm32fx_lib/stm32f1x_iolib/stm32f1x_iolib_hd_st32_8MHz.a(timer.o)
TIM_OC2Init                                       /project/stm32fx_lib/stm32f1x_iolib/stm32f1x_iolib_hd_st32_8MHz.a(timer.o)
TIM_OC2NPolarityConfig                            /project/stm32fx_lib/stm32f1x_iolib/stm32f1x_iolib_hd_st32_8MHz.a(timer.o)
TIM_OC2PolarityConfig                             /project/stm32fx_lib/stm32f1x_iolib/stm32f1x_iolib_hd_st32_8MHz.a(timer.o)
TIM_OC2PreloadConfig                              /project/stm32fx_lib/stm32f1x_iolib/stm32f1x_iolib_hd_st32_8MHz.a(timer.o)
TIM_OC3FastConfig                                 /project/stm32fx_lib/stm32f1x_iolib/stm32f1x_iolib_hd_st32_8MHz.a(timer.o)
TIM_OC3Init                                       /project/stm32fx_lib/stm32f1x_iolib/stm32f1x_iolib_hd_st32_8MHz.a(timer.o)
TIM_OC3NPolarityConfig                            /project/stm32fx_lib/stm32f1x_iolib/stm32f1x_iolib_hd_st32_8MHz.a(timer.o)
TIM_OC3PolarityConfig                             /project/stm32fx_lib/stm32f1x_iolib/stm32f1x_iolib_hd_st32_8MHz.a(timer.o)
TIM_OC3PreloadConfig                              /project/stm32fx_lib/stm32f1x_iolib/stm32f1x_iolib_hd_st32_8MHz.a(timer.o)
TIM_OC4FastConfig                                 /project/stm32fx_lib/stm32f1x_iolib/stm32f1x_iolib_hd_st32_8MHz.a(timer.o)
TIM_OC4Init                                       /project/stm32fx_lib/stm32f1x_iolib/stm32f1x_iolib_hd_st32_8MHz.a(timer.o)
TIM_OC4PolarityConfig                             /project/stm32fx_lib/stm32f1x_iolib/stm32f1x_iolib_hd_st32_8MHz.a(timer.o)
TIM_OC4PreloadConfig                              /project/stm32fx_lib/stm32f1x_iolib/stm32f1x_iolib_hd_st32_8MHz.a(timer.o)
TIM_OCStructInit                                  /project/stm32fx_lib/stm32f1x_iolib/stm32f1x_iolib_hd_st32_8MHz.a(timer.o)
TIM_PWMIConfig                                    /project/stm32fx_lib/stm32f1x_iolib/stm32f1x_iolib_hd_st32_8MHz.a(timer.o)
TIM_PrescalerConfig                               /project/stm32fx_lib/stm32f1x_iolib/stm32f1x_iolib_hd_st32_8MHz.a(timer.o)
TIM_SelectCCDMA                                   /project/stm32fx_lib/stm32f1x_iolib/stm32f1x_iolib_hd_st32_8MHz.a(timer.o)
TIM_SelectCOM                                     /project/stm32fx_lib/stm32f1x_iolib/stm32f1x_iolib_hd_st32_8MHz.a(timer.o)
TIM_SelectHallSensor                              /project/stm32fx_lib/stm32f1x_iolib/stm32f1x_iolib_hd_st32_8MHz.a(timer.o)
TIM_SelectInputTrigger                            /project/stm32fx_lib/stm32f1x_iolib/stm32f1x_iolib_hd_st32_8MHz.a(timer.o)
TIM_SelectMasterSlaveMode                         /project/stm32fx_lib/stm32f1x_iolib/stm32f1x_iolib_hd_st32_8MHz.a(timer.o)
TIM_SelectOCxM                                    /project/stm32fx_lib/stm32f1x_iolib/stm32f1x_iolib_hd_st32_8MHz.a(timer.o)
TIM_SelectOnePulseMode                            /project/stm32fx_lib/stm32f1x_iolib/stm32f1x_iolib_hd_st32_8MHz.a(timer.o)
TIM_SelectOutputTrigger                           /project/stm32fx_lib/stm32f1x_iolib/stm32f1x_iolib_hd_st32_8MHz.a(timer.o)
TIM_SelectSlaveMode                               /project/stm32fx_lib/stm32f1x_iolib/stm32f1x_iolib_hd_st32_8MHz.a(timer.o)
TIM_SetAutoreload                                 /project/stm32fx_lib/stm32f1x_iolib/stm32f1x_iolib_hd_st32_8MHz.a(timer.o)
TIM_SetClockDivision                              /project/stm32fx_lib/stm32f1x_iolib/stm32f1x_iolib_hd_st32_8MHz.a(timer.o)
TIM_SetCompare1                                   /project/stm32fx_lib/stm32f1x_iolib/stm32f1x_iolib_hd_st32_8MHz.a(timer.o)
TIM_SetCompare2                                   /project/stm32fx_lib/stm32f1x_iolib/stm32f1x_iolib_hd_st32_8MHz.a(timer.o)
TIM_SetCompare3                                   /project/stm32fx_lib/stm32f1x_iolib/stm32f1x_iolib_hd_st32_8MHz.a(timer.o)
TIM_SetCompare4                                   /project/stm32fx_lib/stm32f1x_iolib/stm32f1x_iolib_hd_st32_8MHz.a(timer.o)
TIM_SetCounter                                    /project/stm32fx_lib/stm32f1x_iolib/stm32f1x_iolib_hd_st32_8MHz.a(timer.o)
TIM_SetIC1Prescaler                               /project/stm32fx_lib/stm32f1x_iolib/stm32f1x_iolib_hd_st32_8MHz.a(timer.o)
TIM_SetIC2Prescaler                               /project/stm32fx_lib/stm32f1x_iolib/stm32f1x_iolib_hd_st32_8MHz.a(timer.o)
TIM_SetIC3Prescaler                               /project/stm32fx_lib/stm32f1x_iolib/stm32f1x_iolib_hd_st32_8MHz.a(timer.o)
TIM_SetIC4Prescaler                               /project/stm32fx_lib/stm32f1x_iolib/stm32f1x_iolib_hd_st32_8MHz.a(timer.o)
TIM_TIxExternalClockConfig                        /project/stm32fx_lib/stm32f1x_iolib/stm32f1x_iolib_hd_st32_8MHz.a(timer.o)
TIM_TimeBaseInit                                  /project/stm32fx_lib/stm32f1x_iolib/stm32f1x_iolib_hd_st32_8MHz.a(timer.o)
                                                  FLASH_RUN/main.o
TIM_TimeBaseStructInit                            /project/stm32fx_lib/stm32f1x_iolib/stm32f1x_iolib_hd_st32_8MHz.a(timer.o)
TIM_UpdateDisableConfig                           /project/stm32fx_lib/stm32f1x_iolib/stm32f1x_iolib_hd_st32_8MHz.a(timer.o)
TIM_UpdateRequestConfig                           /project/stm32fx_lib/stm32f1x_iolib/stm32f1x_iolib_hd_st32_8MHz.a(timer.o)
UART4_IRQHandler                                  /project/stm32fx_lib/stm32f1x_iolib/stm32f1x_iolib_hd_st32_8MHz.a(startup.o)
UART5_IRQHandler                                  /project/stm32fx_lib/stm32f1x_iolib/stm32f1x_iolib_hd_st32_8MHz.a(startup.o)
USART1_IRQHandler                                 FLASH_RUN/serial.o
USART1_PORT                                       FLASH_RUN/serial.o
USART2_IRQHandler                                 FLASH_RUN/serial.o
USART3_IRQHandler                                 /project/stm32fx_lib/stm32f1x_iolib/stm32f1x_iolib_hd_st32_8MHz.a(startup.o)
USART_ClearFlag                                   /project/stm32fx_lib/stm32f1x_iolib/stm32f1x_iolib_hd_st32_8MHz.a(usart.o)
USART_ClearITPendingBit                           /project/stm32fx_lib/stm32f1x_iolib/stm32f1x_iolib_hd_st32_8MHz.a(usart.o)
                                                  FLASH_RUN/serial.o
USART_ClockInit                                   /project/stm32fx_lib/stm32f1x_iolib/stm32f1x_iolib_hd_st32_8MHz.a(usart.o)
USART_ClockStructInit                             /project/stm32fx_lib/stm32f1x_iolib/stm32f1x_iolib_hd_st32_8MHz.a(usart.o)
USART_Cmd                                         /project/stm32fx_lib/stm32f1x_iolib/stm32f1x_iolib_hd_st32_8MHz.a(usart.o)
                                                  FLASH_RUN/serial.o
USART_DMACmd                                      /project/stm32fx_lib/stm32f1x_iolib/stm32f1x_iolib_hd_st32_8MHz.a(usart.o)
USART_DeInit                                      /project/stm32fx_lib/stm32f1x_iolib/stm32f1x_iolib_hd_st32_8MHz.a(usart.o)
USART_GetFlagStatus                               /project/stm32fx_lib/stm32f1x_iolib/stm32f1x_iolib_hd_st32_8MHz.a(usart.o)
USART_GetITStatus                                 /project/stm32fx_lib/stm32f1x_iolib/stm32f1x_iolib_hd_st32_8MHz.a(usart.o)
                                                  FLASH_RUN/serial.o
USART_HalfDuplexCmd                               /project/stm32fx_lib/stm32f1x_iolib/stm32f1x_iolib_hd_st32_8MHz.a(usart.o)
USART_ITConfig                                    /project/stm32fx_lib/stm32f1x_iolib/stm32f1x_iolib_hd_st32_8MHz.a(usart.o)
                                                  FLASH_RUN/serial.o
USART_Init                                        /project/stm32fx_lib/stm32f1x_iolib/stm32f1x_iolib_hd_st32_8MHz.a(usart.o)
                                                  FLASH_RUN/serial.o
USART_IrDACmd                                     /project/stm32fx_lib/stm32f1x_iolib/stm32f1x_iolib_hd_st32_8MHz.a(usart.o)
USART_IrDAConfig                                  /project/stm32fx_lib/stm32f1x_iolib/stm32f1x_iolib_hd_st32_8MHz.a(usart.o)
USART_LINBreakDetectLengthConfig                  /project/stm32fx_lib/stm32f1x_iolib/stm32f1x_iolib_hd_st32_8MHz.a(usart.o)
USART_LINCmd                                      /project/stm32fx_lib/stm32f1x_iolib/stm32f1x_iolib_hd_st32_8MHz.a(usart.o)
USART_OneBitMethodCmd                             /project/stm32fx_lib/stm32f1x_iolib/stm32f1x_iolib_hd_st32_8MHz.a(usart.o)
USART_OverSampling8Cmd                            /project/stm32fx_lib/stm32f1x_iolib/stm32f1x_iolib_hd_st32_8MHz.a(usart.o)
USART_ReceiveData                                 /project/stm32fx_lib/stm32f1x_iolib/stm32f1x_iolib_hd_st32_8MHz.a(usart.o)
                                                  FLASH_RUN/serial.o
USART_ReceiverWakeUpCmd                           /project/stm32fx_lib/stm32f1x_iolib/stm32f1x_iolib_hd_st32_8MHz.a(usart.o)
USART_SendBreak                                   /project/stm32fx_lib/stm32f1x_iolib/stm32f1x_iolib_hd_st32_8MHz.a(usart.o)
USART_SendData                                    /project/stm32fx_lib/stm32f1x_iolib/stm32f1x_iolib_hd_st32_8MHz.a(usart.o)
                                                  FLASH_RUN/serial.o
USART_SetAddress                                  /project/stm32fx_lib/stm32f1x_iolib/stm32f1x_iolib_hd_st32_8MHz.a(usart.o)
USART_SetGuardTime                                /project/stm32fx_lib/stm32f1x_iolib/stm32f1x_iolib_hd_st32_8MHz.a(usart.o)
USART_SetPrescaler                                /project/stm32fx_lib/stm32f1x_iolib/stm32f1x_iolib_hd_st32_8MHz.a(usart.o)
USART_SmartCardCmd                                /project/stm32fx_lib/stm32f1x_iolib/stm32f1x_iolib_hd_st32_8MHz.a(usart.o)
USART_SmartCardNACKCmd                            /project/stm32fx_lib/stm32f1x_iolib/stm32f1x_iolib_hd_st32_8MHz.a(usart.o)
USART_StructInit                                  /project/stm32fx_lib/stm32f1x_iolib/stm32f1x_iolib_hd_st32_8MHz.a(usart.o)
USART_WakeUpConfig                                /project/stm32fx_lib/stm32f1x_iolib/stm32f1x_iolib_hd_st32_8MHz.a(usart.o)
USBWakeUp_IRQHandler                              /project/stm32fx_lib/stm32f1x_iolib/stm32f1x_iolib_hd_st32_8MHz.a(startup.o)
USB_HP_CAN1_TX_IRQHandler                         /project/stm32fx_lib/stm32f1x_iolib/stm32f1x_iolib_hd_st32_8MHz.a(startup.o)
USB_LP_CAN1_RX0_IRQHandler                        /project/stm32fx_lib/stm32f1x_iolib/stm32f1x_iolib_hd_st32_8MHz.a(startup.o)
UsageFault_Handler                                /project/stm32fx_lib/stm32f1x_iolib/stm32f1x_iolib_hd_st32_8MHz.a(startup.o)
WWDG_IRQHandler                                   /project/stm32fx_lib/stm32f1x_iolib/stm32f1x_iolib_hd_st32_8MHz.a(startup.o)
_Balloc                                           c:/program files (x86)/gnu tools arm embedded/9 2019-q4-major/bin/../lib/gcc/arm-none-eabi/9.2.1/../../../../arm-none-eabi/lib/thumb/v7-m/nofp\libc.a(lib_a-mprec.o)
                                                  c:/program files (x86)/gnu tools arm embedded/9 2019-q4-major/bin/../lib/gcc/arm-none-eabi/9.2.1/../../../../arm-none-eabi/lib/thumb/v7-m/nofp\libc.a(lib_a-dtoa.o)
_Bfree                                            c:/program files (x86)/gnu tools arm embedded/9 2019-q4-major/bin/../lib/gcc/arm-none-eabi/9.2.1/../../../../arm-none-eabi/lib/thumb/v7-m/nofp\libc.a(lib_a-mprec.o)
                                                  c:/program files (x86)/gnu tools arm embedded/9 2019-q4-major/bin/../lib/gcc/arm-none-eabi/9.2.1/../../../../arm-none-eabi/lib/thumb/v7-m/nofp\libc.a(lib_a-dtoa.o)
_PathLocale                                       c:/program files (x86)/gnu tools arm embedded/9 2019-q4-major/bin/../lib/gcc/arm-none-eabi/9.2.1/../../../../arm-none-eabi/lib/thumb/v7-m/nofp\libc.a(lib_a-locale.o)
__Init_Data_and_BSS                               /project/stm32fx_lib/stm32f1x_iolib/stm32f1x_iolib_hd_st32_8MHz.a(startup.o)
__adddf3                                          c:/program files (x86)/gnu tools arm embedded/9 2019-q4-major/bin/../lib/gcc/arm-none-eabi/9.2.1/thumb/v7-m/nofp\libgcc.a(_arm_addsubdf3.o)
__addsf3                                          c:/program files (x86)/gnu tools arm embedded/9 2019-q4-major/bin/../lib/gcc/arm-none-eabi/9.2.1/thumb/v7-m/nofp\libgcc.a(_arm_addsubsf3.o)
__aeabi_cdcmpeq                                   c:/program files (x86)/gnu tools arm embedded/9 2019-q4-major/bin/../lib/gcc/arm-none-eabi/9.2.1/thumb/v7-m/nofp\libgcc.a(_arm_cmpdf2.o)
__aeabi_cdcmple                                   c:/program files (x86)/gnu tools arm embedded/9 2019-q4-major/bin/../lib/gcc/arm-none-eabi/9.2.1/thumb/v7-m/nofp\libgcc.a(_arm_cmpdf2.o)
__aeabi_cdrcmple                                  c:/program files (x86)/gnu tools arm embedded/9 2019-q4-major/bin/../lib/gcc/arm-none-eabi/9.2.1/thumb/v7-m/nofp\libgcc.a(_arm_cmpdf2.o)
__aeabi_cfcmpeq                                   c:/program files (x86)/gnu tools arm embedded/9 2019-q4-major/bin/../lib/gcc/arm-none-eabi/9.2.1/thumb/v7-m/nofp\libgcc.a(_arm_cmpsf2.o)
__aeabi_cfcmple                                   c:/program files (x86)/gnu tools arm embedded/9 2019-q4-major/bin/../lib/gcc/arm-none-eabi/9.2.1/thumb/v7-m/nofp\libgcc.a(_arm_cmpsf2.o)
__aeabi_cfrcmple                                  c:/program files (x86)/gnu tools arm embedded/9 2019-q4-major/bin/../lib/gcc/arm-none-eabi/9.2.1/thumb/v7-m/nofp\libgcc.a(_arm_cmpsf2.o)
__aeabi_d2iz                                      c:/program files (x86)/gnu tools arm embedded/9 2019-q4-major/bin/../lib/gcc/arm-none-eabi/9.2.1/thumb/v7-m/nofp\libgcc.a(_arm_fixdfsi.o)
                                                  c:/program files (x86)/gnu tools arm embedded/9 2019-q4-major/bin/../lib/gcc/arm-none-eabi/9.2.1/../../../../arm-none-eabi/lib/thumb/v7-m/nofp\libc.a(lib_a-dtoa.o)
                                                  c:/program files (x86)/gnu tools arm embedded/9 2019-q4-major/bin/../lib/gcc/arm-none-eabi/9.2.1/../../../../arm-none-eabi/lib/thumb/v7-m/nofp\libc.a(lib_a-svfprintf.o)
__aeabi_d2uiz                                     c:/program files (x86)/gnu tools arm embedded/9 2019-q4-major/bin/../lib/gcc/arm-none-eabi/9.2.1/thumb/v7-m/nofp\libgcc.a(_arm_fixunsdfsi.o)
                                                  FLASH_RUN/ads7843.o
__aeabi_dadd                                      c:/program files (x86)/gnu tools arm embedded/9 2019-q4-major/bin/../lib/gcc/arm-none-eabi/9.2.1/thumb/v7-m/nofp\libgcc.a(_arm_addsubdf3.o)
                                                  c:/program files (x86)/gnu tools arm embedded/9 2019-q4-major/bin/../lib/gcc/arm-none-eabi/9.2.1/../../../../arm-none-eabi/lib/thumb/v7-m/nofp\libm.a(lib_a-e_sqrt.o)
                                                  c:/program files (x86)/gnu tools arm embedded/9 2019-q4-major/bin/../lib/gcc/arm-none-eabi/9.2.1/../../../../arm-none-eabi/lib/thumb/v7-m/nofp\libc.a(lib_a-dtoa.o)
__aeabi_dcmpeq                                    c:/program files (x86)/gnu tools arm embedded/9 2019-q4-major/bin/../lib/gcc/arm-none-eabi/9.2.1/thumb/v7-m/nofp\libgcc.a(_arm_cmpdf2.o)
                                                  c:/program files (x86)/gnu tools arm embedded/9 2019-q4-major/bin/../lib/gcc/arm-none-eabi/9.2.1/../../../../arm-none-eabi/lib/thumb/v7-m/nofp\libc.a(lib_a-dtoa.o)
                                                  c:/program files (x86)/gnu tools arm embedded/9 2019-q4-major/bin/../lib/gcc/arm-none-eabi/9.2.1/../../../../arm-none-eabi/lib/thumb/v7-m/nofp\libc.a(lib_a-svfprintf.o)
__aeabi_dcmpge                                    c:/program files (x86)/gnu tools arm embedded/9 2019-q4-major/bin/../lib/gcc/arm-none-eabi/9.2.1/thumb/v7-m/nofp\libgcc.a(_arm_cmpdf2.o)
__aeabi_dcmpgt                                    c:/program files (x86)/gnu tools arm embedded/9 2019-q4-major/bin/../lib/gcc/arm-none-eabi/9.2.1/thumb/v7-m/nofp\libgcc.a(_arm_cmpdf2.o)
                                                  c:/program files (x86)/gnu tools arm embedded/9 2019-q4-major/bin/../lib/gcc/arm-none-eabi/9.2.1/../../../../arm-none-eabi/lib/thumb/v7-m/nofp\libc.a(lib_a-dtoa.o)
                                                  c:/program files (x86)/gnu tools arm embedded/9 2019-q4-major/bin/../lib/gcc/arm-none-eabi/9.2.1/../../../../arm-none-eabi/lib/thumb/v7-m/nofp\libc.a(lib_a-svfprintf.o)
__aeabi_dcmple                                    c:/program files (x86)/gnu tools arm embedded/9 2019-q4-major/bin/../lib/gcc/arm-none-eabi/9.2.1/thumb/v7-m/nofp\libgcc.a(_arm_cmpdf2.o)
                                                  c:/program files (x86)/gnu tools arm embedded/9 2019-q4-major/bin/../lib/gcc/arm-none-eabi/9.2.1/../../../../arm-none-eabi/lib/thumb/v7-m/nofp\libc.a(lib_a-dtoa.o)
                                                  c:/program files (x86)/gnu tools arm embedded/9 2019-q4-major/bin/../lib/gcc/arm-none-eabi/9.2.1/../../../../arm-none-eabi/lib/thumb/v7-m/nofp\libc.a(lib_a-svfprintf.o)
__aeabi_dcmplt                                    c:/program files (x86)/gnu tools arm embedded/9 2019-q4-major/bin/../lib/gcc/arm-none-eabi/9.2.1/thumb/v7-m/nofp\libgcc.a(_arm_cmpdf2.o)
                                                  c:/program files (x86)/gnu tools arm embedded/9 2019-q4-major/bin/../lib/gcc/arm-none-eabi/9.2.1/../../../../arm-none-eabi/lib/thumb/v7-m/nofp\libm.a(lib_a-w_sqrt.o)
                                                  c:/program files (x86)/gnu tools arm embedded/9 2019-q4-major/bin/../lib/gcc/arm-none-eabi/9.2.1/../../../../arm-none-eabi/lib/thumb/v7-m/nofp\libc.a(lib_a-dtoa.o)
                                                  c:/program files (x86)/gnu tools arm embedded/9 2019-q4-major/bin/../lib/gcc/arm-none-eabi/9.2.1/../../../../arm-none-eabi/lib/thumb/v7-m/nofp\libc.a(lib_a-svfprintf.o)
__aeabi_dcmpun                                    c:/program files (x86)/gnu tools arm embedded/9 2019-q4-major/bin/../lib/gcc/arm-none-eabi/9.2.1/thumb/v7-m/nofp\libgcc.a(_arm_unorddf2.o)
                                                  c:/program files (x86)/gnu tools arm embedded/9 2019-q4-major/bin/../lib/gcc/arm-none-eabi/9.2.1/../../../../arm-none-eabi/lib/thumb/v7-m/nofp\libm.a(lib_a-w_sqrt.o)
                                                  c:/program files (x86)/gnu tools arm embedded/9 2019-q4-major/bin/../lib/gcc/arm-none-eabi/9.2.1/../../../../arm-none-eabi/lib/thumb/v7-m/nofp\libc.a(lib_a-svfprintf.o)
__aeabi_ddiv                                      c:/program files (x86)/gnu tools arm embedded/9 2019-q4-major/bin/../lib/gcc/arm-none-eabi/9.2.1/thumb/v7-m/nofp\libgcc.a(_arm_muldivdf3.o)
                                                  c:/program files (x86)/gnu tools arm embedded/9 2019-q4-major/bin/../lib/gcc/arm-none-eabi/9.2.1/../../../../arm-none-eabi/lib/thumb/v7-m/nofp\libm.a(lib_a-e_sqrt.o)
                                                  c:/program files (x86)/gnu tools arm embedded/9 2019-q4-major/bin/../lib/gcc/arm-none-eabi/9.2.1/../../../../arm-none-eabi/lib/thumb/v7-m/nofp\libm.a(lib_a-w_sqrt.o)
                                                  c:/program files (x86)/gnu tools arm embedded/9 2019-q4-major/bin/../lib/gcc/arm-none-eabi/9.2.1/../../../../arm-none-eabi/lib/thumb/v7-m/nofp\libc.a(lib_a-mprec.o)
                                                  c:/program files (x86)/gnu tools arm embedded/9 2019-q4-major/bin/../lib/gcc/arm-none-eabi/9.2.1/../../../../arm-none-eabi/lib/thumb/v7-m/nofp\libc.a(lib_a-dtoa.o)
__aeabi_dmul                                      c:/program files (x86)/gnu tools arm embedded/9 2019-q4-major/bin/../lib/gcc/arm-none-eabi/9.2.1/thumb/v7-m/nofp\libgcc.a(_arm_muldivdf3.o)
                                                  c:/program files (x86)/gnu tools arm embedded/9 2019-q4-major/bin/../lib/gcc/arm-none-eabi/9.2.1/thumb/v7-m/nofp\libgcc.a(_arm_muldf3.o)
                                                  c:/program files (x86)/gnu tools arm embedded/9 2019-q4-major/bin/../lib/gcc/arm-none-eabi/9.2.1/../../../../arm-none-eabi/lib/thumb/v7-m/nofp\libm.a(lib_a-e_sqrt.o)
                                                  c:/program files (x86)/gnu tools arm embedded/9 2019-q4-major/bin/../lib/gcc/arm-none-eabi/9.2.1/../../../../arm-none-eabi/lib/thumb/v7-m/nofp\libc.a(lib_a-s_frexp.o)
                                                  c:/program files (x86)/gnu tools arm embedded/9 2019-q4-major/bin/../lib/gcc/arm-none-eabi/9.2.1/../../../../arm-none-eabi/lib/thumb/v7-m/nofp\libc.a(lib_a-mprec.o)
                                                  c:/program files (x86)/gnu tools arm embedded/9 2019-q4-major/bin/../lib/gcc/arm-none-eabi/9.2.1/../../../../arm-none-eabi/lib/thumb/v7-m/nofp\libc.a(lib_a-dtoa.o)
                                                  c:/program files (x86)/gnu tools arm embedded/9 2019-q4-major/bin/../lib/gcc/arm-none-eabi/9.2.1/../../../../arm-none-eabi/lib/thumb/v7-m/nofp\libc.a(lib_a-svfprintf.o)
__aeabi_drsub                                     c:/program files (x86)/gnu tools arm embedded/9 2019-q4-major/bin/../lib/gcc/arm-none-eabi/9.2.1/thumb/v7-m/nofp\libgcc.a(_arm_addsubdf3.o)
__aeabi_dsub                                      c:/program files (x86)/gnu tools arm embedded/9 2019-q4-major/bin/../lib/gcc/arm-none-eabi/9.2.1/thumb/v7-m/nofp\libgcc.a(_arm_addsubdf3.o)
                                                  c:/program files (x86)/gnu tools arm embedded/9 2019-q4-major/bin/../lib/gcc/arm-none-eabi/9.2.1/../../../../arm-none-eabi/lib/thumb/v7-m/nofp\libm.a(lib_a-e_sqrt.o)
                                                  c:/program files (x86)/gnu tools arm embedded/9 2019-q4-major/bin/../lib/gcc/arm-none-eabi/9.2.1/../../../../arm-none-eabi/lib/thumb/v7-m/nofp\libc.a(lib_a-dtoa.o)
                                                  c:/program files (x86)/gnu tools arm embedded/9 2019-q4-major/bin/../lib/gcc/arm-none-eabi/9.2.1/../../../../arm-none-eabi/lib/thumb/v7-m/nofp\libc.a(lib_a-svfprintf.o)
__aeabi_f2d                                       c:/program files (x86)/gnu tools arm embedded/9 2019-q4-major/bin/../lib/gcc/arm-none-eabi/9.2.1/thumb/v7-m/nofp\libgcc.a(_arm_addsubdf3.o)
__aeabi_f2uiz                                     c:/program files (x86)/gnu tools arm embedded/9 2019-q4-major/bin/../lib/gcc/arm-none-eabi/9.2.1/thumb/v7-m/nofp\libgcc.a(_arm_fixunssfsi.o)
                                                  FLASH_RUN/mp3.o
__aeabi_fadd                                      c:/program files (x86)/gnu tools arm embedded/9 2019-q4-major/bin/../lib/gcc/arm-none-eabi/9.2.1/thumb/v7-m/nofp\libgcc.a(_arm_addsubsf3.o)
__aeabi_fcmpeq                                    c:/program files (x86)/gnu tools arm embedded/9 2019-q4-major/bin/../lib/gcc/arm-none-eabi/9.2.1/thumb/v7-m/nofp\libgcc.a(_arm_cmpsf2.o)
__aeabi_fcmpge                                    c:/program files (x86)/gnu tools arm embedded/9 2019-q4-major/bin/../lib/gcc/arm-none-eabi/9.2.1/thumb/v7-m/nofp\libgcc.a(_arm_cmpsf2.o)
__aeabi_fcmpgt                                    c:/program files (x86)/gnu tools arm embedded/9 2019-q4-major/bin/../lib/gcc/arm-none-eabi/9.2.1/thumb/v7-m/nofp\libgcc.a(_arm_cmpsf2.o)
                                                  FLASH_RUN/mp3.o
__aeabi_fcmple                                    c:/program files (x86)/gnu tools arm embedded/9 2019-q4-major/bin/../lib/gcc/arm-none-eabi/9.2.1/thumb/v7-m/nofp\libgcc.a(_arm_cmpsf2.o)
__aeabi_fcmplt                                    c:/program files (x86)/gnu tools arm embedded/9 2019-q4-major/bin/../lib/gcc/arm-none-eabi/9.2.1/thumb/v7-m/nofp\libgcc.a(_arm_cmpsf2.o)
__aeabi_fdiv                                      c:/program files (x86)/gnu tools arm embedded/9 2019-q4-major/bin/../lib/gcc/arm-none-eabi/9.2.1/thumb/v7-m/nofp\libgcc.a(_arm_muldivsf3.o)
                                                  FLASH_RUN/mp3.o
__aeabi_fmul                                      c:/program files (x86)/gnu tools arm embedded/9 2019-q4-major/bin/../lib/gcc/arm-none-eabi/9.2.1/thumb/v7-m/nofp\libgcc.a(_arm_muldivsf3.o)
                                                  c:/program files (x86)/gnu tools arm embedded/9 2019-q4-major/bin/../lib/gcc/arm-none-eabi/9.2.1/thumb/v7-m/nofp\libgcc.a(_arm_mulsf3.o)
                                                  FLASH_RUN/mp3.o
__aeabi_frsub                                     c:/program files (x86)/gnu tools arm embedded/9 2019-q4-major/bin/../lib/gcc/arm-none-eabi/9.2.1/thumb/v7-m/nofp\libgcc.a(_arm_addsubsf3.o)
__aeabi_fsub                                      c:/program files (x86)/gnu tools arm embedded/9 2019-q4-major/bin/../lib/gcc/arm-none-eabi/9.2.1/thumb/v7-m/nofp\libgcc.a(_arm_addsubsf3.o)
__aeabi_i2d                                       c:/program files (x86)/gnu tools arm embedded/9 2019-q4-major/bin/../lib/gcc/arm-none-eabi/9.2.1/thumb/v7-m/nofp\libgcc.a(_arm_addsubdf3.o)
                                                  c:/program files (x86)/gnu tools arm embedded/9 2019-q4-major/bin/../lib/gcc/arm-none-eabi/9.2.1/../../../../arm-none-eabi/lib/thumb/v7-m/nofp\libc.a(lib_a-dtoa.o)
                                                  c:/program files (x86)/gnu tools arm embedded/9 2019-q4-major/bin/../lib/gcc/arm-none-eabi/9.2.1/../../../../arm-none-eabi/lib/thumb/v7-m/nofp\libc.a(lib_a-svfprintf.o)
__aeabi_i2f                                       c:/program files (x86)/gnu tools arm embedded/9 2019-q4-major/bin/../lib/gcc/arm-none-eabi/9.2.1/thumb/v7-m/nofp\libgcc.a(_arm_addsubsf3.o)
                                                  FLASH_RUN/mp3.o
__aeabi_idiv0                                     c:/program files (x86)/gnu tools arm embedded/9 2019-q4-major/bin/../lib/gcc/arm-none-eabi/9.2.1/thumb/v7-m/nofp\libgcc.a(_dvmd_tls.o)
__aeabi_l2d                                       c:/program files (x86)/gnu tools arm embedded/9 2019-q4-major/bin/../lib/gcc/arm-none-eabi/9.2.1/thumb/v7-m/nofp\libgcc.a(_arm_addsubdf3.o)
__aeabi_l2f                                       c:/program files (x86)/gnu tools arm embedded/9 2019-q4-major/bin/../lib/gcc/arm-none-eabi/9.2.1/thumb/v7-m/nofp\libgcc.a(_arm_addsubsf3.o)
__aeabi_ldiv0                                     c:/program files (x86)/gnu tools arm embedded/9 2019-q4-major/bin/../lib/gcc/arm-none-eabi/9.2.1/thumb/v7-m/nofp\libgcc.a(_dvmd_tls.o)
                                                  c:/program files (x86)/gnu tools arm embedded/9 2019-q4-major/bin/../lib/gcc/arm-none-eabi/9.2.1/thumb/v7-m/nofp\libgcc.a(_aeabi_uldivmod.o)
__aeabi_ui2d                                      c:/program files (x86)/gnu tools arm embedded/9 2019-q4-major/bin/../lib/gcc/arm-none-eabi/9.2.1/thumb/v7-m/nofp\libgcc.a(_arm_addsubdf3.o)
                                                  c:/program files (x86)/gnu tools arm embedded/9 2019-q4-major/bin/../lib/gcc/arm-none-eabi/9.2.1/../../../../arm-none-eabi/lib/thumb/v7-m/nofp\libc.a(lib_a-dtoa.o)
                                                  FLASH_RUN/ads7843.o
__aeabi_ui2f                                      c:/program files (x86)/gnu tools arm embedded/9 2019-q4-major/bin/../lib/gcc/arm-none-eabi/9.2.1/thumb/v7-m/nofp\libgcc.a(_arm_addsubsf3.o)
                                                  FLASH_RUN/mp3.o
__aeabi_ul2d                                      c:/program files (x86)/gnu tools arm embedded/9 2019-q4-major/bin/../lib/gcc/arm-none-eabi/9.2.1/thumb/v7-m/nofp\libgcc.a(_arm_addsubdf3.o)
__aeabi_ul2f                                      c:/program files (x86)/gnu tools arm embedded/9 2019-q4-major/bin/../lib/gcc/arm-none-eabi/9.2.1/thumb/v7-m/nofp\libgcc.a(_arm_addsubsf3.o)
__aeabi_uldivmod                                  c:/program files (x86)/gnu tools arm embedded/9 2019-q4-major/bin/../lib/gcc/arm-none-eabi/9.2.1/thumb/v7-m/nofp\libgcc.a(_aeabi_uldivmod.o)
                                                  c:/program files (x86)/gnu tools arm embedded/9 2019-q4-major/bin/../lib/gcc/arm-none-eabi/9.2.1/../../../../arm-none-eabi/lib/thumb/v7-m/nofp\libc.a(lib_a-svfiprintf.o)
                                                  c:/program files (x86)/gnu tools arm embedded/9 2019-q4-major/bin/../lib/gcc/arm-none-eabi/9.2.1/../../../../arm-none-eabi/lib/thumb/v7-m/nofp\libc.a(lib_a-svfprintf.o)
__any_on                                          c:/program files (x86)/gnu tools arm embedded/9 2019-q4-major/bin/../lib/gcc/arm-none-eabi/9.2.1/../../../../arm-none-eabi/lib/thumb/v7-m/nofp\libc.a(lib_a-mprec.o)
__ascii_mbtowc                                    c:/program files (x86)/gnu tools arm embedded/9 2019-q4-major/bin/../lib/gcc/arm-none-eabi/9.2.1/../../../../arm-none-eabi/lib/thumb/v7-m/nofp\libc.a(lib_a-mbtowc_r.o)
                                                  c:/program files (x86)/gnu tools arm embedded/9 2019-q4-major/bin/../lib/gcc/arm-none-eabi/9.2.1/../../../../arm-none-eabi/lib/thumb/v7-m/nofp\libc.a(lib_a-locale.o)
__ascii_wctomb                                    c:/program files (x86)/gnu tools arm embedded/9 2019-q4-major/bin/../lib/gcc/arm-none-eabi/9.2.1/../../../../arm-none-eabi/lib/thumb/v7-m/nofp\libc.a(lib_a-wctomb_r.o)
                                                  c:/program files (x86)/gnu tools arm embedded/9 2019-q4-major/bin/../lib/gcc/arm-none-eabi/9.2.1/../../../../arm-none-eabi/lib/thumb/v7-m/nofp\libc.a(lib_a-locale.o)
__b2d                                             c:/program files (x86)/gnu tools arm embedded/9 2019-q4-major/bin/../lib/gcc/arm-none-eabi/9.2.1/../../../../arm-none-eabi/lib/thumb/v7-m/nofp\libc.a(lib_a-mprec.o)
__cmpdf2                                          c:/program files (x86)/gnu tools arm embedded/9 2019-q4-major/bin/../lib/gcc/arm-none-eabi/9.2.1/thumb/v7-m/nofp\libgcc.a(_arm_cmpdf2.o)
__cmpsf2                                          c:/program files (x86)/gnu tools arm embedded/9 2019-q4-major/bin/../lib/gcc/arm-none-eabi/9.2.1/thumb/v7-m/nofp\libgcc.a(_arm_cmpsf2.o)
__copybits                                        c:/program files (x86)/gnu tools arm embedded/9 2019-q4-major/bin/../lib/gcc/arm-none-eabi/9.2.1/../../../../arm-none-eabi/lib/thumb/v7-m/nofp\libc.a(lib_a-mprec.o)
__d2b                                             c:/program files (x86)/gnu tools arm embedded/9 2019-q4-major/bin/../lib/gcc/arm-none-eabi/9.2.1/../../../../arm-none-eabi/lib/thumb/v7-m/nofp\libc.a(lib_a-mprec.o)
                                                  c:/program files (x86)/gnu tools arm embedded/9 2019-q4-major/bin/../lib/gcc/arm-none-eabi/9.2.1/../../../../arm-none-eabi/lib/thumb/v7-m/nofp\libc.a(lib_a-dtoa.o)
__divdf3                                          c:/program files (x86)/gnu tools arm embedded/9 2019-q4-major/bin/../lib/gcc/arm-none-eabi/9.2.1/thumb/v7-m/nofp\libgcc.a(_arm_muldivdf3.o)
__divsf3                                          c:/program files (x86)/gnu tools arm embedded/9 2019-q4-major/bin/../lib/gcc/arm-none-eabi/9.2.1/thumb/v7-m/nofp\libgcc.a(_arm_muldivsf3.o)
__eqdf2                                           c:/program files (x86)/gnu tools arm embedded/9 2019-q4-major/bin/../lib/gcc/arm-none-eabi/9.2.1/thumb/v7-m/nofp\libgcc.a(_arm_cmpdf2.o)
__eqsf2                                           c:/program files (x86)/gnu tools arm embedded/9 2019-q4-major/bin/../lib/gcc/arm-none-eabi/9.2.1/thumb/v7-m/nofp\libgcc.a(_arm_cmpsf2.o)
__errno                                           c:/program files (x86)/gnu tools arm embedded/9 2019-q4-major/bin/../lib/gcc/arm-none-eabi/9.2.1/../../../../arm-none-eabi/lib/thumb/v7-m/nofp\libc.a(lib_a-errno.o)
                                                  c:/program files (x86)/gnu tools arm embedded/9 2019-q4-major/bin/../lib/gcc/arm-none-eabi/9.2.1/../../../../arm-none-eabi/lib/thumb/v7-m/nofp\libm.a(lib_a-w_sqrt.o)
                                                  FLASH_RUN/core.o
__extendsfdf2                                     c:/program files (x86)/gnu tools arm embedded/9 2019-q4-major/bin/../lib/gcc/arm-none-eabi/9.2.1/thumb/v7-m/nofp\libgcc.a(_arm_addsubdf3.o)
__fdlib_version                                   c:/program files (x86)/gnu tools arm embedded/9 2019-q4-major/bin/../lib/gcc/arm-none-eabi/9.2.1/../../../../arm-none-eabi/lib/thumb/v7-m/nofp\libm.a(lib_a-s_lib_ver.o)
                                                  c:/program files (x86)/gnu tools arm embedded/9 2019-q4-major/bin/../lib/gcc/arm-none-eabi/9.2.1/../../../../arm-none-eabi/lib/thumb/v7-m/nofp\libm.a(lib_a-w_sqrt.o)
__fixdfsi                                         c:/program files (x86)/gnu tools arm embedded/9 2019-q4-major/bin/../lib/gcc/arm-none-eabi/9.2.1/thumb/v7-m/nofp\libgcc.a(_arm_fixdfsi.o)
__fixunsdfsi                                      c:/program files (x86)/gnu tools arm embedded/9 2019-q4-major/bin/../lib/gcc/arm-none-eabi/9.2.1/thumb/v7-m/nofp\libgcc.a(_arm_fixunsdfsi.o)
__fixunssfsi                                      c:/program files (x86)/gnu tools arm embedded/9 2019-q4-major/bin/../lib/gcc/arm-none-eabi/9.2.1/thumb/v7-m/nofp\libgcc.a(_arm_fixunssfsi.o)
__floatdidf                                       c:/program files (x86)/gnu tools arm embedded/9 2019-q4-major/bin/../lib/gcc/arm-none-eabi/9.2.1/thumb/v7-m/nofp\libgcc.a(_arm_addsubdf3.o)
__floatdisf                                       c:/program files (x86)/gnu tools arm embedded/9 2019-q4-major/bin/../lib/gcc/arm-none-eabi/9.2.1/thumb/v7-m/nofp\libgcc.a(_arm_addsubsf3.o)
__floatsidf                                       c:/program files (x86)/gnu tools arm embedded/9 2019-q4-major/bin/../lib/gcc/arm-none-eabi/9.2.1/thumb/v7-m/nofp\libgcc.a(_arm_addsubdf3.o)
__floatsisf                                       c:/program files (x86)/gnu tools arm embedded/9 2019-q4-major/bin/../lib/gcc/arm-none-eabi/9.2.1/thumb/v7-m/nofp\libgcc.a(_arm_addsubsf3.o)
__floatundidf                                     c:/program files (x86)/gnu tools arm embedded/9 2019-q4-major/bin/../lib/gcc/arm-none-eabi/9.2.1/thumb/v7-m/nofp\libgcc.a(_arm_addsubdf3.o)
__floatundisf                                     c:/program files (x86)/gnu tools arm embedded/9 2019-q4-major/bin/../lib/gcc/arm-none-eabi/9.2.1/thumb/v7-m/nofp\libgcc.a(_arm_addsubsf3.o)
__floatunsidf                                     c:/program files (x86)/gnu tools arm embedded/9 2019-q4-major/bin/../lib/gcc/arm-none-eabi/9.2.1/thumb/v7-m/nofp\libgcc.a(_arm_addsubdf3.o)
__floatunsisf                                     c:/program files (x86)/gnu tools arm embedded/9 2019-q4-major/bin/../lib/gcc/arm-none-eabi/9.2.1/thumb/v7-m/nofp\libgcc.a(_arm_addsubsf3.o)
__gedf2                                           c:/program files (x86)/gnu tools arm embedded/9 2019-q4-major/bin/../lib/gcc/arm-none-eabi/9.2.1/thumb/v7-m/nofp\libgcc.a(_arm_cmpdf2.o)
__gesf2                                           c:/program files (x86)/gnu tools arm embedded/9 2019-q4-major/bin/../lib/gcc/arm-none-eabi/9.2.1/thumb/v7-m/nofp\libgcc.a(_arm_cmpsf2.o)
__get_MSP                                         FLASH_RUN/core.o
__global_locale                                   c:/program files (x86)/gnu tools arm embedded/9 2019-q4-major/bin/../lib/gcc/arm-none-eabi/9.2.1/../../../../arm-none-eabi/lib/thumb/v7-m/nofp\libc.a(lib_a-locale.o)
                                                  c:/program files (x86)/gnu tools arm embedded/9 2019-q4-major/bin/../lib/gcc/arm-none-eabi/9.2.1/../../../../arm-none-eabi/lib/thumb/v7-m/nofp\libc.a(lib_a-wctomb_r.o)
                                                  c:/program files (x86)/gnu tools arm embedded/9 2019-q4-major/bin/../lib/gcc/arm-none-eabi/9.2.1/../../../../arm-none-eabi/lib/thumb/v7-m/nofp\libc.a(lib_a-mbtowc_r.o)
                                                  c:/program files (x86)/gnu tools arm embedded/9 2019-q4-major/bin/../lib/gcc/arm-none-eabi/9.2.1/../../../../arm-none-eabi/lib/thumb/v7-m/nofp\libc.a(lib_a-localeconv.o)
__gtdf2                                           c:/program files (x86)/gnu tools arm embedded/9 2019-q4-major/bin/../lib/gcc/arm-none-eabi/9.2.1/thumb/v7-m/nofp\libgcc.a(_arm_cmpdf2.o)
__gtsf2                                           c:/program files (x86)/gnu tools arm embedded/9 2019-q4-major/bin/../lib/gcc/arm-none-eabi/9.2.1/thumb/v7-m/nofp\libgcc.a(_arm_cmpsf2.o)
__hi0bits                                         c:/program files (x86)/gnu tools arm embedded/9 2019-q4-major/bin/../lib/gcc/arm-none-eabi/9.2.1/../../../../arm-none-eabi/lib/thumb/v7-m/nofp\libc.a(lib_a-mprec.o)
                                                  c:/program files (x86)/gnu tools arm embedded/9 2019-q4-major/bin/../lib/gcc/arm-none-eabi/9.2.1/../../../../arm-none-eabi/lib/thumb/v7-m/nofp\libc.a(lib_a-dtoa.o)
__i2b                                             c:/program files (x86)/gnu tools arm embedded/9 2019-q4-major/bin/../lib/gcc/arm-none-eabi/9.2.1/../../../../arm-none-eabi/lib/thumb/v7-m/nofp\libc.a(lib_a-mprec.o)
                                                  c:/program files (x86)/gnu tools arm embedded/9 2019-q4-major/bin/../lib/gcc/arm-none-eabi/9.2.1/../../../../arm-none-eabi/lib/thumb/v7-m/nofp\libc.a(lib_a-dtoa.o)
__ieee754_sqrt                                    c:/program files (x86)/gnu tools arm embedded/9 2019-q4-major/bin/../lib/gcc/arm-none-eabi/9.2.1/../../../../arm-none-eabi/lib/thumb/v7-m/nofp\libm.a(lib_a-e_sqrt.o)
                                                  c:/program files (x86)/gnu tools arm embedded/9 2019-q4-major/bin/../lib/gcc/arm-none-eabi/9.2.1/../../../../arm-none-eabi/lib/thumb/v7-m/nofp\libm.a(lib_a-w_sqrt.o)
__ledf2                                           c:/program files (x86)/gnu tools arm embedded/9 2019-q4-major/bin/../lib/gcc/arm-none-eabi/9.2.1/thumb/v7-m/nofp\libgcc.a(_arm_cmpdf2.o)
__lesf2                                           c:/program files (x86)/gnu tools arm embedded/9 2019-q4-major/bin/../lib/gcc/arm-none-eabi/9.2.1/thumb/v7-m/nofp\libgcc.a(_arm_cmpsf2.o)
__lo0bits                                         c:/program files (x86)/gnu tools arm embedded/9 2019-q4-major/bin/../lib/gcc/arm-none-eabi/9.2.1/../../../../arm-none-eabi/lib/thumb/v7-m/nofp\libc.a(lib_a-mprec.o)
__locale_mb_cur_max                               c:/program files (x86)/gnu tools arm embedded/9 2019-q4-major/bin/../lib/gcc/arm-none-eabi/9.2.1/../../../../arm-none-eabi/lib/thumb/v7-m/nofp\libc.a(lib_a-locale.o)
__localeconv_l                                    c:/program files (x86)/gnu tools arm embedded/9 2019-q4-major/bin/../lib/gcc/arm-none-eabi/9.2.1/../../../../arm-none-eabi/lib/thumb/v7-m/nofp\libc.a(lib_a-localeconv.o)
__lock___arc4random_mutex                         c:/program files (x86)/gnu tools arm embedded/9 2019-q4-major/bin/../lib/gcc/arm-none-eabi/9.2.1/../../../../arm-none-eabi/lib/thumb/v7-m/nofp\libc.a(lib_a-lock.o)
__lock___at_quick_exit_mutex                      c:/program files (x86)/gnu tools arm embedded/9 2019-q4-major/bin/../lib/gcc/arm-none-eabi/9.2.1/../../../../arm-none-eabi/lib/thumb/v7-m/nofp\libc.a(lib_a-lock.o)
__lock___atexit_recursive_mutex                   c:/program files (x86)/gnu tools arm embedded/9 2019-q4-major/bin/../lib/gcc/arm-none-eabi/9.2.1/../../../../arm-none-eabi/lib/thumb/v7-m/nofp\libc.a(lib_a-lock.o)
__lock___dd_hash_mutex                            c:/program files (x86)/gnu tools arm embedded/9 2019-q4-major/bin/../lib/gcc/arm-none-eabi/9.2.1/../../../../arm-none-eabi/lib/thumb/v7-m/nofp\libc.a(lib_a-lock.o)
__lock___env_recursive_mutex                      c:/program files (x86)/gnu tools arm embedded/9 2019-q4-major/bin/../lib/gcc/arm-none-eabi/9.2.1/../../../../arm-none-eabi/lib/thumb/v7-m/nofp\libc.a(lib_a-lock.o)
__lock___malloc_recursive_mutex                   c:/program files (x86)/gnu tools arm embedded/9 2019-q4-major/bin/../lib/gcc/arm-none-eabi/9.2.1/../../../../arm-none-eabi/lib/thumb/v7-m/nofp\libc.a(lib_a-lock.o)
                                                  c:/program files (x86)/gnu tools arm embedded/9 2019-q4-major/bin/../lib/gcc/arm-none-eabi/9.2.1/../../../../arm-none-eabi/lib/thumb/v7-m/nofp\libc.a(lib_a-mlock.o)
__lock___sfp_recursive_mutex                      c:/program files (x86)/gnu tools arm embedded/9 2019-q4-major/bin/../lib/gcc/arm-none-eabi/9.2.1/../../../../arm-none-eabi/lib/thumb/v7-m/nofp\libc.a(lib_a-lock.o)
__lock___sinit_recursive_mutex                    c:/program files (x86)/gnu tools arm embedded/9 2019-q4-major/bin/../lib/gcc/arm-none-eabi/9.2.1/../../../../arm-none-eabi/lib/thumb/v7-m/nofp\libc.a(lib_a-lock.o)
__lock___tz_mutex                                 c:/program files (x86)/gnu tools arm embedded/9 2019-q4-major/bin/../lib/gcc/arm-none-eabi/9.2.1/../../../../arm-none-eabi/lib/thumb/v7-m/nofp\libc.a(lib_a-lock.o)
__lshift                                          c:/program files (x86)/gnu tools arm embedded/9 2019-q4-major/bin/../lib/gcc/arm-none-eabi/9.2.1/../../../../arm-none-eabi/lib/thumb/v7-m/nofp\libc.a(lib_a-mprec.o)
                                                  c:/program files (x86)/gnu tools arm embedded/9 2019-q4-major/bin/../lib/gcc/arm-none-eabi/9.2.1/../../../../arm-none-eabi/lib/thumb/v7-m/nofp\libc.a(lib_a-dtoa.o)
__ltdf2                                           c:/program files (x86)/gnu tools arm embedded/9 2019-q4-major/bin/../lib/gcc/arm-none-eabi/9.2.1/thumb/v7-m/nofp\libgcc.a(_arm_cmpdf2.o)
__ltsf2                                           c:/program files (x86)/gnu tools arm embedded/9 2019-q4-major/bin/../lib/gcc/arm-none-eabi/9.2.1/thumb/v7-m/nofp\libgcc.a(_arm_cmpsf2.o)
__malloc_av_                                      c:/program files (x86)/gnu tools arm embedded/9 2019-q4-major/bin/../lib/gcc/arm-none-eabi/9.2.1/../../../../arm-none-eabi/lib/thumb/v7-m/nofp\libc.a(lib_a-mallocr.o)
                                                  c:/program files (x86)/gnu tools arm embedded/9 2019-q4-major/bin/../lib/gcc/arm-none-eabi/9.2.1/../../../../arm-none-eabi/lib/thumb/v7-m/nofp\libc.a(lib_a-reallocr.o)
                                                  c:/program files (x86)/gnu tools arm embedded/9 2019-q4-major/bin/../lib/gcc/arm-none-eabi/9.2.1/../../../../arm-none-eabi/lib/thumb/v7-m/nofp\libc.a(lib_a-freer.o)
__malloc_current_mallinfo                         c:/program files (x86)/gnu tools arm embedded/9 2019-q4-major/bin/../lib/gcc/arm-none-eabi/9.2.1/../../../../arm-none-eabi/lib/thumb/v7-m/nofp\libc.a(lib_a-mallocr.o)
                                                  c:/program files (x86)/gnu tools arm embedded/9 2019-q4-major/bin/../lib/gcc/arm-none-eabi/9.2.1/../../../../arm-none-eabi/lib/thumb/v7-m/nofp\libc.a(lib_a-freer.o)
__malloc_lock                                     c:/program files (x86)/gnu tools arm embedded/9 2019-q4-major/bin/../lib/gcc/arm-none-eabi/9.2.1/../../../../arm-none-eabi/lib/thumb/v7-m/nofp\libc.a(lib_a-mlock.o)
                                                  c:/program files (x86)/gnu tools arm embedded/9 2019-q4-major/bin/../lib/gcc/arm-none-eabi/9.2.1/../../../../arm-none-eabi/lib/thumb/v7-m/nofp\libc.a(lib_a-reallocr.o)
                                                  c:/program files (x86)/gnu tools arm embedded/9 2019-q4-major/bin/../lib/gcc/arm-none-eabi/9.2.1/../../../../arm-none-eabi/lib/thumb/v7-m/nofp\libc.a(lib_a-freer.o)
                                                  c:/program files (x86)/gnu tools arm embedded/9 2019-q4-major/bin/../lib/gcc/arm-none-eabi/9.2.1/../../../../arm-none-eabi/lib/thumb/v7-m/nofp\libc.a(lib_a-mallocr.o)
__malloc_max_sbrked_mem                           c:/program files (x86)/gnu tools arm embedded/9 2019-q4-major/bin/../lib/gcc/arm-none-eabi/9.2.1/../../../../arm-none-eabi/lib/thumb/v7-m/nofp\libc.a(lib_a-mallocr.o)
__malloc_max_total_mem                            c:/program files (x86)/gnu tools arm embedded/9 2019-q4-major/bin/../lib/gcc/arm-none-eabi/9.2.1/../../../../arm-none-eabi/lib/thumb/v7-m/nofp\libc.a(lib_a-mallocr.o)
__malloc_sbrk_base                                c:/program files (x86)/gnu tools arm embedded/9 2019-q4-major/bin/../lib/gcc/arm-none-eabi/9.2.1/../../../../arm-none-eabi/lib/thumb/v7-m/nofp\libc.a(lib_a-mallocr.o)
                                                  c:/program files (x86)/gnu tools arm embedded/9 2019-q4-major/bin/../lib/gcc/arm-none-eabi/9.2.1/../../../../arm-none-eabi/lib/thumb/v7-m/nofp\libc.a(lib_a-freer.o)
__malloc_top_pad                                  c:/program files (x86)/gnu tools arm embedded/9 2019-q4-major/bin/../lib/gcc/arm-none-eabi/9.2.1/../../../../arm-none-eabi/lib/thumb/v7-m/nofp\libc.a(lib_a-mallocr.o)
                                                  c:/program files (x86)/gnu tools arm embedded/9 2019-q4-major/bin/../lib/gcc/arm-none-eabi/9.2.1/../../../../arm-none-eabi/lib/thumb/v7-m/nofp\libc.a(lib_a-freer.o)
__malloc_trim_threshold                           c:/program files (x86)/gnu tools arm embedded/9 2019-q4-major/bin/../lib/gcc/arm-none-eabi/9.2.1/../../../../arm-none-eabi/lib/thumb/v7-m/nofp\libc.a(lib_a-mallocr.o)
                                                  c:/program files (x86)/gnu tools arm embedded/9 2019-q4-major/bin/../lib/gcc/arm-none-eabi/9.2.1/../../../../arm-none-eabi/lib/thumb/v7-m/nofp\libc.a(lib_a-freer.o)
__malloc_unlock                                   c:/program files (x86)/gnu tools arm embedded/9 2019-q4-major/bin/../lib/gcc/arm-none-eabi/9.2.1/../../../../arm-none-eabi/lib/thumb/v7-m/nofp\libc.a(lib_a-mlock.o)
                                                  c:/program files (x86)/gnu tools arm embedded/9 2019-q4-major/bin/../lib/gcc/arm-none-eabi/9.2.1/../../../../arm-none-eabi/lib/thumb/v7-m/nofp\libc.a(lib_a-reallocr.o)
                                                  c:/program files (x86)/gnu tools arm embedded/9 2019-q4-major/bin/../lib/gcc/arm-none-eabi/9.2.1/../../../../arm-none-eabi/lib/thumb/v7-m/nofp\libc.a(lib_a-freer.o)
                                                  c:/program files (x86)/gnu tools arm embedded/9 2019-q4-major/bin/../lib/gcc/arm-none-eabi/9.2.1/../../../../arm-none-eabi/lib/thumb/v7-m/nofp\libc.a(lib_a-mallocr.o)
__mcmp                                            c:/program files (x86)/gnu tools arm embedded/9 2019-q4-major/bin/../lib/gcc/arm-none-eabi/9.2.1/../../../../arm-none-eabi/lib/thumb/v7-m/nofp\libc.a(lib_a-mprec.o)
                                                  c:/program files (x86)/gnu tools arm embedded/9 2019-q4-major/bin/../lib/gcc/arm-none-eabi/9.2.1/../../../../arm-none-eabi/lib/thumb/v7-m/nofp\libc.a(lib_a-dtoa.o)
__mdiff                                           c:/program files (x86)/gnu tools arm embedded/9 2019-q4-major/bin/../lib/gcc/arm-none-eabi/9.2.1/../../../../arm-none-eabi/lib/thumb/v7-m/nofp\libc.a(lib_a-mprec.o)
                                                  c:/program files (x86)/gnu tools arm embedded/9 2019-q4-major/bin/../lib/gcc/arm-none-eabi/9.2.1/../../../../arm-none-eabi/lib/thumb/v7-m/nofp\libc.a(lib_a-dtoa.o)
__mprec_bigtens                                   c:/program files (x86)/gnu tools arm embedded/9 2019-q4-major/bin/../lib/gcc/arm-none-eabi/9.2.1/../../../../arm-none-eabi/lib/thumb/v7-m/nofp\libc.a(lib_a-mprec.o)
                                                  c:/program files (x86)/gnu tools arm embedded/9 2019-q4-major/bin/../lib/gcc/arm-none-eabi/9.2.1/../../../../arm-none-eabi/lib/thumb/v7-m/nofp\libc.a(lib_a-dtoa.o)
__mprec_tens                                      c:/program files (x86)/gnu tools arm embedded/9 2019-q4-major/bin/../lib/gcc/arm-none-eabi/9.2.1/../../../../arm-none-eabi/lib/thumb/v7-m/nofp\libc.a(lib_a-mprec.o)
                                                  c:/program files (x86)/gnu tools arm embedded/9 2019-q4-major/bin/../lib/gcc/arm-none-eabi/9.2.1/../../../../arm-none-eabi/lib/thumb/v7-m/nofp\libc.a(lib_a-dtoa.o)
__mprec_tinytens                                  c:/program files (x86)/gnu tools arm embedded/9 2019-q4-major/bin/../lib/gcc/arm-none-eabi/9.2.1/../../../../arm-none-eabi/lib/thumb/v7-m/nofp\libc.a(lib_a-mprec.o)
__muldf3                                          c:/program files (x86)/gnu tools arm embedded/9 2019-q4-major/bin/../lib/gcc/arm-none-eabi/9.2.1/thumb/v7-m/nofp\libgcc.a(_arm_muldivdf3.o)
                                                  c:/program files (x86)/gnu tools arm embedded/9 2019-q4-major/bin/../lib/gcc/arm-none-eabi/9.2.1/thumb/v7-m/nofp\libgcc.a(_arm_muldf3.o)
__mulsf3                                          c:/program files (x86)/gnu tools arm embedded/9 2019-q4-major/bin/../lib/gcc/arm-none-eabi/9.2.1/thumb/v7-m/nofp\libgcc.a(_arm_muldivsf3.o)
                                                  c:/program files (x86)/gnu tools arm embedded/9 2019-q4-major/bin/../lib/gcc/arm-none-eabi/9.2.1/thumb/v7-m/nofp\libgcc.a(_arm_mulsf3.o)
__multadd                                         c:/program files (x86)/gnu tools arm embedded/9 2019-q4-major/bin/../lib/gcc/arm-none-eabi/9.2.1/../../../../arm-none-eabi/lib/thumb/v7-m/nofp\libc.a(lib_a-mprec.o)
                                                  c:/program files (x86)/gnu tools arm embedded/9 2019-q4-major/bin/../lib/gcc/arm-none-eabi/9.2.1/../../../../arm-none-eabi/lib/thumb/v7-m/nofp\libc.a(lib_a-dtoa.o)
__multiply                                        c:/program files (x86)/gnu tools arm embedded/9 2019-q4-major/bin/../lib/gcc/arm-none-eabi/9.2.1/../../../../arm-none-eabi/lib/thumb/v7-m/nofp\libc.a(lib_a-mprec.o)
                                                  c:/program files (x86)/gnu tools arm embedded/9 2019-q4-major/bin/../lib/gcc/arm-none-eabi/9.2.1/../../../../arm-none-eabi/lib/thumb/v7-m/nofp\libc.a(lib_a-dtoa.o)
__nedf2                                           c:/program files (x86)/gnu tools arm embedded/9 2019-q4-major/bin/../lib/gcc/arm-none-eabi/9.2.1/thumb/v7-m/nofp\libgcc.a(_arm_cmpdf2.o)
__nesf2                                           c:/program files (x86)/gnu tools arm embedded/9 2019-q4-major/bin/../lib/gcc/arm-none-eabi/9.2.1/thumb/v7-m/nofp\libgcc.a(_arm_cmpsf2.o)
__pow5mult                                        c:/program files (x86)/gnu tools arm embedded/9 2019-q4-major/bin/../lib/gcc/arm-none-eabi/9.2.1/../../../../arm-none-eabi/lib/thumb/v7-m/nofp\libc.a(lib_a-mprec.o)
                                                  c:/program files (x86)/gnu tools arm embedded/9 2019-q4-major/bin/../lib/gcc/arm-none-eabi/9.2.1/../../../../arm-none-eabi/lib/thumb/v7-m/nofp\libc.a(lib_a-dtoa.o)
__ratio                                           c:/program files (x86)/gnu tools arm embedded/9 2019-q4-major/bin/../lib/gcc/arm-none-eabi/9.2.1/../../../../arm-none-eabi/lib/thumb/v7-m/nofp\libc.a(lib_a-mprec.o)
__retarget_lock_acquire                           c:/program files (x86)/gnu tools arm embedded/9 2019-q4-major/bin/../lib/gcc/arm-none-eabi/9.2.1/../../../../arm-none-eabi/lib/thumb/v7-m/nofp\libc.a(lib_a-lock.o)
__retarget_lock_acquire_recursive                 c:/program files (x86)/gnu tools arm embedded/9 2019-q4-major/bin/../lib/gcc/arm-none-eabi/9.2.1/../../../../arm-none-eabi/lib/thumb/v7-m/nofp\libc.a(lib_a-lock.o)
                                                  c:/program files (x86)/gnu tools arm embedded/9 2019-q4-major/bin/../lib/gcc/arm-none-eabi/9.2.1/../../../../arm-none-eabi/lib/thumb/v7-m/nofp\libc.a(lib_a-mlock.o)
__retarget_lock_close                             c:/program files (x86)/gnu tools arm embedded/9 2019-q4-major/bin/../lib/gcc/arm-none-eabi/9.2.1/../../../../arm-none-eabi/lib/thumb/v7-m/nofp\libc.a(lib_a-lock.o)
__retarget_lock_close_recursive                   c:/program files (x86)/gnu tools arm embedded/9 2019-q4-major/bin/../lib/gcc/arm-none-eabi/9.2.1/../../../../arm-none-eabi/lib/thumb/v7-m/nofp\libc.a(lib_a-lock.o)
__retarget_lock_init                              c:/program files (x86)/gnu tools arm embedded/9 2019-q4-major/bin/../lib/gcc/arm-none-eabi/9.2.1/../../../../arm-none-eabi/lib/thumb/v7-m/nofp\libc.a(lib_a-lock.o)
__retarget_lock_init_recursive                    c:/program files (x86)/gnu tools arm embedded/9 2019-q4-major/bin/../lib/gcc/arm-none-eabi/9.2.1/../../../../arm-none-eabi/lib/thumb/v7-m/nofp\libc.a(lib_a-lock.o)
__retarget_lock_release                           c:/program files (x86)/gnu tools arm embedded/9 2019-q4-major/bin/../lib/gcc/arm-none-eabi/9.2.1/../../../../arm-none-eabi/lib/thumb/v7-m/nofp\libc.a(lib_a-lock.o)
__retarget_lock_release_recursive                 c:/program files (x86)/gnu tools arm embedded/9 2019-q4-major/bin/../lib/gcc/arm-none-eabi/9.2.1/../../../../arm-none-eabi/lib/thumb/v7-m/nofp\libc.a(lib_a-lock.o)
                                                  c:/program files (x86)/gnu tools arm embedded/9 2019-q4-major/bin/../lib/gcc/arm-none-eabi/9.2.1/../../../../arm-none-eabi/lib/thumb/v7-m/nofp\libc.a(lib_a-mlock.o)
__retarget_lock_try_acquire                       c:/program files (x86)/gnu tools arm embedded/9 2019-q4-major/bin/../lib/gcc/arm-none-eabi/9.2.1/../../../../arm-none-eabi/lib/thumb/v7-m/nofp\libc.a(lib_a-lock.o)
__retarget_lock_try_acquire_recursive             c:/program files (x86)/gnu tools arm embedded/9 2019-q4-major/bin/../lib/gcc/arm-none-eabi/9.2.1/../../../../arm-none-eabi/lib/thumb/v7-m/nofp\libc.a(lib_a-lock.o)
__s2b                                             c:/program files (x86)/gnu tools arm embedded/9 2019-q4-major/bin/../lib/gcc/arm-none-eabi/9.2.1/../../../../arm-none-eabi/lib/thumb/v7-m/nofp\libc.a(lib_a-mprec.o)
__sigtramp                                        c:/program files (x86)/gnu tools arm embedded/9 2019-q4-major/bin/../lib/gcc/arm-none-eabi/9.2.1/../../../../arm-none-eabi/lib/thumb/v7-m/nofp\libc.a(lib_a-signal.o)
__sigtramp_r                                      c:/program files (x86)/gnu tools arm embedded/9 2019-q4-major/bin/../lib/gcc/arm-none-eabi/9.2.1/../../../../arm-none-eabi/lib/thumb/v7-m/nofp\libc.a(lib_a-signal.o)
__ssprint_r                                       c:/program files (x86)/gnu tools arm embedded/9 2019-q4-major/bin/../lib/gcc/arm-none-eabi/9.2.1/../../../../arm-none-eabi/lib/thumb/v7-m/nofp\libc.a(lib_a-svfiprintf.o)
                                                  c:/program files (x86)/gnu tools arm embedded/9 2019-q4-major/bin/../lib/gcc/arm-none-eabi/9.2.1/../../../../arm-none-eabi/lib/thumb/v7-m/nofp\libc.a(lib_a-svfprintf.o)
__subdf3                                          c:/program files (x86)/gnu tools arm embedded/9 2019-q4-major/bin/../lib/gcc/arm-none-eabi/9.2.1/thumb/v7-m/nofp\libgcc.a(_arm_addsubdf3.o)
__subsf3                                          c:/program files (x86)/gnu tools arm embedded/9 2019-q4-major/bin/../lib/gcc/arm-none-eabi/9.2.1/thumb/v7-m/nofp\libgcc.a(_arm_addsubsf3.o)
__udivmoddi4                                      c:/program files (x86)/gnu tools arm embedded/9 2019-q4-major/bin/../lib/gcc/arm-none-eabi/9.2.1/thumb/v7-m/nofp\libgcc.a(_udivmoddi4.o)
                                                  c:/program files (x86)/gnu tools arm embedded/9 2019-q4-major/bin/../lib/gcc/arm-none-eabi/9.2.1/thumb/v7-m/nofp\libgcc.a(_aeabi_uldivmod.o)
__ulp                                             c:/program files (x86)/gnu tools arm embedded/9 2019-q4-major/bin/../lib/gcc/arm-none-eabi/9.2.1/../../../../arm-none-eabi/lib/thumb/v7-m/nofp\libc.a(lib_a-mprec.o)
__unorddf2                                        c:/program files (x86)/gnu tools arm embedded/9 2019-q4-major/bin/../lib/gcc/arm-none-eabi/9.2.1/thumb/v7-m/nofp\libgcc.a(_arm_unorddf2.o)
_calloc_r                                         c:/program files (x86)/gnu tools arm embedded/9 2019-q4-major/bin/../lib/gcc/arm-none-eabi/9.2.1/../../../../arm-none-eabi/lib/thumb/v7-m/nofp\libc.a(lib_a-callocr.o)
                                                  c:/program files (x86)/gnu tools arm embedded/9 2019-q4-major/bin/../lib/gcc/arm-none-eabi/9.2.1/../../../../arm-none-eabi/lib/thumb/v7-m/nofp\libc.a(lib_a-mprec.o)
_close                                            FLASH_RUN/core.o
_ctype_                                           c:/program files (x86)/gnu tools arm embedded/9 2019-q4-major/bin/../lib/gcc/arm-none-eabi/9.2.1/../../../../arm-none-eabi/lib/thumb/v7-m/nofp\libc.a(lib_a-ctype_.o)
                                                  c:/program files (x86)/gnu tools arm embedded/9 2019-q4-major/bin/../lib/gcc/arm-none-eabi/9.2.1/../../../../arm-none-eabi/lib/thumb/v7-m/nofp\libc.a(lib_a-locale.o)
                                                  c:/program files (x86)/gnu tools arm embedded/9 2019-q4-major/bin/../lib/gcc/arm-none-eabi/9.2.1/../../../../arm-none-eabi/lib/thumb/v7-m/nofp\libc.a(lib_a-strcasecmp.o)
_dtoa_r                                           c:/program files (x86)/gnu tools arm embedded/9 2019-q4-major/bin/../lib/gcc/arm-none-eabi/9.2.1/../../../../arm-none-eabi/lib/thumb/v7-m/nofp\libc.a(lib_a-dtoa.o)
                                                  c:/program files (x86)/gnu tools arm embedded/9 2019-q4-major/bin/../lib/gcc/arm-none-eabi/9.2.1/../../../../arm-none-eabi/lib/thumb/v7-m/nofp\libc.a(lib_a-svfprintf.o)
_ebss                                             /project/stm32fx_lib/stm32f1x_iolib/stm32f1x_iolib_hd_st32_8MHz.a(startup.o)
_edata                                            /project/stm32fx_lib/stm32f1x_iolib/stm32f1x_iolib_hd_st32_8MHz.a(startup.o)
_end                                              FLASH_RUN/core.o
_estack                                           /project/stm32fx_lib/stm32f1x_iolib/stm32f1x_iolib_hd_st32_8MHz.a(startup.o)
_exit                                             FLASH_RUN/core.o
                                                  c:/program files (x86)/gnu tools arm embedded/9 2019-q4-major/bin/../lib/gcc/arm-none-eabi/9.2.1/../../../../arm-none-eabi/lib/thumb/v7-m/nofp\libc.a(lib_a-abort.o)
_free_r                                           c:/program files (x86)/gnu tools arm embedded/9 2019-q4-major/bin/../lib/gcc/arm-none-eabi/9.2.1/../../../../arm-none-eabi/lib/thumb/v7-m/nofp\libc.a(lib_a-freer.o)
                                                  c:/program files (x86)/gnu tools arm embedded/9 2019-q4-major/bin/../lib/gcc/arm-none-eabi/9.2.1/../../../../arm-none-eabi/lib/thumb/v7-m/nofp\libc.a(lib_a-reallocr.o)
                                                  c:/program files (x86)/gnu tools arm embedded/9 2019-q4-major/bin/../lib/gcc/arm-none-eabi/9.2.1/../../../../arm-none-eabi/lib/thumb/v7-m/nofp\libc.a(lib_a-svfiprintf.o)
                                                  c:/program files (x86)/gnu tools arm embedded/9 2019-q4-major/bin/../lib/gcc/arm-none-eabi/9.2.1/../../../../arm-none-eabi/lib/thumb/v7-m/nofp\libc.a(lib_a-svfprintf.o)
                                                  c:/program files (x86)/gnu tools arm embedded/9 2019-q4-major/bin/../lib/gcc/arm-none-eabi/9.2.1/../../../../arm-none-eabi/lib/thumb/v7-m/nofp\libc.a(lib_a-reent.o)
                                                  c:/program files (x86)/gnu tools arm embedded/9 2019-q4-major/bin/../lib/gcc/arm-none-eabi/9.2.1/../../../../arm-none-eabi/lib/thumb/v7-m/nofp\libc.a(lib_a-mallocr.o)
                                                  c:/program files (x86)/gnu tools arm embedded/9 2019-q4-major/bin/../lib/gcc/arm-none-eabi/9.2.1/../../../../arm-none-eabi/lib/thumb/v7-m/nofp\libc.a(lib_a-malloc.o)
_fstat                                            FLASH_RUN/core.o
_getpid                                           FLASH_RUN/core.o
                                                  c:/program files (x86)/gnu tools arm embedded/9 2019-q4-major/bin/../lib/gcc/arm-none-eabi/9.2.1/../../../../arm-none-eabi/lib/thumb/v7-m/nofp\libc.a(lib_a-signalr.o)
_getpid_r                                         c:/program files (x86)/gnu tools arm embedded/9 2019-q4-major/bin/../lib/gcc/arm-none-eabi/9.2.1/../../../../arm-none-eabi/lib/thumb/v7-m/nofp\libc.a(lib_a-signalr.o)
                                                  c:/program files (x86)/gnu tools arm embedded/9 2019-q4-major/bin/../lib/gcc/arm-none-eabi/9.2.1/../../../../arm-none-eabi/lib/thumb/v7-m/nofp\libc.a(lib_a-signal.o)
_global_impure_ptr                                c:/program files (x86)/gnu tools arm embedded/9 2019-q4-major/bin/../lib/gcc/arm-none-eabi/9.2.1/../../../../arm-none-eabi/lib/thumb/v7-m/nofp\libc.a(lib_a-impure.o)
_impure_ptr                                       c:/program files (x86)/gnu tools arm embedded/9 2019-q4-major/bin/../lib/gcc/arm-none-eabi/9.2.1/../../../../arm-none-eabi/lib/thumb/v7-m/nofp\libc.a(lib_a-impure.o)
                                                  c:/program files (x86)/gnu tools arm embedded/9 2019-q4-major/bin/../lib/gcc/arm-none-eabi/9.2.1/../../../../arm-none-eabi/lib/thumb/v7-m/nofp\libc.a(lib_a-locale.o)
                                                  c:/program files (x86)/gnu tools arm embedded/9 2019-q4-major/bin/../lib/gcc/arm-none-eabi/9.2.1/../../../../arm-none-eabi/lib/thumb/v7-m/nofp\libc.a(lib_a-reent.o)
                                                  c:/program files (x86)/gnu tools arm embedded/9 2019-q4-major/bin/../lib/gcc/arm-none-eabi/9.2.1/../../../../arm-none-eabi/lib/thumb/v7-m/nofp\libc.a(lib_a-vsprintf.o)
                                                  c:/program files (x86)/gnu tools arm embedded/9 2019-q4-major/bin/../lib/gcc/arm-none-eabi/9.2.1/../../../../arm-none-eabi/lib/thumb/v7-m/nofp\libc.a(lib_a-signal.o)
                                                  c:/program files (x86)/gnu tools arm embedded/9 2019-q4-major/bin/../lib/gcc/arm-none-eabi/9.2.1/../../../../arm-none-eabi/lib/thumb/v7-m/nofp\libc.a(lib_a-malloc.o)
                                                  c:/program files (x86)/gnu tools arm embedded/9 2019-q4-major/bin/../lib/gcc/arm-none-eabi/9.2.1/../../../../arm-none-eabi/lib/thumb/v7-m/nofp\libc.a(lib_a-errno.o)
_init_signal                                      c:/program files (x86)/gnu tools arm embedded/9 2019-q4-major/bin/../lib/gcc/arm-none-eabi/9.2.1/../../../../arm-none-eabi/lib/thumb/v7-m/nofp\libc.a(lib_a-signal.o)
_init_signal_r                                    c:/program files (x86)/gnu tools arm embedded/9 2019-q4-major/bin/../lib/gcc/arm-none-eabi/9.2.1/../../../../arm-none-eabi/lib/thumb/v7-m/nofp\libc.a(lib_a-signal.o)
_isatty                                           FLASH_RUN/core.o
_isr_vectorsflash_offs                            FLASH_RUN/main.o
_kill                                             FLASH_RUN/core.o
                                                  c:/program files (x86)/gnu tools arm embedded/9 2019-q4-major/bin/../lib/gcc/arm-none-eabi/9.2.1/../../../../arm-none-eabi/lib/thumb/v7-m/nofp\libc.a(lib_a-signalr.o)
_kill_r                                           c:/program files (x86)/gnu tools arm embedded/9 2019-q4-major/bin/../lib/gcc/arm-none-eabi/9.2.1/../../../../arm-none-eabi/lib/thumb/v7-m/nofp\libc.a(lib_a-signalr.o)
                                                  c:/program files (x86)/gnu tools arm embedded/9 2019-q4-major/bin/../lib/gcc/arm-none-eabi/9.2.1/../../../../arm-none-eabi/lib/thumb/v7-m/nofp\libc.a(lib_a-signal.o)
_localeconv_r                                     c:/program files (x86)/gnu tools arm embedded/9 2019-q4-major/bin/../lib/gcc/arm-none-eabi/9.2.1/../../../../arm-none-eabi/lib/thumb/v7-m/nofp\libc.a(lib_a-localeconv.o)
                                                  c:/program files (x86)/gnu tools arm embedded/9 2019-q4-major/bin/../lib/gcc/arm-none-eabi/9.2.1/../../../../arm-none-eabi/lib/thumb/v7-m/nofp\libc.a(lib_a-svfiprintf.o)
                                                  c:/program files (x86)/gnu tools arm embedded/9 2019-q4-major/bin/../lib/gcc/arm-none-eabi/9.2.1/../../../../arm-none-eabi/lib/thumb/v7-m/nofp\libc.a(lib_a-svfprintf.o)
_lseek                                            FLASH_RUN/core.o
_malloc_r                                         c:/program files (x86)/gnu tools arm embedded/9 2019-q4-major/bin/../lib/gcc/arm-none-eabi/9.2.1/../../../../arm-none-eabi/lib/thumb/v7-m/nofp\libc.a(lib_a-mallocr.o)
                                                  c:/program files (x86)/gnu tools arm embedded/9 2019-q4-major/bin/../lib/gcc/arm-none-eabi/9.2.1/../../../../arm-none-eabi/lib/thumb/v7-m/nofp\libc.a(lib_a-reallocr.o)
                                                  c:/program files (x86)/gnu tools arm embedded/9 2019-q4-major/bin/../lib/gcc/arm-none-eabi/9.2.1/../../../../arm-none-eabi/lib/thumb/v7-m/nofp\libc.a(lib_a-callocr.o)
                                                  c:/program files (x86)/gnu tools arm embedded/9 2019-q4-major/bin/../lib/gcc/arm-none-eabi/9.2.1/../../../../arm-none-eabi/lib/thumb/v7-m/nofp\libc.a(lib_a-svfiprintf.o)
                                                  c:/program files (x86)/gnu tools arm embedded/9 2019-q4-major/bin/../lib/gcc/arm-none-eabi/9.2.1/../../../../arm-none-eabi/lib/thumb/v7-m/nofp\libc.a(lib_a-svfprintf.o)
                                                  c:/program files (x86)/gnu tools arm embedded/9 2019-q4-major/bin/../lib/gcc/arm-none-eabi/9.2.1/../../../../arm-none-eabi/lib/thumb/v7-m/nofp\libc.a(lib_a-signal.o)
                                                  c:/program files (x86)/gnu tools arm embedded/9 2019-q4-major/bin/../lib/gcc/arm-none-eabi/9.2.1/../../../../arm-none-eabi/lib/thumb/v7-m/nofp\libc.a(lib_a-malloc.o)
_malloc_trim_r                                    c:/program files (x86)/gnu tools arm embedded/9 2019-q4-major/bin/../lib/gcc/arm-none-eabi/9.2.1/../../../../arm-none-eabi/lib/thumb/v7-m/nofp\libc.a(lib_a-freer.o)
_mbtowc_r                                         c:/program files (x86)/gnu tools arm embedded/9 2019-q4-major/bin/../lib/gcc/arm-none-eabi/9.2.1/../../../../arm-none-eabi/lib/thumb/v7-m/nofp\libc.a(lib_a-mbtowc_r.o)
_mprec_log10                                      c:/program files (x86)/gnu tools arm embedded/9 2019-q4-major/bin/../lib/gcc/arm-none-eabi/9.2.1/../../../../arm-none-eabi/lib/thumb/v7-m/nofp\libc.a(lib_a-mprec.o)
_raise_r                                          c:/program files (x86)/gnu tools arm embedded/9 2019-q4-major/bin/../lib/gcc/arm-none-eabi/9.2.1/../../../../arm-none-eabi/lib/thumb/v7-m/nofp\libc.a(lib_a-signal.o)
_read                                             FLASH_RUN/core.o
_realloc_r                                        c:/program files (x86)/gnu tools arm embedded/9 2019-q4-major/bin/../lib/gcc/arm-none-eabi/9.2.1/../../../../arm-none-eabi/lib/thumb/v7-m/nofp\libc.a(lib_a-reallocr.o)
                                                  c:/program files (x86)/gnu tools arm embedded/9 2019-q4-major/bin/../lib/gcc/arm-none-eabi/9.2.1/../../../../arm-none-eabi/lib/thumb/v7-m/nofp\libc.a(lib_a-svfiprintf.o)
_reclaim_reent                                    c:/program files (x86)/gnu tools arm embedded/9 2019-q4-major/bin/../lib/gcc/arm-none-eabi/9.2.1/../../../../arm-none-eabi/lib/thumb/v7-m/nofp\libc.a(lib_a-reent.o)
_sbrk                                             FLASH_RUN/core.o
                                                  c:/program files (x86)/gnu tools arm embedded/9 2019-q4-major/bin/../lib/gcc/arm-none-eabi/9.2.1/../../../../arm-none-eabi/lib/thumb/v7-m/nofp\libc.a(lib_a-sbrkr.o)
_sbrk_r                                           c:/program files (x86)/gnu tools arm embedded/9 2019-q4-major/bin/../lib/gcc/arm-none-eabi/9.2.1/../../../../arm-none-eabi/lib/thumb/v7-m/nofp\libc.a(lib_a-sbrkr.o)
                                                  c:/program files (x86)/gnu tools arm embedded/9 2019-q4-major/bin/../lib/gcc/arm-none-eabi/9.2.1/../../../../arm-none-eabi/lib/thumb/v7-m/nofp\libc.a(lib_a-freer.o)
                                                  c:/program files (x86)/gnu tools arm embedded/9 2019-q4-major/bin/../lib/gcc/arm-none-eabi/9.2.1/../../../../arm-none-eabi/lib/thumb/v7-m/nofp\libc.a(lib_a-mallocr.o)
_sbss                                             /project/stm32fx_lib/stm32f1x_iolib/stm32f1x_iolib_hd_st32_8MHz.a(startup.o)
_sdata                                            /project/stm32fx_lib/stm32f1x_iolib/stm32f1x_iolib_hd_st32_8MHz.a(startup.o)
_setlocale_r                                      c:/program files (x86)/gnu tools arm embedded/9 2019-q4-major/bin/../lib/gcc/arm-none-eabi/9.2.1/../../../../arm-none-eabi/lib/thumb/v7-m/nofp\libc.a(lib_a-locale.o)
_sidata                                           /project/stm32fx_lib/stm32f1x_iolib/stm32f1x_iolib_hd_st32_8MHz.a(startup.o)
_signal_r                                         c:/program files (x86)/gnu tools arm embedded/9 2019-q4-major/bin/../lib/gcc/arm-none-eabi/9.2.1/../../../../arm-none-eabi/lib/thumb/v7-m/nofp\libc.a(lib_a-signal.o)
_svfiprintf_r                                     c:/program files (x86)/gnu tools arm embedded/9 2019-q4-major/bin/../lib/gcc/arm-none-eabi/9.2.1/../../../../arm-none-eabi/lib/thumb/v7-m/nofp\libc.a(lib_a-svfiprintf.o)
_svfprintf_r                                      c:/program files (x86)/gnu tools arm embedded/9 2019-q4-major/bin/../lib/gcc/arm-none-eabi/9.2.1/../../../../arm-none-eabi/lib/thumb/v7-m/nofp\libc.a(lib_a-svfprintf.o)
                                                  c:/program files (x86)/gnu tools arm embedded/9 2019-q4-major/bin/../lib/gcc/arm-none-eabi/9.2.1/../../../../arm-none-eabi/lib/thumb/v7-m/nofp\libc.a(lib_a-vsprintf.o)
_vsprintf_r                                       c:/program files (x86)/gnu tools arm embedded/9 2019-q4-major/bin/../lib/gcc/arm-none-eabi/9.2.1/../../../../arm-none-eabi/lib/thumb/v7-m/nofp\libc.a(lib_a-vsprintf.o)
_wctomb_r                                         c:/program files (x86)/gnu tools arm embedded/9 2019-q4-major/bin/../lib/gcc/arm-none-eabi/9.2.1/../../../../arm-none-eabi/lib/thumb/v7-m/nofp\libc.a(lib_a-wctomb_r.o)
_write                                            FLASH_RUN/core.o
abort                                             c:/program files (x86)/gnu tools arm embedded/9 2019-q4-major/bin/../lib/gcc/arm-none-eabi/9.2.1/../../../../arm-none-eabi/lib/thumb/v7-m/nofp\libc.a(lib_a-abort.o)
                                                  FLASH_RUN/core.o
adc_init                                          FLASH_RUN/main.o
ads7843_read_adc                                  FLASH_RUN/ads7843.o
ads7843_read_xy                                   FLASH_RUN/ads7843.o
ads7843_write_byte                                FLASH_RUN/ads7843.o
atab                                              FLASH_RUN/vs1003.o
ax                                                FLASH_RUN/lcd.o
ay                                                FLASH_RUN/lcd.o
background_color                                  FLASH_RUN/lcd.o
                                                  FLASH_RUN/ads7843.o
bitrate                                           FLASH_RUN/vs1003.o
br                                                FLASH_RUN/mp3.o
bt30ms                                            FLASH_RUN/mp3.o
buff                                              FLASH_RUN/lcd.o
buffer                                            FLASH_RUN/mp3.o
buffer_read                                       FLASH_RUN/mp3.o
bw                                                FLASH_RUN/mp3.o
check_rtc                                         FLASH_RUN/time.o
cleanup_glue                                      c:/program files (x86)/gnu tools arm embedded/9 2019-q4-major/bin/../lib/gcc/arm-none-eabi/9.2.1/../../../../arm-none-eabi/lib/thumb/v7-m/nofp\libc.a(lib_a-reent.o)
copy_lrc_to_ram                                   FLASH_RUN/mp3.o
copy_lyric                                        FLASH_RUN/mp3.o
datasize                                          FLASH_RUN/mp3.o
dec2hex                                           FLASH_RUN/mp3.o
delay_ms                                          FLASH_RUN/vs1003.o
                                                  FLASH_RUN/mp3.o
device_code                                       FLASH_RUN/lcd.o
dirs                                              FLASH_RUN/mp3.o
disk_initialize                                   FLASH_RUN/diskio.o
                                                  FLASH_RUN/ff.o
disk_ioctl                                        FLASH_RUN/diskio.o
                                                  FLASH_RUN/ff.o
disk_read                                         FLASH_RUN/diskio.o
                                                  FLASH_RUN/ff.o
disk_status                                       FLASH_RUN/diskio.o
                                                  FLASH_RUN/ff.o
disk_write                                        FLASH_RUN/diskio.o
                                                  FLASH_RUN/ff.o
display_id3v1_tag                                 FLASH_RUN/mp3.o
                                                  FLASH_RUN/main.o
draw_point                                        FLASH_RUN/ads7843.o
drow_touch_point                                  FLASH_RUN/ads7843.o
dtab                                              FLASH_RUN/vs1003.o
dumy_data                                         FLASH_RUN/lcd.o
eng_font                                          FLASH_RUN/lcd.o
eng_mode                                          FLASH_RUN/lcd.o
errno                                             c:/program files (x86)/gnu tools arm embedded/9 2019-q4-major/bin/../lib/gcc/arm-none-eabi/9.2.1/../../../../arm-none-eabi/lib/thumb/v7-m/nofp\libc.a(lib_a-reent.o)
                                                  c:/program files (x86)/gnu tools arm embedded/9 2019-q4-major/bin/../lib/gcc/arm-none-eabi/9.2.1/../../../../arm-none-eabi/lib/thumb/v7-m/nofp\libc.a(lib_a-signalr.o)
                                                  c:/program files (x86)/gnu tools arm embedded/9 2019-q4-major/bin/../lib/gcc/arm-none-eabi/9.2.1/../../../../arm-none-eabi/lib/thumb/v7-m/nofp\libc.a(lib_a-sbrkr.o)
f_chdir                                           FLASH_RUN/ff.o
                                                  FLASH_RUN/mp3.o
f_chdrive                                         FLASH_RUN/ff.o
f_chmod                                           FLASH_RUN/ff.o
f_close                                           FLASH_RUN/ff.o
f_getfree                                         FLASH_RUN/ff.o
f_gets                                            FLASH_RUN/ff.o
f_kbps                                            FLASH_RUN/mp3.o
                                                  FLASH_RUN/vs1003.o
f_lseek                                           FLASH_RUN/ff.o
                                                  FLASH_RUN/mp3.o
f_mkdir                                           FLASH_RUN/ff.o
f_mount                                           FLASH_RUN/ff.o
                                                  FLASH_RUN/mp3.o
f_open                                            FLASH_RUN/ff.o
                                                  FLASH_RUN/mp3.o
f_opendir                                         FLASH_RUN/ff.o
                                                  FLASH_RUN/mp3.o
f_printf                                          FLASH_RUN/ff.o
f_putc                                            FLASH_RUN/ff.o
f_puts                                            FLASH_RUN/ff.o
f_read                                            FLASH_RUN/ff.o
                                                  FLASH_RUN/mp3.o
f_readdir                                         FLASH_RUN/ff.o
                                                  FLASH_RUN/mp3.o
f_rename                                          FLASH_RUN/ff.o
f_stat                                            FLASH_RUN/ff.o
f_sync                                            FLASH_RUN/ff.o
f_truncate                                        FLASH_RUN/ff.o
f_unlink                                          FLASH_RUN/ff.o
f_utime                                           FLASH_RUN/ff.o
f_write                                           FLASH_RUN/ff.o
fap                                               FLASH_RUN/mp3.o
fdx                                               FLASH_RUN/mp3.o
fii                                               FLASH_RUN/mp3.o
fileBuff                                          FLASH_RUN/main.o
filtrate_music                                    FLASH_RUN/mp3.o
find_lrc                                          FLASH_RUN/mp3.o
find_music                                        FLASH_RUN/mp3.o
flash_para                                        FLASH_RUN/serial.o
flash_read                                        FLASH_RUN/serial.o
fno                                               FLASH_RUN/mp3.o
foreground_color                                  FLASH_RUN/lcd.o
free                                              c:/program files (x86)/gnu tools arm embedded/9 2019-q4-major/bin/../lib/gcc/arm-none-eabi/9.2.1/../../../../arm-none-eabi/lib/thumb/v7-m/nofp\libc.a(lib_a-malloc.o)
frexp                                             c:/program files (x86)/gnu tools arm embedded/9 2019-q4-major/bin/../lib/gcc/arm-none-eabi/9.2.1/../../../../arm-none-eabi/lib/thumb/v7-m/nofp\libc.a(lib_a-s_frexp.o)
                                                  c:/program files (x86)/gnu tools arm embedded/9 2019-q4-major/bin/../lib/gcc/arm-none-eabi/9.2.1/../../../../arm-none-eabi/lib/thumb/v7-m/nofp\libc.a(lib_a-svfprintf.o)
fs                                                FLASH_RUN/mp3.o
fsrc                                              FLASH_RUN/mp3.o
ftemp                                             FLASH_RUN/mp3.o
g_pfnVectors                                      /project/stm32fx_lib/stm32f1x_iolib/stm32f1x_iolib_hd_st32_8MHz.a(startup.o)
get_byte                                          FLASH_RUN/mp3.o
get_decode_time                                   FLASH_RUN/vs1003.o
                                                  FLASH_RUN/mp3.o
get_fattime                                       FLASH_RUN/diskio.o
                                                  FLASH_RUN/ff.o
get_head_info                                     FLASH_RUN/vs1003.o
                                                  FLASH_RUN/mp3.o
get_heap_end                                      FLASH_RUN/core.o
get_num                                           FLASH_RUN/mp3.o
get_spec                                          FLASH_RUN/vs1003.o
get_stack_top                                     FLASH_RUN/core.o
get_tag                                           FLASH_RUN/mp3.o
go_back                                           FLASH_RUN/main.o
han_tbl                                           FLASH_RUN/lcd.o
hangul_chosung_tbl                                FLASH_RUN/lcd.o
hangul_jongsung_tbl                               FLASH_RUN/lcd.o
hangul_jungsung_tbl                               FLASH_RUN/lcd.o
hangul_mode                                       FLASH_RUN/lcd.o
head                                              FLASH_RUN/mp3.o
hex2dec                                           FLASH_RUN/mp3.o
init_rtc                                          FLASH_RUN/time.o
                                                  FLASH_RUN/main.o
init_tag                                          FLASH_RUN/mp3.o
jiffes                                            FLASH_RUN/main.o
                                                  FLASH_RUN/time.o
kor_font                                          FLASH_RUN/lcd.o
ks5601_to_kssm                                    FLASH_RUN/lcd.o
lcd_bgr_to_rgb                                    FLASH_RUN/lcd.o
lcd_clear                                         FLASH_RUN/lcd.o
                                                  FLASH_RUN/ads7843.o
lcd_cs_hi                                         FLASH_RUN/lcd.o
lcd_cs_lo                                         FLASH_RUN/lcd.o
lcd_data_port_input                               FLASH_RUN/lcd.o
lcd_data_port_output                              FLASH_RUN/lcd.o
lcd_data_read                                     FLASH_RUN/lcd.o
lcd_data_write                                    FLASH_RUN/lcd.o
lcd_delay                                         FLASH_RUN/lcd.o
lcd_display_off                                   FLASH_RUN/lcd.o
lcd_display_on                                    FLASH_RUN/lcd.o
lcd_draw_circle                                   FLASH_RUN/lcd.o
                                                  FLASH_RUN/ads7843.o
lcd_draw_line                                     FLASH_RUN/lcd.o
                                                  FLASH_RUN/ads7843.o
lcd_draw_rectangle                                FLASH_RUN/lcd.o
lcd_fill                                          FLASH_RUN/lcd.o
lcd_get_pixel                                     FLASH_RUN/lcd.o
lcd_init                                          FLASH_RUN/lcd.o
                                                  FLASH_RUN/main.o
lcd_printf                                        FLASH_RUN/lcd.o
                                                  FLASH_RUN/mp3.o
                                                  FLASH_RUN/vs1003.o
                                                  FLASH_RUN/ads7843.o
                                                  FLASH_RUN/main.o
lcd_rd_hi                                         FLASH_RUN/lcd.o
lcd_rd_lo                                         FLASH_RUN/lcd.o
lcd_read_data                                     FLASH_RUN/lcd.o
lcd_read_register                                 FLASH_RUN/lcd.o
lcd_rs_hi                                         FLASH_RUN/lcd.o
lcd_rs_lo                                         FLASH_RUN/lcd.o
lcd_set_cursor                                    FLASH_RUN/lcd.o
lcd_set_pixel                                     FLASH_RUN/lcd.o
                                                  FLASH_RUN/ads7843.o
lcd_window_max                                    FLASH_RUN/lcd.o
lcd_wr_data                                       FLASH_RUN/lcd.o
lcd_wr_hi                                         FLASH_RUN/lcd.o
lcd_wr_lo                                         FLASH_RUN/lcd.o
lcd_wr_register                                   FLASH_RUN/lcd.o
lcd_write_ram                                     FLASH_RUN/lcd.o
lcd_write_ram_prepare                             FLASH_RUN/lcd.o
lcd_write_register                                FLASH_RUN/lcd.o
led_control                                       FLASH_RUN/main.o
                                                  FLASH_RUN/ads7843.o
load_patch                                        FLASH_RUN/vs1003.o
                                                  FLASH_RUN/mp3.o
loc1                                              FLASH_RUN/lcd.o
loc2                                              FLASH_RUN/lcd.o
loc3                                              FLASH_RUN/lcd.o
localeconv                                        c:/program files (x86)/gnu tools arm embedded/9 2019-q4-major/bin/../lib/gcc/arm-none-eabi/9.2.1/../../../../arm-none-eabi/lib/thumb/v7-m/nofp\libc.a(lib_a-localeconv.o)
lput_char                                         FLASH_RUN/lcd.o
lput_char_xy                                      FLASH_RUN/lcd.o
                                                  FLASH_RUN/mp3.o
lrc                                               FLASH_RUN/mp3.o
lrc_buffer                                        FLASH_RUN/mp3.o
lrc_data                                          FLASH_RUN/mp3.o
lrc_read_init                                     FLASH_RUN/mp3.o
lrc_synchron                                      FLASH_RUN/mp3.o
lrc_tag_cnt                                       FLASH_RUN/mp3.o
lrc_tag_type                                      FLASH_RUN/mp3.o
lyric                                             FLASH_RUN/mp3.o
lyric_display_ctrl                                FLASH_RUN/mp3.o
main                                              FLASH_RUN/main.o
                                                  /project/stm32fx_lib/stm32f1x_iolib/stm32f1x_iolib_hd_st32_8MHz.a(startup.o)
main_display                                      FLASH_RUN/main.o
malloc                                            c:/program files (x86)/gnu tools arm embedded/9 2019-q4-major/bin/../lib/gcc/arm-none-eabi/9.2.1/../../../../arm-none-eabi/lib/thumb/v7-m/nofp\libc.a(lib_a-malloc.o)
                                                  FLASH_RUN/mp3.o
matherr                                           c:/program files (x86)/gnu tools arm embedded/9 2019-q4-major/bin/../lib/gcc/arm-none-eabi/9.2.1/../../../../arm-none-eabi/lib/thumb/v7-m/nofp\libm.a(lib_a-s_matherr.o)
                                                  c:/program files (x86)/gnu tools arm embedded/9 2019-q4-major/bin/../lib/gcc/arm-none-eabi/9.2.1/../../../../arm-none-eabi/lib/thumb/v7-m/nofp\libm.a(lib_a-w_sqrt.o)
max_col                                           FLASH_RUN/lcd.o
max_row                                           FLASH_RUN/lcd.o
maxtx1                                            FLASH_RUN/serial.o
maxtx2                                            FLASH_RUN/serial.o
maxx                                              FLASH_RUN/lcd.o
maxy                                              FLASH_RUN/lcd.o
memchr                                            c:/program files (x86)/gnu tools arm embedded/9 2019-q4-major/bin/../lib/gcc/arm-none-eabi/9.2.1/../../../../arm-none-eabi/lib/thumb/v7-m/nofp\libc.a(lib_a-memchr-stub.o)
                                                  c:/program files (x86)/gnu tools arm embedded/9 2019-q4-major/bin/../lib/gcc/arm-none-eabi/9.2.1/../../../../arm-none-eabi/lib/thumb/v7-m/nofp\libc.a(lib_a-svfiprintf.o)
                                                  c:/program files (x86)/gnu tools arm embedded/9 2019-q4-major/bin/../lib/gcc/arm-none-eabi/9.2.1/../../../../arm-none-eabi/lib/thumb/v7-m/nofp\libc.a(lib_a-svfprintf.o)
memcpy                                            c:/program files (x86)/gnu tools arm embedded/9 2019-q4-major/bin/../lib/gcc/arm-none-eabi/9.2.1/../../../../arm-none-eabi/lib/thumb/v7-m/nofp\libc.a(lib_a-memcpy.o)
                                                  c:/program files (x86)/gnu tools arm embedded/9 2019-q4-major/bin/../lib/gcc/arm-none-eabi/9.2.1/../../../../arm-none-eabi/lib/thumb/v7-m/nofp\libc.a(lib_a-svfiprintf.o)
                                                  c:/program files (x86)/gnu tools arm embedded/9 2019-q4-major/bin/../lib/gcc/arm-none-eabi/9.2.1/../../../../arm-none-eabi/lib/thumb/v7-m/nofp\libc.a(lib_a-mprec.o)
                                                  c:/program files (x86)/gnu tools arm embedded/9 2019-q4-major/bin/../lib/gcc/arm-none-eabi/9.2.1/../../../../arm-none-eabi/lib/thumb/v7-m/nofp\libc.a(lib_a-dtoa.o)
                                                  FLASH_RUN/serial.o
memmove                                           c:/program files (x86)/gnu tools arm embedded/9 2019-q4-major/bin/../lib/gcc/arm-none-eabi/9.2.1/../../../../arm-none-eabi/lib/thumb/v7-m/nofp\libc.a(lib_a-memmove.o)
                                                  c:/program files (x86)/gnu tools arm embedded/9 2019-q4-major/bin/../lib/gcc/arm-none-eabi/9.2.1/../../../../arm-none-eabi/lib/thumb/v7-m/nofp\libc.a(lib_a-reallocr.o)
                                                  c:/program files (x86)/gnu tools arm embedded/9 2019-q4-major/bin/../lib/gcc/arm-none-eabi/9.2.1/../../../../arm-none-eabi/lib/thumb/v7-m/nofp\libc.a(lib_a-svfiprintf.o)
memset                                            c:/program files (x86)/gnu tools arm embedded/9 2019-q4-major/bin/../lib/gcc/arm-none-eabi/9.2.1/../../../../arm-none-eabi/lib/thumb/v7-m/nofp\libc.a(lib_a-memset.o)
                                                  c:/program files (x86)/gnu tools arm embedded/9 2019-q4-major/bin/../lib/gcc/arm-none-eabi/9.2.1/../../../../arm-none-eabi/lib/thumb/v7-m/nofp\libc.a(lib_a-callocr.o)
                                                  FLASH_RUN/mp3.o
                                                  FLASH_RUN/serial.o
month_length                                      FLASH_RUN/time.o
mp3                                               FLASH_RUN/mp3.o
mp3_display                                       FLASH_RUN/mp3.o
mp3_displayinit                                   FLASH_RUN/mp3.o
                                                  FLASH_RUN/main.o
mp3_displaylist                                   FLASH_RUN/mp3.o
                                                  FLASH_RUN/main.o
mp3_flag                                          FLASH_RUN/mp3.o
mp3_init                                          FLASH_RUN/mp3.o
                                                  FLASH_RUN/main.o
mp3_name                                          FLASH_RUN/mp3.o
mp3_play                                          FLASH_RUN/mp3.o
                                                  FLASH_RUN/main.o
mp3_prog_bar                                      FLASH_RUN/mp3.o
mp3_reset                                         FLASH_RUN/vs1003.o
                                                  FLASH_RUN/mp3.o
mp3_seek                                          FLASH_RUN/mp3.o
                                                  FLASH_RUN/main.o
music_extend                                      FLASH_RUN/mp3.o
music_number                                      FLASH_RUN/mp3.o
new_play                                          FLASH_RUN/mp3.o
now_time                                          FLASH_RUN/time.o
option_value                                      FLASH_RUN/main.o
out_lcd                                           FLASH_RUN/lcd.o
page                                              FLASH_RUN/lcd.o
pen_count                                         FLASH_RUN/ads7843.o
pen_enable                                        FLASH_RUN/ads7843.o
pen_interrupt_set                                 FLASH_RUN/ads7843.o
pen_point                                         FLASH_RUN/ads7843.o
pen_status                                        FLASH_RUN/ads7843.o
play_mp3                                          FLASH_RUN/main.o
                                                  FLASH_RUN/mp3.o
play_next                                         FLASH_RUN/mp3.o
                                                  FLASH_RUN/main.o
play_prev                                         FLASH_RUN/mp3.o
                                                  FLASH_RUN/main.o
propos                                            FLASH_RUN/mp3.o
put_eng                                           FLASH_RUN/lcd.o
put_engxy                                         FLASH_RUN/lcd.o
put_han                                           FLASH_RUN/lcd.o
put_hanxy                                         FLASH_RUN/lcd.o
raise                                             c:/program files (x86)/gnu tools arm embedded/9 2019-q4-major/bin/../lib/gcc/arm-none-eabi/9.2.1/../../../../arm-none-eabi/lib/thumb/v7-m/nofp\libc.a(lib_a-signal.o)
                                                  c:/program files (x86)/gnu tools arm embedded/9 2019-q4-major/bin/../lib/gcc/arm-none-eabi/9.2.1/../../../../arm-none-eabi/lib/thumb/v7-m/nofp\libc.a(lib_a-abort.o)
read_ads7843                                      FLASH_RUN/ads7843.o
read_ads7843_2                                    FLASH_RUN/ads7843.o
read_byte_lrcbuf                                  FLASH_RUN/mp3.o
read_lrc_file_data                                FLASH_RUN/mp3.o
read_tp_once                                      FLASH_RUN/ads7843.o
receive_serial1                                   FLASH_RUN/serial.o
                                                  FLASH_RUN/main.o
receive_serial2                                   FLASH_RUN/serial.o
                                                  FLASH_RUN/main.o
regvalue                                          FLASH_RUN/vs1003.o
res                                               FLASH_RUN/mp3.o
resume_music                                      FLASH_RUN/mp3.o
rxbuff1                                           FLASH_RUN/serial.o
rxbuff2                                           FLASH_RUN/serial.o
rxck1                                             FLASH_RUN/serial.o
                                                  FLASH_RUN/main.o
rxck2                                             FLASH_RUN/serial.o
                                                  FLASH_RUN/main.o
rxcnt1                                            FLASH_RUN/serial.o
                                                  FLASH_RUN/main.o
rxcnt2                                            FLASH_RUN/serial.o
                                                  FLASH_RUN/main.o
rxled                                             FLASH_RUN/serial.o
                                                  FLASH_RUN/main.o
s_bit                                             FLASH_RUN/lcd.o
s_printf                                          FLASH_RUN/serial.o
                                                  FLASH_RUN/core.o
sbuff                                             FLASH_RUN/serial.o
sec_tick                                          FLASH_RUN/main.o
second                                            FLASH_RUN/main.o
                                                  FLASH_RUN/mp3.o
seek_value                                        FLASH_RUN/mp3.o
serial_init                                       FLASH_RUN/serial.o
                                                  FLASH_RUN/main.o
set_background_color                              FLASH_RUN/lcd.o
set_color                                         FLASH_RUN/lcd.o
set_pixel                                         FLASH_RUN/lcd.o
set_time                                          FLASH_RUN/time.o
set_vs1003                                        FLASH_RUN/vs1003.o
                                                  FLASH_RUN/mp3.o
setlocale                                         c:/program files (x86)/gnu tools arm embedded/9 2019-q4-major/bin/../lib/gcc/arm-none-eabi/9.2.1/../../../../arm-none-eabi/lib/thumb/v7-m/nofp\libc.a(lib_a-locale.o)
setup_rtc                                         FLASH_RUN/time.o
signal                                            c:/program files (x86)/gnu tools arm embedded/9 2019-q4-major/bin/../lib/gcc/arm-none-eabi/9.2.1/../../../../arm-none-eabi/lib/thumb/v7-m/nofp\libc.a(lib_a-signal.o)
spedate                                           FLASH_RUN/mp3.o
sqrt                                              c:/program files (x86)/gnu tools arm embedded/9 2019-q4-major/bin/../lib/gcc/arm-none-eabi/9.2.1/../../../../arm-none-eabi/lib/thumb/v7-m/nofp\libm.a(lib_a-w_sqrt.o)
                                                  FLASH_RUN/ads7843.o
strcasecmp                                        c:/program files (x86)/gnu tools arm embedded/9 2019-q4-major/bin/../lib/gcc/arm-none-eabi/9.2.1/../../../../arm-none-eabi/lib/thumb/v7-m/nofp\libc.a(lib_a-strcasecmp.o)
                                                  FLASH_RUN/mp3.o
strcmp                                            c:/program files (x86)/gnu tools arm embedded/9 2019-q4-major/bin/../lib/gcc/arm-none-eabi/9.2.1/../../../../arm-none-eabi/lib/thumb/v7-m/nofp\libc.a(lib_a-strcmp.o)
                                                  c:/program files (x86)/gnu tools arm embedded/9 2019-q4-major/bin/../lib/gcc/arm-none-eabi/9.2.1/../../../../arm-none-eabi/lib/thumb/v7-m/nofp\libc.a(lib_a-locale.o)
strcpy                                            c:/program files (x86)/gnu tools arm embedded/9 2019-q4-major/bin/../lib/gcc/arm-none-eabi/9.2.1/../../../../arm-none-eabi/lib/thumb/v7-m/nofp\libc.a(lib_a-strcpy.o)
                                                  FLASH_RUN/mp3.o
strlen                                            c:/program files (x86)/gnu tools arm embedded/9 2019-q4-major/bin/../lib/gcc/arm-none-eabi/9.2.1/../../../../arm-none-eabi/lib/thumb/v7-m/nofp\libc.a(lib_a-strlen-stub.o)
                                                  c:/program files (x86)/gnu tools arm embedded/9 2019-q4-major/bin/../lib/gcc/arm-none-eabi/9.2.1/../../../../arm-none-eabi/lib/thumb/v7-m/nofp\libc.a(lib_a-svfiprintf.o)
                                                  c:/program files (x86)/gnu tools arm embedded/9 2019-q4-major/bin/../lib/gcc/arm-none-eabi/9.2.1/../../../../arm-none-eabi/lib/thumb/v7-m/nofp\libc.a(lib_a-svfprintf.o)
                                                  FLASH_RUN/mp3.o
                                                  FLASH_RUN/lcd.o
                                                  FLASH_RUN/serial.o
strncpy                                           c:/program files (x86)/gnu tools arm embedded/9 2019-q4-major/bin/../lib/gcc/arm-none-eabi/9.2.1/../../../../arm-none-eabi/lib/thumb/v7-m/nofp\libc.a(lib_a-strncpy.o)
                                                  c:/program files (x86)/gnu tools arm embedded/9 2019-q4-major/bin/../lib/gcc/arm-none-eabi/9.2.1/../../../../arm-none-eabi/lib/thumb/v7-m/nofp\libc.a(lib_a-svfiprintf.o)
                                                  c:/program files (x86)/gnu tools arm embedded/9 2019-q4-major/bin/../lib/gcc/arm-none-eabi/9.2.1/../../../../arm-none-eabi/lib/thumb/v7-m/nofp\libc.a(lib_a-svfprintf.o)
sw_cnt1                                           FLASH_RUN/main.o
sw_cnt2                                           FLASH_RUN/main.o
sw_cnt3                                           FLASH_RUN/main.o
sw_cnt4                                           FLASH_RUN/main.o
sw_cnt5                                           FLASH_RUN/main.o
sw_value                                          FLASH_RUN/main.o
tag_table                                         FLASH_RUN/mp3.o
this_id                                           FLASH_RUN/serial.o
tick                                              FLASH_RUN/main.o
                                                  FLASH_RUN/ads7843.o
time_from_seconds                                 FLASH_RUN/time.o
time_rtc_flag                                     FLASH_RUN/time.o
time_to_seconds                                   FLASH_RUN/time.o
timer4_init                                       FLASH_RUN/main.o
timetemp                                          FLASH_RUN/mp3.o
touch_adjust                                      FLASH_RUN/ads7843.o
touch_init                                        FLASH_RUN/ads7843.o
                                                  FLASH_RUN/main.o
touch_process                                     FLASH_RUN/ads7843.o
                                                  FLASH_RUN/main.o
touch_read                                        FLASH_RUN/main.o
tx                                                FLASH_RUN/lcd.o
tx_flag1                                          FLASH_RUN/serial.o
tx_flag2                                          FLASH_RUN/serial.o
txbuff1                                           FLASH_RUN/serial.o
txbuff2                                           FLASH_RUN/serial.o
txcnt1                                            FLASH_RUN/serial.o
txcnt2                                            FLASH_RUN/serial.o
txled                                             FLASH_RUN/serial.o
                                                  FLASH_RUN/main.o
ty                                                FLASH_RUN/lcd.o
uasrt_read                                        FLASH_RUN/serial.o
uasrt_send                                        FLASH_RUN/serial.o
uni_to_kssm                                       FLASH_RUN/lcd.o
uni_to_kssm2                                      FLASH_RUN/lcd.o
usart_check                                       FLASH_RUN/serial.o
volume                                            FLASH_RUN/main.o
                                                  FLASH_RUN/mp3.o
volume_flag                                       FLASH_RUN/main.o
                                                  FLASH_RUN/mp3.o
vs1003_cmd_write                                  FLASH_RUN/vs1003.o
vs1003_data_write                                 FLASH_RUN/vs1003.o
                                                  FLASH_RUN/mp3.o
vs1003_get_mp3info                                FLASH_RUN/vs1003.o
                                                  FLASH_RUN/mp3.o
vs1003_init                                       FLASH_RUN/vs1003.o
                                                  FLASH_RUN/mp3.o
vs1003_ram                                        FLASH_RUN/vs1003.o
vs1003_ram_test                                   FLASH_RUN/vs1003.o
vs1003_reg_read                                   FLASH_RUN/vs1003.o
vs1003_reset_decode_time                          FLASH_RUN/vs1003.o
vs1003_set_volume                                 FLASH_RUN/vs1003.o
                                                  FLASH_RUN/mp3.o
vs1003_sine_test                                  FLASH_RUN/vs1003.o
                                                  FLASH_RUN/mp3.o
vs1003_soft_reset                                 FLASH_RUN/vs1003.o
                                                  FLASH_RUN/mp3.o
vsprintf                                          c:/program files (x86)/gnu tools arm embedded/9 2019-q4-major/bin/../lib/gcc/arm-none-eabi/9.2.1/../../../../arm-none-eabi/lib/thumb/v7-m/nofp\libc.a(lib_a-vsprintf.o)
                                                  FLASH_RUN/lcd.o
                                                  FLASH_RUN/serial.o
wait_ms                                           FLASH_RUN/main.o
                                                  FLASH_RUN/vs1003.o
                                                  FLASH_RUN/ads7843.o
                                                  FLASH_RUN/lcd.o
write_byte_lrcbuf                                 FLASH_RUN/mp3.o
xLoc                                              FLASH_RUN/main.o
yLoc                                              FLASH_RUN/main.o
